CCS PCH C Compiler, Version 4.120, 5967               09-фев-12 16:28

               Filename: C:\Program Files\PICC\Projects\2480\main.lst

               ROM used: 108 bytes (1%)
                         Largest free fragment is 16276
               RAM used: 4 (1%) at main() level
                         5 (1%) worst case
               Stack:    1 locations

*
0000:  GOTO   002C
.................... #include <main.h> 
.................... #include <18F2480.h> 
.................... //////// Standard Header file for the PIC18F2480 device //////////////// 
.................... #device PIC18F2480 
.................... #list 
....................  
.................... #device adc=16 
....................  
.................... #FUSES NOWDT                    //No Watch Dog Timer 
.................... #FUSES WDT128                   //Watch Dog Timer uses 1:128 Postscale 
.................... #FUSES Hs                       //High speed osc with HW enabled 4X PLL 
.................... #FUSES NOFCMEN                  //Fail-safe clock monitor disabled 
.................... #FUSES NOIESO                   //Internal External Switch Over mode disabled 
.................... #FUSES NOBROWNOUT               //No brownout reset 
.................... #FUSES NOPBADEN                 //PORTB pins are configured as digital I/O on RESET 
.................... #FUSES NOLPT1OSC                //Timer1 configured for higher power operation 
.................... #FUSES NOLVP                    //No low voltage prgming, B3(PIC16) or B5(PIC18) used for I/O 
.................... #FUSES NOXINST                  //Extended set extension and Indexed Addressing mode disabled (Legacy mode) 
....................  
.................... #use delay(clock=10000000) 
0004:  CLRF   FEA
0006:  MOVLW  05
0008:  MOVWF  FE9
000A:  MOVF   FEF,W
000C:  BZ    002A
000E:  MOVLW  03
0010:  MOVWF  01
0012:  CLRF   00
0014:  DECFSZ 00,F
0016:  BRA    0014
0018:  DECFSZ 01,F
001A:  BRA    0012
001C:  MOVLW  3C
001E:  MOVWF  00
0020:  DECFSZ 00,F
0022:  BRA    0020
0024:  BRA    0026
0026:  DECFSZ FEF,F
0028:  BRA    000E
002A:  RETURN 0
....................  
....................  
....................  
.................... #Byte TRISA = 0xf92 
.................... #Byte TRISB = 0xf93 
.................... #Byte TRISC = 0xf94 
.................... #Byte TRISD = 0xf95 
....................  
.................... #Byte PORTA = 0xf80 
.................... #Byte PORTB = 0xf81 
.................... #Byte PORTC = 0xf82 
.................... #Byte PORTD = 0xf83 
....................  
.................... #BIT RA0 = PORTA.0 
.................... #BIT RA1 = PORTA.1 
.................... #BIT RA2 = PORTA.2 
.................... #BIT RA3 = PORTA.3 
.................... #BIT RA4 = PORTA.4 
....................  
.................... #BIT TRA5 = TRISA.5 
.................... #BIT TRA4 = TRISA.4 
.................... #BIT TRA3 = TRISA.3 
.................... #BIT TRA2 = TRISA.2 
.................... #BIT TRA1 = TRISA.1 
.................... #BIT TRA0 = TRISA.0 
....................  
.................... void main() 
.................... { 
002C:  CLRF   FF8
002E:  BCF    FD0.7
0030:  CLRF   FEA
0032:  CLRF   FE9
0034:  MOVF   FC1,W
0036:  ANDLW  C0
0038:  IORLW  0F
003A:  MOVWF  FC1
....................  TRA0=0; 
003C:  BCF    F92.0
....................  TRA1=0; 
003E:  BCF    F92.1
....................  TRA2=0; 
0040:  BCF    F92.2
....................  TRA3 = 0; 
0042:  BCF    F92.3
....................  
.................... While (true){  
....................  
....................    RA2=0; 
0044:  BCF    F80.2
....................    RA0 = 1; 
0046:  BSF    F80.0
....................    RA1 = 1; 
0048:  BSF    F80.1
....................    delay_us(1); 
004A:  BRA    004C
....................    RA2= 1; 
004C:  BSF    F80.2
....................    RA0 = 0; 
004E:  BCF    F80.0
....................    delay_us(1); 
0050:  BRA    0052
....................    RA2 = 0; 
0052:  BCF    F80.2
....................    RA0 = 1; 
0054:  BSF    F80.0
....................    delay_ms(1); 
0056:  MOVLW  01
0058:  MOVWF  05
005A:  RCALL  0004
....................     RA1 = 0; 
005C:  BCF    F80.1
....................     delay_us(1); 
005E:  BRA    0060
....................    RA1 = 1;  
0060:  BSF    F80.1
....................    delay_ms(100); 
0062:  MOVLW  64
0064:  MOVWF  05
0066:  RCALL  0004
....................       
.................... } 
0068:  BRA    0044
....................  
....................  
.................... } 
006A:  SLEEP 

Configuration Fuses:
   Word  1: 0200   HS NOFCMEN NOIESO
   Word  2: 0E18   PUT NOBROWNOUT BORV21 NOWDT WDT128
   Word  3: 8000   NOPBADEN NOLPT1OSC MCLR
   Word  4: 0091   STVREN NOLVP BBSIZ2K NOXINST NODEBUG
   Word  5: C00F   NOPROTECT NOCPB NOCPD
   Word  6: E00F   NOWRT NOWRTC NOWRTB NOWRTD
   Word  7: 400F   NOEBTR NOEBTRB
