Archive member included because of file (symbol)

c:/program files (x86)/microchip/xc32/v2.30/bin/bin/../../lib/gcc/pic32mx/4.8.3/fpu64\libgcc.a(_udivdi3.o)
                              build/pic32mz_ef_sk/production/_ext/1314174413/drv_ethmac.o (__udivdi3)
c:/program files (x86)/microchip/xc32/v2.30/bin/bin/../../lib/gcc/pic32mx/4.8.3/../../../../pic32mx/lib/fpu64\libpic32.a(memcmp.o)
                              build/pic32mz_ef_sk/production/_ext/1314174413/drv_ethmac.o (memcmp)
c:/program files (x86)/microchip/xc32/v2.30/bin/bin/../../lib/gcc/pic32mx/4.8.3/../../../../pic32mx/lib/fpu64\libpic32.a(memcpy.o)
                              build/pic32mz_ef_sk/production/_ext/2027382860/dns.o (memcpy)
c:/program files (x86)/microchip/xc32/v2.30/bin/bin/../../lib/gcc/pic32mx/4.8.3/../../../../pic32mx/lib/fpu64\libpic32.a(memset.o)
                              build/pic32mz_ef_sk/production/_ext/1314174413/drv_ethmac.o (memset)
c:/program files (x86)/microchip/xc32/v2.30/bin/bin/../../lib/gcc/pic32mx/4.8.3/../../../../pic32mx/lib/fpu64\libpic32.a(strcmp.o)
                              build/pic32mz_ef_sk/production/_ext/2027382860/dns.o (strcmp)
c:/program files (x86)/microchip/xc32/v2.30/bin/bin/../../lib/gcc/pic32mx/4.8.3/../../../../pic32mx/lib/fpu64\libpic32.a(strcpy.o)
                              build/pic32mz_ef_sk/production/_ext/2027382860/tcpip_commands.o (strcpy)
c:/program files (x86)/microchip/xc32/v2.30/bin/bin/../../lib/gcc/pic32mx/4.8.3/../../../../pic32mx/lib/fpu64\libpic32.a(strlen.o)
                              build/pic32mz_ef_sk/production/_ext/2027382860/helpers.o (strlen)
c:/program files (x86)/microchip/xc32/v2.30/bin/bin/../../lib/gcc/pic32mx/4.8.3/../../../../pic32mx/lib/fpu64\libpic32.a(default-bootstrap-exception-handler.o)
                              C:\Users\Reg\AppData\Local\Temp\ccyBwbgZ.o (_bootstrap_exception_handler)
c:/program files (x86)/microchip/xc32/v2.30/bin/bin/../../lib/gcc/pic32mx/4.8.3/../../../../pic32mx/lib/fpu64\libpic32.a(default-on-reset.o)
                              C:\Users\Reg\AppData\Local\Temp\ccyBwbgZ.o (_on_reset)
c:/program files (x86)/microchip/xc32/v2.30/bin/bin/../../lib/gcc/pic32mx/4.8.3/../../../../pic32mx/lib/fpu64\libpic32.a(default-on-bootstrap.o)
                              C:\Users\Reg\AppData\Local\Temp\ccyBwbgZ.o (_on_bootstrap)
c:/program files (x86)/microchip/xc32/v2.30/bin/bin/../../lib/gcc/pic32mx/4.8.3/../../../../pic32mx/lib/fpu64\libpic32.a(default-nmi-handler.o)
                              C:\Users\Reg\AppData\Local\Temp\ccyBwbgZ.o (_nmi_handler)
c:/program files (x86)/microchip/xc32/v2.30/bin/bin/../../lib/gcc/pic32mx/4.8.3/../../../../pic32mx/lib/fpu64\libpic32.a(pic32_data_init.o)
                              C:\Users\Reg\AppData\Local\Temp\ccyBwbgZ.o (__pic32_data_init)
c:/program files (x86)/microchip/xc32/v2.30/bin/bin/../../lib/gcc/pic32mx/4.8.3/../../../../pic32mx/lib/fpu64\libpic32.a(pic32_init_cache.o)
                              C:\Users\Reg\AppData\Local\Temp\ccyBwbgZ.o (__pic32_init_cache)
c:/program files (x86)/microchip/xc32/v2.30/bin/bin/../../lib/gcc/pic32mx/4.8.3/../../../../pic32mx/lib/fpu64\libpic32.a(pic32_init_tlb_ebi_sqi.o)
                              C:\Users\Reg\AppData\Local\Temp\ccyBwbgZ.o (__pic32_tlb_init_ebi_sqi)
c:/program files (x86)/microchip/xc32/v2.30/bin/bin/../../lib/gcc/pic32mx/4.8.3/../../../../pic32mx/lib/fpu64\libpic32.a(general-exception.o)
                              C:\Users\Reg\AppData\Local\Temp\ccyBwbgZ.o (_general_exception_context)
c:/program files (x86)/microchip/xc32/v2.30/bin/bin/../../lib/gcc/pic32mx/4.8.3/../../../../pic32mx/lib/fpu64\libpic32.a(cache-err-exception.o)
                              C:\Users\Reg\AppData\Local\Temp\ccyBwbgZ.o (_cache_err_exception_context)
c:/program files (x86)/microchip/xc32/v2.30/bin/bin/../../lib/gcc/pic32mx/4.8.3/../../../../pic32mx/lib/fpu64\libpic32.a(simple-tlb-refill-exception.o)
                              C:\Users\Reg\AppData\Local\Temp\ccyBwbgZ.o (_simple_tlb_refill_exception_context)
c:/program files (x86)/microchip/xc32/v2.30/bin/bin/../../lib/gcc/pic32mx/4.8.3/../../../../pic32mx/lib/fpu64\libpic32.a(defaultinterrupt.o)
                              C:\Users\Reg\AppData\Local\Temp\ccyzeYAh.o (_DefaultInterrupt)
c:/program files (x86)/microchip/xc32/v2.30/bin/bin/../../lib/gcc/pic32mx/4.8.3/../../../../pic32mx/lib/fpu64\libpic32.a(default-cache-err-exception-handler.o)
                              c:/program files (x86)/microchip/xc32/v2.30/bin/bin/../../lib/gcc/pic32mx/4.8.3/../../../../pic32mx/lib/fpu64\libpic32.a(cache-err-exception.o) (_cache_err_exception_handler)
c:/program files (x86)/microchip/xc32/v2.30/bin/bin/../../lib/gcc/pic32mx/4.8.3/../../../../pic32mx/lib/fpu64\libpic32.a(default-simple-tlb-refill-exception-handler.o)
                              c:/program files (x86)/microchip/xc32/v2.30/bin/bin/../../lib/gcc/pic32mx/4.8.3/../../../../pic32mx/lib/fpu64\libpic32.a(simple-tlb-refill-exception.o) (_simple_tlb_refill_exception_handler)
c:/program files (x86)/microchip/xc32/v2.30/bin/bin/../../lib/gcc/pic32mx/4.8.3/../../../../pic32mx/lib/fpu64\libc.a(atoi.o)
                              build/pic32mz_ef_sk/production/_ext/2027382860/tcpip_commands.o (atoi)
c:/program files (x86)/microchip/xc32/v2.30/bin/bin/../../lib/gcc/pic32mx/4.8.3/../../../../pic32mx/lib/fpu64\libc.a(calloc.o)
                              build/pic32mz_ef_sk/production/_ext/2135388491/sys_command.o (calloc)
c:/program files (x86)/microchip/xc32/v2.30/bin/bin/../../lib/gcc/pic32mx/4.8.3/../../../../pic32mx/lib/fpu64\libc.a(ctype.o)
                              build/pic32mz_ef_sk/production/_ext/2027382860/dhcp.o (_ctype)
c:/program files (x86)/microchip/xc32/v2.30/bin/bin/../../lib/gcc/pic32mx/4.8.3/../../../../pic32mx/lib/fpu64\libc.a(ctypef.o)
                              build/pic32mz_ef_sk/production/_ext/2027382860/helpers.o (tolower)
c:/program files (x86)/microchip/xc32/v2.30/bin/bin/../../lib/gcc/pic32mx/4.8.3/../../../../pic32mx/lib/fpu64\libc.a(malloc.o)
                              build/pic32mz_ef_sk/production/_ext/942849350/initialization.o (malloc)
c:/program files (x86)/microchip/xc32/v2.30/bin/bin/../../lib/gcc/pic32mx/4.8.3/../../../../pic32mx/lib/fpu64\libc.a(rand.o)
                              build/pic32mz_ef_sk/production/_ext/2027382860/dns.o (rand)
c:/program files (x86)/microchip/xc32/v2.30/bin/bin/../../lib/gcc/pic32mx/4.8.3/../../../../pic32mx/lib/fpu64\libc.a(strncmp.o)
                              build/pic32mz_ef_sk/production/_ext/2135388491/sys_command.o (strncmp)
c:/program files (x86)/microchip/xc32/v2.30/bin/bin/../../lib/gcc/pic32mx/4.8.3/../../../../pic32mx/lib/fpu64\libc.a(strncpy.o)
                              build/pic32mz_ef_sk/production/_ext/1314174413/drv_ethmac.o (strncpy)
c:/program files (x86)/microchip/xc32/v2.30/bin/bin/../../lib/gcc/pic32mx/4.8.3/../../../../pic32mx/lib/fpu64\libc.a(strtol.o)
                              build/pic32mz_ef_sk/production/_ext/2027382860/tcpip_helpers.o (strtol)
c:/program files (x86)/microchip/xc32/v2.30/bin/bin/../../lib/gcc/pic32mx/4.8.3/../../../../pic32mx/lib/fpu64\libc.a(printf_cdnopsuxX.eo)
                              build/pic32mz_ef_sk/production/_ext/942849350/exceptions.o (_printf_cdnopsuxX)
c:/program files (x86)/microchip/xc32/v2.30/bin/bin/../../lib/gcc/pic32mx/4.8.3/../../../../pic32mx/lib/fpu64\libc.a(snprintf_cdnopsuxX.eo)
                              build/pic32mz_ef_sk/production/_ext/2027382860/tcpip_manager.o (_snprintf_cdnopsuxX)
c:/program files (x86)/microchip/xc32/v2.30/bin/bin/../../lib/gcc/pic32mx/4.8.3/../../../../pic32mx/lib/fpu64\libc.a(sprintf_cdnopsuxX.eo)
                              build/pic32mz_ef_sk/production/_ext/2135388491/sys_command.o (_sprintf_cdnopsuxX)
c:/program files (x86)/microchip/xc32/v2.30/bin/bin/../../lib/gcc/pic32mx/4.8.3/../../../../pic32mx/lib/fpu64\libc.a(sprintf_cdnopuxX.eo)
                              build/pic32mz_ef_sk/production/_ext/2027382860/tcpip_helpers.o (_sprintf_cdnopuxX)
c:/program files (x86)/microchip/xc32/v2.30/bin/bin/../../lib/gcc/pic32mx/4.8.3/../../../../pic32mx/lib/fpu64\libc.a(vsnprintf_cdnopsuxX.eo)
                              c:/program files (x86)/microchip/xc32/v2.30/bin/bin/../../lib/gcc/pic32mx/4.8.3/../../../../pic32mx/lib/fpu64\libc.a(snprintf_cdnopsuxX.eo) (_vsnprintf_cdnopsuxX)
c:/program files (x86)/microchip/xc32/v2.30/bin/bin/../../lib/gcc/pic32mx/4.8.3/../../../../pic32mx/lib/fpu64\libc.a(vsnprintf.o)
                              build/pic32mz_ef_sk/production/_ext/2135388491/sys_command.o (vsnprintf)
c:/program files (x86)/microchip/xc32/v2.30/bin/bin/../../lib/gcc/pic32mx/4.8.3/../../../../pic32mx/lib/fpu64\libc.a(_iob.o)
                              c:/program files (x86)/microchip/xc32/v2.30/bin/bin/../../lib/gcc/pic32mx/4.8.3/../../../../pic32mx/lib/fpu64\libc.a(printf_cdnopsuxX.eo) (_iob)
c:/program files (x86)/microchip/xc32/v2.30/bin/bin/../../lib/gcc/pic32mx/4.8.3/../../../../pic32mx/lib/fpu64\libc.a(errno.o)
                              c:/program files (x86)/microchip/xc32/v2.30/bin/bin/../../lib/gcc/pic32mx/4.8.3/../../../../pic32mx/lib/fpu64\libc.a(strtol.o) (errno)
c:/program files (x86)/microchip/xc32/v2.30/bin/bin/../../lib/gcc/pic32mx/4.8.3/../../../../pic32mx/lib/fpu64\libc.a(doprnt_cdnopsuxX.eo)
                              c:/program files (x86)/microchip/xc32/v2.30/bin/bin/../../lib/gcc/pic32mx/4.8.3/../../../../pic32mx/lib/fpu64\libc.a(printf_cdnopsuxX.eo) (_vfprintf_cdnopsuxX)
c:/program files (x86)/microchip/xc32/v2.30/bin/bin/../../lib/gcc/pic32mx/4.8.3/../../../../pic32mx/lib/fpu64\libc.a(doprnt_cdnopuxX.eo)
                              c:/program files (x86)/microchip/xc32/v2.30/bin/bin/../../lib/gcc/pic32mx/4.8.3/../../../../pic32mx/lib/fpu64\libc.a(sprintf_cdnopuxX.eo) (_vfprintf_cdnopuxX)
c:/program files (x86)/microchip/xc32/v2.30/bin/bin/../../lib/gcc/pic32mx/4.8.3/../../../../pic32mx/lib/fpu64\libc.a(doprnt.o)
                              c:/program files (x86)/microchip/xc32/v2.30/bin/bin/../../lib/gcc/pic32mx/4.8.3/../../../../pic32mx/lib/fpu64\libc.a(vsnprintf.o) (vfprintf)
c:/program files (x86)/microchip/xc32/v2.30/bin/bin/../../lib/gcc/pic32mx/4.8.3/../../../../pic32mx/lib/fpu64\libc.a(_fputc_simple.o)
                              c:/program files (x86)/microchip/xc32/v2.30/bin/bin/../../lib/gcc/pic32mx/4.8.3/../../../../pic32mx/lib/fpu64\libc.a(doprnt_cdnopsuxX.eo) (fputc)
c:/program files (x86)/microchip/xc32/v2.30/bin/bin/../../lib/gcc/pic32mx/4.8.3/../../../../pic32mx/lib/fpu64\libc.a(ldpowers.o)
                              c:/program files (x86)/microchip/xc32/v2.30/bin/bin/../../lib/gcc/pic32mx/4.8.3/../../../../pic32mx/lib/fpu64\libc.a(doprnt.o) (_npowers_)
c:/program files (x86)/microchip/xc32/v2.30/bin/bin/../../lib/gcc/pic32mx/4.8.3/../../../../pic32mx/lib/fpu64\libc.a(_flsbuf_simple.o)
                              c:/program files (x86)/microchip/xc32/v2.30/bin/bin/../../lib/gcc/pic32mx/4.8.3/../../../../pic32mx/lib/fpu64\libc.a(_fputc_simple.o) (_flsbuf)
c:/program files (x86)/microchip/xc32/v2.30/bin/bin/../../lib/gcc/pic32mx/4.8.3/../../../../pic32mx/lib/fpu64\libmfd.a(s_frexp.o)
                              c:/program files (x86)/microchip/xc32/v2.30/bin/bin/../../lib/gcc/pic32mx/4.8.3/../../../../pic32mx/lib/fpu64\libc.a(doprnt.o) (_frexpx)
c:/program files (x86)/microchip/xc32/v2.30/bin/bin/../../lib/gcc/pic32mx/4.8.3/fpu64\libgcc.a(_cmpdi2.o)
                              c:/program files (x86)/microchip/xc32/v2.30/bin/bin/../../lib/gcc/pic32mx/4.8.3/../../../../pic32mx/lib/fpu64\libc.a(doprnt.o) (__cmpdi2)
c:/program files (x86)/microchip/xc32/v2.30/bin/bin/../../lib/gcc/pic32mx/4.8.3/fpu64\libgcc.a(_umoddi3.o)
                              c:/program files (x86)/microchip/xc32/v2.30/bin/bin/../../lib/gcc/pic32mx/4.8.3/../../../../pic32mx/lib/fpu64\libc.a(doprnt_cdnopsuxX.eo) (__umoddi3)
c:/program files (x86)/microchip/xc32/v2.30/bin/bin/../../lib/gcc/pic32mx/4.8.3/../../../../pic32mx/lib/fpu64\libpic32.a(sbrk.o)
                              c:/program files (x86)/microchip/xc32/v2.30/bin/bin/../../lib/gcc/pic32mx/4.8.3/../../../../pic32mx/lib/fpu64\libc.a(malloc.o) (sbrk)
c:/program files (x86)/microchip/xc32/v2.30/bin/bin/../../lib/gcc/pic32mx/4.8.3/../../../../pic32mx/lib/fpu64\libpic32.a(write.o)
                              c:/program files (x86)/microchip/xc32/v2.30/bin/bin/../../lib/gcc/pic32mx/4.8.3/../../../../pic32mx/lib/fpu64\libc.a(_fputc_simple.o) (write)

Allocating common symbols
Common symbol       size              file

sysDebugInstance    0x10              build/pic32mz_ef_sk/production/_ext/57023747/sys_debug.o
modbus_rx_buf       0x8               build/pic32mz_ef_sk/production/_ext/1360937237/modbus_buf.o
modbus_rx_buf_ptr   0x4               build/pic32mz_ef_sk/production/_ext/1360937237/modbus_buf.o
modbus_rx_flag      0x1               build/pic32mz_ef_sk/production/_ext/1360937237/modbus_buf.o
sysObj              0x14              build/pic32mz_ef_sk/production/_ext/942849350/initialization.o
gblErrLvl           0x4               build/pic32mz_ef_sk/production/_ext/57023747/sys_debug.o
modbus_tx_buf_ptr   0x4               build/pic32mz_ef_sk/production/_ext/1360937237/modbus_buf.o
coreTmr             0x8               build/pic32mz_ef_sk/production/_ext/1710852712/plib_coretimer.o
modbus_tx_buf       0x100             build/pic32mz_ef_sk/production/_ext/1360937237/modbus_buf.o
modbus_tx_flag      0x1               build/pic32mz_ef_sk/production/_ext/1360937237/modbus_buf.o
uart2Obj            0x30              build/pic32mz_ef_sk/production/_ext/309316908/plib_uart2.o
input_register      0x1f4             build/pic32mz_ef_sk/production/_ext/108032392/dialtek_modbus.o

Microchip PIC32 Memory-Usage Report

kseg0 Program-Memory Usage
section                    address  length [bytes]      (dec)  Description
-------                 ----------  -------------------------  -----------
.simple_tlb_refill_excp 0x9d000000           0x10          16   
.text._DHCPClientClose  0x9d000010           0xf0         240   
.cache_err_excpt        0x9d000100           0x10          16   
.text._EnetPoolFreeDcpt 0x9d000110           0x70         112   
.app_excpt              0x9d000180           0x10          16  General-Exception 
.text._DRV_ETHPHY_LinkS 0x9d000190           0x70         112   
.vectors                0x9d000200           0x70         112   
.text.vfprintf          0x9d000270         0x2018        8216   
.rodata                 0x9d002288         0x1744        5956  Read-only const 
.text.TCPIP_TCP_Task    0x9d0039cc         0x16a4        5796   
.text._vfprintf_cdnopsu 0x9d005070          0xc8c        3212   
.text.TCPIP_STACK_Task  0x9d005cfc          0x8f4        2292   
.text._TcpSend          0x9d0065f0          0x8c4        2244   
.text._Command_DNS_Serv 0x9d006eb4          0x8c4        2244   
.dinit                  0x9d007778          0x850        2128   
.text.TCPIP_DHCP_Task   0x9d007fc8          0x7f0        2032   
.text.SYS_CMD_Tasks     0x9d0087b8          0x6c0        1728   
.text.TCPIP_STACK_Initi 0x9d008e78          0x5e0        1504   
.text.TCPIP_Helper_Stri 0x9d009458          0x58c        1420   
.text.DRV_ETHMAC_PIC32M 0x9d0099e4          0x53c        1340   
.rodata                 0x9d009f20          0x510        1296  Read-only const 
.text.TCPIP_ARP_Task    0x9d00a430          0x484        1156   
.text                   0x9d00a8b4          0x8bc        2236  App's exec code 
.text._CommandArp       0x9d00b170          0x434        1076   
.text.TCP_APP_Tasks     0x9d00b5a4          0x3d4         980   
.text._DNS_Send_Query   0x9d00b978          0x3c8         968   
.text.TCPIP_DNS_ClientI 0x9d00bd40          0x3ac         940   
.text.DRV_MIIM_Tasks    0x9d00c0ec          0x39c         924   
.text._CommandDhcpOptio 0x9d00c488          0x38c         908   
.text._Command_NetInfo  0x9d00c814          0x38c         908   
.text.TCPIP_ARP_Initial 0x9d00cba0          0x374         884   
.text._TCP_Open         0x9d00cf14          0x370         880   
.text._DHCPReceive      0x9d00d284          0x364         868   
.text.TCPIP_COMMAND_Tas 0x9d00d5e8          0x350         848   
.text.TCPIP_STACK_Bring 0x9d00d938          0x33c         828   
.text.TCPIP_UDP_Flush   0x9d00dc74          0x334         820   
.text.TCPIP_UDP_Task    0x9d00dfa8          0x328         808   
.text._DHCPSend         0x9d00e2d0          0x31c         796   
.text.TCPIP_UDP_Options 0x9d00e5ec          0x2ec         748   
.text.TCPIP_IPV4_Packet 0x9d00e8d8          0x2e8         744   
.rodata                 0x9d00ebc0          0x2e8         744  Read-only const 
.text._DNS_ProcessPacke 0x9d00eea8          0x2dc         732   
.text.TCPIP_IPV4_Packet 0x9d00f184          0x2d8         728   
.text.CommandHelp       0x9d00f45c          0x2d8         728   
.text.TCPIP_TCP_ArrayPu 0x9d00f734          0x2cc         716   
.text.TCPIP_IPV4_Task   0x9d00fa00          0x2c0         704   
.text._Command_MacInfo  0x9d00fcc0          0x2bc         700   
.text.malloc            0x9d00ff7c          0x28c         652   
.text.DRV_ETHMAC_PIC32M 0x9d010208          0x264         612   
.text                   0x9d01046c          0x25c         604  App's exec code 
.text.CORE_TIMER_Handle 0x9d0106c8          0x250         592   
.text.UART2_FAULT_Handl 0x9d010918          0x250         592   
.text.UART2_RX_Handler  0x9d010b68          0x250         592   
.text.UART2_TX_Handler  0x9d010db8          0x250         592   
.text.ETHERNET_Handler  0x9d011008          0x250         592   
.text.TCPIP_DNS_EntryQu 0x9d011258          0x23c         572   
.text.TCPIP_DHCP_Initia 0x9d011494          0x238         568   
.text._UDPOpen          0x9d0116cc          0x238         568   
.text._DHCPOptionHostNa 0x9d011904          0x234         564   
.text.TCPIP_UDP_Bind    0x9d011b38          0x22c         556   
.text._TCPIP_HEAP_Free  0x9d011d64          0x228         552   
.text.DRV_ETHMAC_LibRxB 0x9d011f8c          0x220         544   
.text._DRV_ETHPHY_Setup 0x9d0121ac          0x208         520   
.text._Command_StackOnO 0x9d0123b4          0x208         520   
.rodata                 0x9d0125bc          0x204         516  Read-only const 
.text.TCPIP_DNS_ClientT 0x9d0127c0          0x1fc         508   
.text._Command_NetworkO 0x9d0129bc          0x1fc         508   
.text._LoadNetworkConfi 0x9d012bb8          0x1f4         500   
.text.SYS_TIME_PLIBCall 0x9d012dac          0x1e8         488   
.text._Command_AddressS 0x9d012f94          0x1e0         480   
.text._Command_IPAddres 0x9d013174          0x1e0         480   
.text.TCPIP_UDP_Options 0x9d013354          0x1e0         480   
.text._DNS_IsNameResolv 0x9d013534          0x1dc         476   
.text._Command_HeapInfo 0x9d013710          0x1dc         476   
.text._DNS_RESPONSE_Has 0x9d0138ec          0x1d8         472   
.text.DRV_ETHMAC_PIC32M 0x9d013ac4          0x1d4         468   
.text.strtoul           0x9d013c98          0x1d4         468   
.text.scale             0x9d013e6c          0x1d4         468   
.text.TCPIP_Helper_Stri 0x9d014040          0x1cc         460   
.text.TCPIP_ARP_EntryRe 0x9d01420c          0x1c8         456   
.text.TCPIP_UDP_Deiniti 0x9d0143d4          0x1c8         456   
.text._DRV_MIIM_ClientD 0x9d01459c          0x1c4         452   
.text.DRV_ETHMAC_LibRxA 0x9d014760          0x1c0         448   
.text._EthAckPacket     0x9d014920          0x1bc         444   
.text.TCPIP_TCP_ArrayGe 0x9d014adc          0x1bc         444   
.text._DRV_ETHPHY_Setup 0x9d014c98          0x1b4         436   
.text._DNS_Resolve      0x9d014e4c          0x1b4         436   
.text._DRV_MIIM_StartOp 0x9d015000          0x1ac         428   
.text.TCPIP_UDP_ArrayGe 0x9d0151ac          0x1ac         428   
.text._DRV_ETHMAC_AddRx 0x9d015358          0x1a8         424   
.text.DRV_MIIM_Setup    0x9d015500          0x1a4         420   
.text._DNS_GetAddresses 0x9d0156a4          0x1a4         420   
.text                   0x9d015848          0x1a0         416  App's exec code 
.text._EthAppendBusyLis 0x9d0159e8          0x19c         412   
.text.DRV_EXTPHY_MDIXCo 0x9d015b84          0x19c         412   
.text.strtol            0x9d015d20          0x19c         412   
.text._ARPProbeAddress  0x9d015ebc          0x198         408   
.text.DRV_ETHMAC_LibRxG 0x9d016054          0x194         404   
.text._sbrk_init        0x9d0161e8          0x194         404   
.text._Command_DefaultI 0x9d01637c          0x188         392   
.text._TCPIP_HEAP_Mallo 0x9d016504          0x188         392   
.text.DRV_ETHMAC_PIC32M 0x9d01668c          0x184         388   
.text._Tcpv4TxAckFnc    0x9d016810          0x180         384   
.text.DRV_ETHMAC_LibTxS 0x9d016990          0x178         376   
.text._DRV_PHY_SMITrans 0x9d016b08          0x178         376   
.text._DRV_ETHPHY_NegRe 0x9d016c80          0x178         376   
.text.DRV_EXTPHY_MIICon 0x9d016df8          0x178         376   
.text.TCPIP_TCP_Initial 0x9d016f70          0x178         376   
.text.SYS_TIME_HwTimerC 0x9d0170e8          0x174         372   
.text                   0x9d01725c          0x2d0         720  App's exec code 
.text._DHCPStartOperati 0x9d01752c          0x164         356   
.text._DHCPProcessRecei 0x9d017690          0x164         356   
.text.modbus_rhr_answer 0x9d0177f4          0x164         356   
.text.modbus_rir_answer 0x9d017958          0x164         356   
.text.TCPIP_ICMP_Task   0x9d017abc          0x160         352   
.text.TCPIP_IPV4_Select 0x9d017c1c          0x160         352   
.rodata                 0x9d017d80          0x160         352  Read-only const 
.text.DRV_ETHMAC_PIC32M 0x9d017ee0          0x158         344   
.text.TCPIP_HEAP_Create 0x9d018038          0x158         344   
.text.TCPIP_UDP_Initial 0x9d018190          0x158         344   
.rodata                 0x9d0182e8          0x158         344  Read-only const 
.text._ARPSendIfPkt     0x9d018440          0x154         340   
.text.TCPIP_Helper_IPv6 0x9d018594          0x150         336   
.text.modbus_rx_CRC_che 0x9d0186e4          0x150         336   
.text._TcpCloseSocket   0x9d018834          0x14c         332   
.text._TcpDisconnect    0x9d018980          0x14c         332   
.text.DRV_ETHPHY_Setup  0x9d018acc          0x148         328   
.text._DRV_ETHPHY_NegCo 0x9d018c14          0x148         328   
.text.DRV_MIIM_Operatio 0x9d018d5c          0x148         328   
.text.TCPIP_STACK_NetUp 0x9d018ea4          0x148         328   
.text.fputc             0x9d018fec          0x144         324   
.text.DisplayNodeMsg    0x9d019130          0x140         320   
.rodata                 0x9d019270          0x13c         316  Read-only const 
.text._DRV_ETHPHY_Setup 0x9d0193ac          0x13c         316   
.text._UDPv4TxAckFnc    0x9d0194e8          0x13c         316   
.text.SYS_TIME_Initiali 0x9d019624          0x13c         316   
.text.TCPIP_STACK_KillS 0x9d019760          0x138         312   
.text.TCPIP_TCP_Deiniti 0x9d019898          0x134         308   
.text._Command_GatewayA 0x9d0199cc          0x134         308   
.text.DRV_ETHMAC_PIC32M 0x9d019b00          0x130         304   
.text.DRV_ETHMAC_LibDes 0x9d019c30          0x130         304   
.text._ARPDeleteResourc 0x9d019d60          0x130         304   
.text._Command_MACAddre 0x9d019e90          0x130         304   
.text.SYS_TIME_TimerObj 0x9d019fc0          0x130         304   
.text.DRV_ETHMAC_LibIni 0x9d01a0f0          0x12c         300   
.text.APP_Tasks         0x9d01a21c          0x12c         300   
.text._flsbuf           0x9d01a348          0x12c         300   
.text.DRV_MIIM_Open     0x9d01a474          0x128         296   
.text.fround            0x9d01a59c          0x128         296   
.text._OAHashFindBkt    0x9d01a6c4          0x124         292   
.text.TCPIP_Helper_Stri 0x9d01a7e8          0x124         292   
.rodata                 0x9d01a90c          0x120         288  Read-only const 
.text.TCPIP_IPV4_MacPac 0x9d01aa2c          0x120         288   
.text.TCPIP_Helper_Pack 0x9d01ab4c          0x120         288   
.text                   0x9d01ac6c          0x120         288  App's exec code 
.text.DRV_ETHMAC_PIC32M 0x9d01ad8c          0x11c         284   
.text._GetMaxSegSizeOpt 0x9d01aea8          0x11c         284   
.text.TCPIP_ARP_IsResol 0x9d01afc4          0x11c         284   
.text.TCPIP_IPV4_ArpHan 0x9d01b0e0          0x11c         284   
.text._MACDeinit        0x9d01b1fc          0x118         280   
.text._DRV_ETHPHY_Setup 0x9d01b314          0x118         280   
.text._DHCPSetLeaseTime 0x9d01b42c          0x118         280   
.text._Command_PrimaryD 0x9d01b544          0x114         276   
.text.TCPIP_Helper_Pack 0x9d01b658          0x114         276   
.text.SYS_TIME_AddToLis 0x9d01b76c          0x114         276   
.text.TCPIP_ARP_EntryQu 0x9d01b880          0x110         272   
.text._MacRxPacketAck   0x9d01b990          0x10c         268   
.text.TCPIP_DHCP_InfoGe 0x9d01ba9c          0x10c         268   
.text.SYS_CMD_ADDGRP    0x9d01bba8          0x10c         268   
.text._DRV_ETHPHY_Reset 0x9d01bcb4          0x108         264   
.text._TcpSocketSetIdle 0x9d01bdbc          0x108         264   
.text._DHCPEnable       0x9d01bec4          0x108         264   
.text._UDPv4AllocateSkt 0x9d01bfcc          0x108         264   
.text.Console_UART_Read 0x9d01c0d4          0x108         264   
.text.Console_UART_Writ 0x9d01c1dc          0x108         264   
.rodata                 0x9d01c2e8          0x20c         524  Read-only const 
.text.DRV_ETHMAC_Tasks_ 0x9d01c4f4          0x100         256   
.text.DRV_MIIM_Initiali 0x9d01c5f4          0x100         256   
.text._DNS_ValidateIf   0x9d01c6f4          0x100         256   
.text.TCPIP_TCP_ServerO 0x9d01c7f4           0xfc         252   
.text.SYS_Initialize    0x9d01c8f0           0xfc         252   
.text.DRV_ETHMAC_LibMAC 0x9d01c9ec           0xf8         248   
.text._UDPsetPacketInfo 0x9d01cae4           0xf8         248   
.text.TCPIP_UDP_Disconn 0x9d01cbdc           0xf8         248   
.text.Console_UART_Reso 0x9d01ccd4           0xf8         248   
.text.SYS_DEBUG_Print   0x9d01cdcc           0xf8         248   
.rodata                 0x9d01cec4           0xf8         248  Read-only const 
.text._TCPIP_StackSyncF 0x9d01cfbc           0xf4         244   
.text.DRV_ETHMAC_PIC32M 0x9d01d0b0           0xec         236   
.text._DRV_ETHPHY_Setup 0x9d01d19c           0xec         236   
.text._DRV_ETHPHY_Reset 0x9d01d288           0xec         236   
.text.TCPIP_IPV4_DeInit 0x9d01d374           0xec         236   
.text.UART2_RX_Interrup 0x9d01d460           0xec         236   
.text.SYS_CMDIO_ADD     0x9d01d54c           0xec         236   
.text._DRV_ETHPHY_NegCo 0x9d01d638           0xe8         232   
.text._DHCPPacketFilter 0x9d01d720           0xe8         232   
.text.modbus_wsr_answer 0x9d01d808           0xe8         232   
.text.TCPIP_OAHASH_Entr 0x9d01d8f0           0xe0         224   
.text.TCPIP_STACK_Bring 0x9d01d9d0           0xe0         224   
.text._TcpAbort         0x9d01dab0           0xdc         220   
.text.TCPIP_DHCP_Connec 0x9d01db8c           0xdc         220   
.text._Command_BIOSName 0x9d01dc68           0xdc         220   
.text.modbus_get_poll   0x9d01dd44           0xdc         220   
.text.general_exception 0x9d01de20           0xdc         220   
.text._ARPUpdateEntry   0x9d01defc           0xd8         216   
.text.TCPIP_ARP_CacheEn 0x9d01dfd4           0xd8         216   
.text._TCPIP_PKT_Packet 0x9d01e0ac           0xd8         216   
.text.UART2_TX_Interrup 0x9d01e184           0xd8         216   
.text.Console_UART_Enab 0x9d01e25c           0xd8         216   
.text._cache_err_except 0x9d01e334           0xd8         216   
.text.simple_tlb_refill 0x9d01e40c           0xd8         216   
.text._MacTxPendingPack 0x9d01e4e4           0xd4         212   
.text._DRV_ETHPHY_NegRe 0x9d01e5b8           0xd4         212   
.text.CLK_Initialize    0x9d01e68c           0xd4         212   
.text.Console_UART_PLIB 0x9d01e760           0xd4         212   
.text._DRV_ETHMAC_LinkS 0x9d01e834           0xd0         208   
.text.DRV_ETHPHY_Open   0x9d01e904           0xd0         208   
.rodata                 0x9d01e9d8           0xd0         208  Read-only const 
.text.DRV_ETHMAC_LibTxA 0x9d01eaa8           0xcc         204   
.text.TCPIP_ARP_EntryRe 0x9d01eb74           0xcc         204   
.text._DRV_ETHMAC_LinkS 0x9d01ec40           0xc8         200   
.text.TCPIP_Commands_In 0x9d01ed08           0xc8         200   
.text.TCPIP_OAHASH_Entr 0x9d01edd0           0xc8         200   
.text._TCPIPStackModule 0x9d01ee98           0xc8         200   
.text.Console_UART_Init 0x9d01ef60           0xc8         200   
.text._sbrk             0x9d01f028           0xc8         200   
.text._DHCPOptionWriteS 0x9d01f0f0           0xc4         196   
.text.TCPIP_UDP_SocketI 0x9d01f1b4           0xc4         196   
.text._DRV_MIIM_Release 0x9d01f278           0xc0         192   
.text._DHCPOptionProces 0x9d01f338           0xc0         192   
.text.TCPIP_IPV4_MacPac 0x9d01f3f8           0xc0         192   
.text.TCPIP_STACK_NetAd 0x9d01f4b8           0xc0         192   
.text.IsCommandReady    0x9d01f578           0xc0         192   
.text.SYS_CMD_PRINT     0x9d01f638           0xc0         192   
.text.TCPIP_DNS_Disable 0x9d01f6f8           0xbc         188   
.text._DHCPOptionWriteI 0x9d01f7b4           0xbc         188   
.text.TCPIP_UDP_ArrayPu 0x9d01f870           0xbc         188   
.text.SendCommandPrint  0x9d01f92c           0xbc         188   
.tlb.__pic32_tlb_init_e 0x9d01f9e8           0xbc         188   
.text.TCPIP_DNS_OAHASH_ 0x9d01faa4           0xb8         184   
.text.TCPIP_DNS_GetIPAd 0x9d01fb5c           0xb8         184   
.text.TCPIP_PKT_DataSeg 0x9d01fc14           0xb8         184   
.text.DRV_ETHMAC_PIC32M 0x9d01fccc           0xb4         180   
.text._EthTxSchedBuffer 0x9d01fd80           0xb4         180   
.text._DNS_DeleteHash   0x9d01fe34           0xb4         180   
.text.TCPIP_DHCP_Disabl 0x9d01fee8           0xb4         180   
.text._ARPNotifyClients 0x9d01ff9c           0xb4         180   
.text._TCPIP_HEAP_MaxSi 0x9d020050           0xb4         180   
.text.TCPIP_UDP_BcastIP 0x9d020104           0xb4         180   
.text.GPIO_Initialize   0x9d0201b8           0xb4         180   
.text.SYS_TIME_TimerSta 0x9d02026c           0xb4         180   
.text.DRV_MIIM_Operatio 0x9d020320           0xb0         176   
.text._DNS_AddSelection 0x9d0203d0           0xb0         176   
.text._TcpClientSocketC 0x9d020480           0xb0         176   
.text._TCPIPStackInsert 0x9d020530           0xb0         176   
.text._DNS_Enable       0x9d0205e0           0xac         172   
.text.DRV_ETHMAC_PIC32M 0x9d02068c           0xa8         168   
.text._DRV_ETHPHY_NegCo 0x9d020734           0xa8         168   
.text.DRV_ETHPHY_Vendor 0x9d0207dc           0xa8         168   
.text.DRV_ETHPHY_Vendor 0x9d020884           0xa8         168   
.text.TCPIP_PKT_PacketM 0x9d02092c           0xa8         168   
.text                   0x9d0209d4           0xa8         168  App's exec code 
.text.atoi              0x9d020a7c           0xa8         168   
.text.DRV_ETHPHY_Initia 0x9d020b24           0xa4         164   
.text._DRV_ETHPHY_Setup 0x9d020bc8           0xa4         164   
.text.TCPIP_IPV4_Initia 0x9d020c6c           0xa4         164   
.text.Console_UART_PLIB 0x9d020d10           0xa4         164   
.text._DRV_ETHPHY_LinkS 0x9d020db4           0xa0         160   
.text.TCPIP_DNS_RemoveA 0x9d020e54           0xa0         160   
.text._TCPSendWinIncUpd 0x9d020ef4           0xa0         160   
.rodata                 0x9d020f94           0xa0         160  Read-only const 
.text.TCPIP_Helper_Sing 0x9d021034           0xa0         160   
.text._TCPIP_PKT_Packet 0x9d0210d4           0xa0         160   
.text.TCPIP_UDP_PutIsRe 0x9d021174           0xa0         160   
.text._DRV_ETHMAC_LinkS 0x9d021214           0x9c         156   
.text.Helper_SingleList 0x9d0212b0           0x9c         156   
.text.TCPIP_ARP_Probe   0x9d02134c           0x9c         156   
.text.TCPIP_STACK_Strin 0x9d0213e8           0x9c         156   
.text.write             0x9d021484           0x9c         156   
.text.DRV_ETHMAC_LibDes 0x9d021520           0x98         152   
.text._DRV_MIIM_GetClie 0x9d0215b8           0x98         152   
.text.TCPIP_Helper_IPAd 0x9d021650           0x98         152   
.text.TCPIP_Helper_Form 0x9d0216e8           0x98         152   
.text._UDPSetNewRxPacke 0x9d021780           0x98         152   
.text.SYS_TIME_Callback 0x9d021818           0x98         152   
.text                   0x9d0218b0           0x98         152  App's exec code 
.text._DRV_ETHMAC_LinkS 0x9d021948           0x94         148   
.text._EthTxSchedList   0x9d0219dc           0x94         148   
.text._DRV_MIIM_GetObje 0x9d021a70           0x94         148   
.text.DRV_MIIM_Register 0x9d021b04           0x94         148   
.text._DNS_CleanCacheEn 0x9d021b98           0x94         148   
.text._TcpCleanup       0x9d021c2c           0x94         148   
.text.TCPIP_ARP_Deiniti 0x9d021cc0           0x94         148   
.text.TCPIP_Helper_Prot 0x9d021d54           0x94         148   
.text.TCPIP_UDP_Destina 0x9d021de8           0x94         148   
.text.SYS_TIME_RemoveFr 0x9d021e7c           0x94         148   
.text.DRV_ETHMAC_LibClo 0x9d021f10           0x90         144   
.text.TCPIP_DNS_ClientD 0x9d021fa0           0x90         144   
.text._DHCPOptionClient 0x9d022030           0x90         144   
.text._DHCPSetTimeout   0x9d0220c0           0x90         144   
.text.TCPIP_ARP_EntryGe 0x9d022150           0x90         144   
.text.TCPIP_Helper_Prot 0x9d0221e0           0x90         144   
.text.TCPIP_Helper_Prot 0x9d022270           0x90         144   
.text._TCPIPStackIpAddF 0x9d022300           0x90         144   
.text._TCPIPStackModule 0x9d022390           0x90         144   
.text.SYS_CMD_Initializ 0x9d022420           0x90         144   
.text._frexpx           0x9d0224b0           0x90         144   
.text._DNSDiscardName   0x9d022540           0x8c         140   
.text._DHCPCleanup      0x9d0225cc           0x8c         140   
.text._DHCPNotifyClient 0x9d022658           0x8c         140   
.text.TCPIP_STACK_NetAl 0x9d0226e4           0x8c         140   
.text.TCPIP_STACK_NetBi 0x9d022770           0x8c         140   
.text.TCPIP_UDP_TxOffse 0x9d0227fc           0x8c         140   
.text.SYS_CONSOLE_Statu 0x9d022888           0x8c         140   
.text.rand              0x9d022914           0x8c         140   
.text.hexatob           0x9d0229a0           0x88         136   
.rodata                 0x9d022a28           0x88         136  Read-only const 
.text.TCPIP_Helper_Prot 0x9d022ab0           0x88         136   
.text._TCPIP_SelectDefa 0x9d022b38           0x88         136   
.text.TCPIP_UDP_Close   0x9d022bc0           0x88         136   
.text.UART2_ErrorGet    0x9d022c48           0x88         136   
.text.SYS_TIME_TimerAdd 0x9d022cd0           0x88         136   
.text.DRV_ETHPHY_Vendor 0x9d022d58           0x84         132   
.text._DRV_MIIM_GetOpDc 0x9d022ddc           0x84         132   
.text.TCPIP_STACK_NetHa 0x9d022e60           0x84         132   
.text.TCPIP_UDP_RxOffse 0x9d022ee4           0x84         132   
.text.TCPIP_UDP_SourceI 0x9d022f68           0x84         132   
.text.UART2_Initialize  0x9d022fec           0x84         132   
.text                   0x9d023070           0x84         132  App's exec code 
.text._vsnprintf_cdnops 0x9d0230f4           0x84         132   
.text.vsnprintf         0x9d023178           0x84         132   
.text._DRV_ETHPHY_Setup 0x9d0231fc           0x80         128   
.text.TCPIP_DNS_OAHASH_ 0x9d02327c           0x80         128   
.text.TCPIP_ICMP_Initia 0x9d0232fc           0x80         128   
.text.TCPIP_Helper_MACA 0x9d02337c           0x80         128   
.text.UART2_Read        0x9d0233fc           0x80         128   
.text.CommandReadCback  0x9d02347c           0x80         128   
.text.SYS_TIME_TimerDes 0x9d0234fc           0x80         128   
.text._DRV_ETHPHY_Setup 0x9d02357c           0x7c         124   
.text._TCP_EphemeralPor 0x9d0235f8           0x7c         124   
.text.TCPIP_ARP_Handler 0x9d023674           0x7c         124   
.text._TCPIP_MacEventCB 0x9d0236f0           0x7c         124   
.text._UDPAllocateEphem 0x9d02376c           0x7c         124   
.text.UART2_Write       0x9d0237e8           0x7c         124   
.text._DRV_ETHPHY_Setup 0x9d023864           0x78         120   
.text._DRV_ETHPHY_NegRe 0x9d0238dc           0x78         120   
.text.TCPIP_TCP_Close   0x9d023954           0x78         120   
.text._DHCPOptionProces 0x9d0239cc           0x78         120   
.text.TCPIP_DHCP_IsEnab 0x9d023a44           0x78         120   
.text.TCPIP_Helper_Prot 0x9d023abc           0x78         120   
.text.TCPIP_PKT_Initial 0x9d023b34           0x78         120   
.text.SYS_TIME_Counter6 0x9d023bac           0x78         120   
.text.DRV_ETHMAC_PIC32M 0x9d023c24           0x74         116   
.text._DRV_ETHPHY_NegCo 0x9d023c98           0x74         116   
.text._TcpSwapHeader    0x9d023d0c           0x74         116   
.text._DHCPOptionProces 0x9d023d80           0x74         116   
.text.TCPIP_Helper_Stri 0x9d023df4           0x74         116   
.text.TCPIP_STACK_Addre 0x9d023e68           0x74         116   
.text._TCPIPStackAnyNet 0x9d023edc           0x74         116   
.text._TCPIPStackSignal 0x9d023f50           0x74         116   
.text._TCPIP_PKT_Packet 0x9d023fc4           0x74         116   
.text._keyHomeProcess   0x9d024038           0x74         116   
.text.SYS_CONSOLE_Initi 0x9d0240ac           0x74         116   
.text.SYS_TIME_UpdateTi 0x9d024120           0x74         116   
.text.strncpy           0x9d024194           0x74         116   
.text.DRV_MIIM_Deregist 0x9d024208           0x70         112   
.text._TcpSocketSetSour 0x9d024278           0x70         112   
.text._ARPSetEntry      0x9d0242e8           0x70         112   
.text._ARPRemoveEntry   0x9d024358           0x70         112   
.rodata                 0x9d0243c8           0x70         112  Read-only const 
.text._TCPIP_HEAP_Delet 0x9d024438           0x70         112   
.text._UDPFreeTxResourc 0x9d0244a8           0x70         112   
.text._UDPClose         0x9d024518           0x70         112   
.text._keyEndProcess    0x9d024588           0x70         112   
.text.Console_UART_Flus 0x9d0245f8           0x70         112   
.text.strncmp           0x9d024668           0x70         112   
.text._MacRxFreeCallbac 0x9d0246d8           0x6c         108   
.text._DNSGetData       0x9d024744           0x6c         108   
.text._TcpSocketKill    0x9d0247b0           0x6c         108   
.text.TCPIP_STACK_IsBca 0x9d02481c           0x6c         108   
.text._TCPIPStackModule 0x9d024888           0x6c         108   
.text._TCPIP_PKT_Socket 0x9d0248f4           0x6c         108   
.text.TCPIP_UDP_SocketN 0x9d024960           0x6c         108   
.text.SYS_TIME_MSToCoun 0x9d0249cc           0x6c         108   
.text.DRV_ETHMAC_PIC32M 0x9d024a38           0x68         104   
.text.TCPIP_DNS_RemoveE 0x9d024aa0           0x68         104   
.text._DHCPSetRunFail   0x9d024b08           0x68         104   
.text.TCPIP_ARP_HashEnt 0x9d024b70           0x68         104   
.text.TCPIP_UDP_OpenCli 0x9d024bd8           0x68         104   
.text.SYS_TIME_GetTimer 0x9d024c40           0x68         104   
.text._sprintf_cdnopsux 0x9d024ca8           0x68         104   
.text._MacTxFreeCallbac 0x9d024d10           0x64         100   
.text.DRV_MIIM_Deinitia 0x9d024d74           0x64         100   
.text.TCPIP_DNS_ClientI 0x9d024dd8           0x64         100   
.text.TCPIP_DHCP_Deinit 0x9d024e3c           0x64         100   
.text.TCPIP_IPV4_Cleanu 0x9d024ea0           0x64         100   
.text.TCPIP_STACK_NetDo 0x9d024f04           0x64         100   
.text.TCPIP_UDP_SignalH 0x9d024f68           0x64         100   
.text.CORETIMER_Start   0x9d024fcc           0x64         100   
.text.modbus_CRC16      0x9d025030           0x64         100   
.text._DNSClientCleanup 0x9d025094           0x60          96   
.text._DHCPOptionProces 0x9d0250f4           0x60          96   
.text.IPv4RegisterFilte 0x9d025154           0x60          96   
.text.TCPIP_OAHASH_Entr 0x9d0251b4           0x60          96   
.rodata                 0x9d025214           0x60          96  Read-only const 
.text.TCPIP_UDP_GetIsRe 0x9d025274           0x60          96   
.text.SYS_CONSOLE_Read  0x9d0252d4           0x60          96   
.text.Console_UART_PopQ 0x9d025334           0x60          96   
.text._MacTxDiscardQueu 0x9d025394           0x5c          92   
.text.DRV_ETHPHY_LinkSt 0x9d0253f0           0x5c          92   
.text.DRV_ETHPHY_Negoti 0x9d02544c           0x5c          92   
.text._DRV_ETHPHY_Clien 0x9d0254a8           0x5c          92   
.text._DRV_ETHPHY_Clien 0x9d025504           0x5c          92   
.text._DRV_ETHPHY_Clien 0x9d025560           0x5c          92   
.text._DRV_ETHPHY_Clien 0x9d0255bc           0x5c          92   
.text._DRV_ETHPHY_Clien 0x9d025618           0x5c          92   
.text._DRV_ETHPHY_Setup 0x9d025674           0x5c          92   
.text._DRV_ETHPHY_Clien 0x9d0256d0           0x5c          92   
.text._DNS_NetIsValid   0x9d02572c           0x5c          92   
.text._TCPSocketTxFreeS 0x9d025788           0x5c          92   
.text._TCPIP_HEAP_Buffe 0x9d0257e4           0x5c          92   
.text.fnv_32_hash       0x9d025840           0x5c          92   
.text.TCPIP_Helper_Prot 0x9d02589c           0x5c          92   
.text.TCPIP_STACK_MACId 0x9d0258f8           0x5c          92   
.text.CommandQuit       0x9d025954           0x5c          92   
.text.modbus_init       0x9d0259b0           0x5c          92   
.text._DRV_ETHMAC_LinkS 0x9d025a0c           0x58          88   
.text._DRV_ETHPHY_Clien 0x9d025a64           0x58          88   
.text._DHCPOptionProces 0x9d025abc           0x58          88   
.text._DHCPOptionProces 0x9d025b14           0x58          88   
.text._DHCPOptionProces 0x9d025b6c           0x58          88   
.text.TCPIP_IPV4_CheckP 0x9d025bc4           0x58          88   
.text.TCPIP_STACK_Initi 0x9d025c1c           0x58          88   
.text.TCPIP_STACK_NetBy 0x9d025c74           0x58          88   
.text.TCPIP_Notificatio 0x9d025ccc           0x58          88   
.text.SYS_CONSOLE_Write 0x9d025d24           0x58          88   
.text.SYS_INT_SourceDis 0x9d025d7c           0x58          88   
.text.DRV_ETHMAC_PIC32M 0x9d025dd4           0x54          84   
.text.DRV_ETHMAC_PIC32M 0x9d025e28           0x54          84   
.text._DRV_ETHMAC_LinkS 0x9d025e7c           0x54          84   
.text._EnetDescriptorsC 0x9d025ed0           0x54          84   
.rodata                 0x9d025f24           0x54          84  Read-only const 
.text._TCP_PortIsAvaila 0x9d025f78           0x54          84   
.text.SYS_TIME_Resource 0x9d025fcc           0x54          84   
.text.modbus_tx_buf_add 0x9d026020           0x54          84   
.text.main_entry        0x9d026074           0x54          84   
.text._XtlEventsTcp2Eth 0x9d0260c8           0x50          80   
.text.DRV_ETHPHY_HWConf 0x9d026118           0x50          80   
.text._DRV_ETHPHY_NegRe 0x9d026168           0x50          80   
.text._DRV_ETHPHY_NegRe 0x9d0261b8           0x50          80   
.text.DRV_MIIM_Close    0x9d026208           0x50          80   
.text.TCPIP_DNS_OAHASH_ 0x9d026258           0x50          80   
.text._TCPSetSourceAddr 0x9d0262a8           0x50          80   
.text._TCPSetHalfFlushF 0x9d0262f8           0x50          80   
.text._TcpFlush         0x9d026348           0x50          80   
.rodata                 0x9d026398           0x50          80  Read-only const 
.text._DHCPOptionWriteP 0x9d0263e8           0x50          80   
.text._DHCPOptionProces 0x9d026438           0x50          80   
.text.TCPIP_Helper_Prot 0x9d026488           0x50          80   
.text.TCPIP_Helper_Prot 0x9d0264d8           0x50          80   
.text.TCPIP_STACK_NetMA 0x9d026528           0x50          80   
.text.TCPIP_STACK_NetMA 0x9d026578           0x50          80   
.text.TCPIP_Notificatio 0x9d0265c8           0x50          80   
.text._keyRightProcess  0x9d026618           0x50          80   
.text.sbrk              0x9d026668           0x50          80   
.text._MACTxPacketAckCa 0x9d0266b8           0x4c          76   
.text.DRV_ETH_MIIMReadS 0x9d026704           0x4c          76   
.text.DRV_ETHPHY_Close  0x9d026750           0x4c          76   
.text.DRV_ETHPHY_Reset  0x9d02679c           0x4c          76   
.text.DRV_ETHPHY_Negoti 0x9d0267e8           0x4c          76   
.text._DRV_PHY_NegCompl 0x9d026834           0x4c          76   
.text._DRV_ETHPHY_Setup 0x9d026880           0x4c          76   
.text.TCPIP_TCP_Flush   0x9d0268cc           0x4c          76   
.text._ARPRemoveCacheEn 0x9d026918           0x4c          76   
.text._TCPIP_HEAP_Callo 0x9d026964           0x4c          76   
.text.TCPIP_STACK_NetAd 0x9d0269b0           0x4c          76   
.text.TCPIP_STACK_DNSSe 0x9d0269fc           0x4c          76   
.text._TCPIPStackSignal 0x9d026a48           0x4c          76   
.text.TCPIP_Notificatio 0x9d026a94           0x4c          76   
.text.TCPIP_UDP_Discard 0x9d026ae0           0x4c          76   
.text.UART2_FAULT_Inter 0x9d026b2c           0x4c          76   
.text.Console_UART_Stat 0x9d026b78           0x4c          76   
.text.calloc            0x9d026bc4           0x4c          76   
.text.DRV_ETH_MIIMWrite 0x9d026c10           0x48          72   
.text.DRV_ETHPHY_Reinit 0x9d026c58           0x48          72   
.text.DRV_ETHPHY_Restar 0x9d026ca0           0x48          72   
.text._DRV_ETHPHY_Clien 0x9d026ce8           0x48          72   
.text._DRV_ETHPHY_NegRe 0x9d026d30           0x48          72   
.text._DHCPOptionWriteM 0x9d026d78           0x48          72   
.text.TCPIP_ARP_Handler 0x9d026dc0           0x48          72   
.text.TCPIP_HEAP_Create 0x9d026e08           0x48          72   
.text.TCPIP_Helper_Sing 0x9d026e50           0x48          72   
.text._TCPIP_STACK_Tick 0x9d026e98           0x48          72   
.text.TCPIP_STACK_IPAdd 0x9d026ee0           0x48          72   
.text.TCPIP_STACK_Addre 0x9d026f28           0x48          72   
.text._UDPIsAvailablePo 0x9d026f70           0x48          72   
.text.TCPIP_UDP_Destina 0x9d026fb8           0x48          72   
.text.GetCommandCharact 0x9d027000           0x48          72   
.text._keyLeftProcess   0x9d027048           0x48          72   
.text.SYS_CONSOLE_Regis 0x9d027090           0x48          72   
.text.TCPIP_STACK_Init  0x9d0270d8           0x48          72   
.text._general_exceptio 0x9d027120           0x48          72   
.text._bootstrap_except 0x9d027168           0x48          72   
.text._cache_err_except 0x9d0271b0           0x48          72   
.text._simple_tlb_refil 0x9d0271f8           0x48          72   
.text.DRV_ETHPHY_Tasks  0x9d027240           0x44          68   
.text.TCPIP_TCP_IsConne 0x9d027284           0x44          68   
.text._SwapARPPacket    0x9d0272c8           0x44          68   
.text.Ipv4DeRegisterFil 0x9d02730c           0x44          68   
.text.TCPIP_STACK_NetMa 0x9d027350           0x44          68   
.text.TCPIP_STACK_NetIs 0x9d027394           0x44          68   
.text.TCPIP_STACK_NetIs 0x9d0273d8           0x44          68   
.text.TCPIP_STACK_NetAd 0x9d02741c           0x44          68   
.rodata                 0x9d027460           0x44          68  Read-only const 
.text.TCPIP_UDP_TxPoint 0x9d0274a4           0x44          68   
.text.EVIC_Initialize   0x9d0274e8           0x44          68   
.text                   0x9d02752c           0x44          68  App's exec code 
.text.DRV_ETH_MACSetAdd 0x9d027570           0x40          64   
.text.DRV_ETH_MACGetAdd 0x9d0275b0           0x40          64   
.text._DRV_ETHPHY_NegCo 0x9d0275f0           0x40          64   
.text.TCPIP_ICMP_Deinit 0x9d027630           0x40          64   
.text.TCPIP_TCP_PutIsRe 0x9d027670           0x40          64   
.text.TCPIP_Commands_De 0x9d0276b0           0x40          64   
.text._TCPIPSignalEntry 0x9d0276f0           0x40          64   
.text._UDPFreeRxQueue   0x9d027730           0x40          64   
.text.CORE_TIMER_Interr 0x9d027770           0x40          64   
.text.SendCommandCharac 0x9d0277b0           0x40          64   
.text.SYS_TIME_Resource 0x9d0277f0           0x40          64   
.text.SYS_Tasks         0x9d027830           0x40          64   
.text._printf_cdnopsuxX 0x9d027870           0x40          64   
.text                   0x9d0278b0           0x40          64  App's exec code 
.text.DRV_ETHMAC_Single 0x9d0278f0           0x3c          60   
.text.DRV_MIIM_Status   0x9d02792c           0x3c          60   
.text.Helper_SingleList 0x9d027968           0x3c          60   
.text.TCPIP_DNS_IsResol 0x9d0279a4           0x3c          60   
.text._TCPIsGetReady    0x9d0279e0           0x3c          60   
.text._ARPTxAckFnc      0x9d027a1c           0x3c          60   
.text.TCPIP_ARP_HashKey 0x9d027a58           0x3c          60   
.text.TCPIP_OAHASH_Init 0x9d027a94           0x3c          60   
.text.TCPIP_Helper_Sing 0x9d027ad0           0x3c          60   
.text.TCPIP_STACK_Index 0x9d027b0c           0x3c          60   
.text._TCPIPStackSetCon 0x9d027b48           0x3c          60   
.text._TCPIPStackModule 0x9d027b84           0x3c          60   
.text.TCPIP_STACK_Deini 0x9d027bc0           0x3c          60   
.text._TCPIPStackPacket 0x9d027bfc           0x3c          60   
.text._UDPTxPktValid    0x9d027c38           0x3c          60   
.text.SendCommandMessag 0x9d027c74           0x3c          60   
.text._keyDownProcess   0x9d027cb0           0x3c          60   
.text.DRV_ETHMAC_LibDes 0x9d027cec           0x38          56   
.text.DRV_ETHMAC_LibRxP 0x9d027d24           0x38          56   
.text.DRV_ETHMAC_LibRxS 0x9d027d5c           0x38          56   
.text.DRV_ETHMAC_LibTxP 0x9d027d94           0x38          56   
.text._DRV_PHY_SMIReadS 0x9d027dcc           0x38          56   
.text._DRV_PHY_SMIWrite 0x9d027e04           0x38          56   
.text._DRV_ETHPHY_Reset 0x9d027e3c           0x38          56   
.text.TCPIP_DHCP_Enable 0x9d027e74           0x38          56   
.text.TCPIP_DHCP_Renew  0x9d027eac           0x38          56   
.text.TCPIP_DHCP_Reques 0x9d027ee4           0x38          56   
.text._ARPAllocateTxPac 0x9d027f1c           0x38          56   
.text.TCPIP_PKT_Payload 0x9d027f54           0x38          56   
.text._keyUpProcess     0x9d027f8c           0x38          56   
.text.SYS_TIME_GetElaps 0x9d027fc4           0x38          56   
.text.DRV_ETHPHY_PhyAdd 0x9d027ffc           0x34          52   
.text.DRV_ETHPHY_Client 0x9d028030           0x34          52   
.text._DRV_ETHPHY_NegRe 0x9d028064           0x34          52   
.text._DRV_ETHPHY_NegRe 0x9d028098           0x34          52   
.text._DRV_ETHPHY_NegCo 0x9d0280cc           0x34          52   
.text._DRV_ETHPHY_LinkS 0x9d028100           0x34          52   
.text._TcpSocketChk     0x9d028134           0x34          52   
.text.TCPIP_TCP_GetIsRe 0x9d028168           0x34          52   
.text.TCPIP_STACK_NetAd 0x9d02819c           0x34          52   
.text.TCPIP_STACK_DNSSe 0x9d0281d0           0x34          52   
.text.TCPIP_STACK_Addre 0x9d028204           0x34          52   
.text.TCPIP_STACK_NetAd 0x9d028238           0x34          52   
.text._TCPIPStackHandle 0x9d02826c           0x34          52   
.text.TCPIP_STACK_NetIs 0x9d0282a0           0x34          52   
.text._UDPSocketDcpt    0x9d0282d4           0x34          52   
.text._UDPUpdatePacketL 0x9d028308           0x34          52   
.text.CORETIMER_Stop    0x9d02833c           0x34          52   
.text.SYS_TIME_Counter6 0x9d028370           0x34          52   
.text._MacCallocCallbac 0x9d0283a4           0x30          48   
.text.DRV_ETHMAC_PIC32M 0x9d0283d4           0x30          48   
.text.DRV_ETHMAC_Single 0x9d028404           0x30          48   
.text.DRV_ETH_RxSetBuff 0x9d028434           0x30          48   
.text.DRV_ETHPHY_Vendor 0x9d028464           0x30          48   
.text.Helper_SingleList 0x9d028494           0x30          48   
.text.DRV_MIIM_Read     0x9d0284c4           0x30          48   
.text.DRV_MIIM_Write    0x9d0284f4           0x30          48   
.text.DRV_MIIM_Scan     0x9d028524           0x30          48   
.text._DNSSocketRxSigna 0x9d028554           0x30          48   
.text.TCPIP_ICMP_Cleanu 0x9d028584           0x30          48   
.text._DHCPSocketRxSign 0x9d0285b4           0x30          48   
.text.TCPIP_DHCP_IsActi 0x9d0285e4           0x30          48   
.text._TCPIP_HEAP_FreeS 0x9d028614           0x30          48   
.text.TCPIP_OAHASH_Entr 0x9d028644           0x30          48   
.text.TCPIP_Helper_Sing 0x9d028674           0x30          48   
.text.TCPIP_STACK_NetAd 0x9d0286a4           0x30          48   
.text.TCPIP_STACK_NetAd 0x9d0286d4           0x30          48   
.text.TCPIP_STACK_NetMa 0x9d028704           0x30          48   
.text.TCPIP_STACK_Netwo 0x9d028734           0x30          48   
.text._TCPIPStackModule 0x9d028764           0x30          48   
.text.Console_UART_Regi 0x9d028794           0x30          48   
.text.SYS_DEBUG_Initial 0x9d0287c4           0x30          48   
.text.SYS_TMR_CallbackP 0x9d0287f4           0x30          48   
.text.free              0x9d028824           0x30          48   
.text.TCPIP_IPV4_MaxDat 0x9d028854           0x2c          44   
.text.TCPIP_OAHASH_Entr 0x9d028880           0x2c          44   
.text.TCPIP_STACK_NetDe 0x9d0288ac           0x2c          44   
.text.TCPIP_STACK_NetNa 0x9d0288d8           0x2c          44   
.text.TCPIP_STACK_NetAd 0x9d028904           0x2c          44   
.text.TCPIP_Notificatio 0x9d028930           0x2c          44   
.text.CORETIMER_Initial 0x9d02895c           0x2c          44   
.text.CommandReset      0x9d028988           0x2c          44   
.text._stub_sbd_memlayo 0x9d0289b4           0x2c          44   
.text.DRV_MIIM_ClientSt 0x9d0289e0           0x28          40   
.text._TCPIP_HEAP_Size  0x9d028a08           0x28          40   
.text._TCPIP_HEAP_HighW 0x9d028a30           0x28          40   
.text._TCPIP_HEAP_LastE 0x9d028a58           0x28          40   
.text.TCPIP_STACK_NetAd 0x9d028a80           0x28          40   
.text.TCPIP_STACK_NetAd 0x9d028aa8           0x28          40   
.text.TCPIP_STACK_NetMA 0x9d028ad0           0x28          40   
.text._TCPIPStackSignal 0x9d028af8           0x28          40   
.text.EVIC_SourceEnable 0x9d028b20           0x28          40   
.text.EVIC_SourceDisabl 0x9d028b48           0x28          40   
.text.EVIC_SourceStatus 0x9d028b70           0x28          40   
.text.SYS_INT_SourceRes 0x9d028b98           0x28          40   
.text.tcp_app_use_alter 0x9d028bc0           0x28          40   
.text._snprintf_cdnopsu 0x9d028be8           0x28          40   
.text.DRV_ETHMAC_PIC32M 0x9d028c10           0x24          36   
.text._TCP_TxPktValid   0x9d028c34           0x24          36   
.text._DHCPOptionWriteE 0x9d028c58           0x24          36   
.rodata                 0x9d028c7c           0x24          36  Read-only const 
.text._TCPIPSignalEntry 0x9d028ca0           0x24          36   
.text.TCPIP_STACK_HeapH 0x9d028cc4           0x24          36   
.rodata                 0x9d028ce8           0x24          36  Read-only const 
.text.SYS_INT_Restore   0x9d028d0c           0x24          36   
.text.tcp_app_use_defau 0x9d028d30           0x24          36   
.text.toupper           0x9d028d54           0x24          36   
.text.DRV_ETHMAC_PIC32M 0x9d028d78           0x20          32   
.text.TCPIP_DNS_OAHASH_ 0x9d028d98           0x20          32   
.text.TCPIP_DNS_GetIPv4 0x9d028db8           0x20          32   
.text.TCPIP_DNS_GetIPv6 0x9d028dd8           0x20          32   
.text.TCPIP_DNS_Enable  0x9d028df8           0x20          32   
.text.TCPIP_HEAP_Malloc 0x9d028e18           0x20          32   
.text.TCPIP_HEAP_Calloc 0x9d028e38           0x20          32   
.text.TCPIP_HEAP_FreeOu 0x9d028e58           0x20          32   
.text.TCPIP_STACK_Statu 0x9d028e78           0x20          32   
.text.TCPIP_STACK_NetIs 0x9d028e98           0x20          32   
.text.TCPIP_STACK_Addre 0x9d028eb8           0x20          32   
.rodata                 0x9d028ed8           0x20          32  Read-only const 
.text.EVIC_SourceIsEnab 0x9d028ef8           0x20          32   
.text.SYS_CMD_MESSAGE   0x9d028f18           0x20          32   
.text.SYS_INT_Disable   0x9d028f38           0x20          32   
.text.sy_time_h2_adapte 0x9d028f58           0x20          32   
.text.main              0x9d028f78           0x20          32   
.text.modbus_buf_init   0x9d028f98           0x20          32   
.text._DRV_ETHMAC_GetMC 0x9d028fb8           0x1c          28   
.text._DRV_ETHMAC_GetSC 0x9d028fd4           0x1c          28   
.text._DRV_ETHMAC_GetAl 0x9d028ff0           0x1c          28   
.text._DRV_ETHMAC_GetFr 0x9d02900c           0x1c          28   
.text._DRV_ETHMAC_GetFr 0x9d029028           0x1c          28   
.text._DRV_ETHMAC_GetFr 0x9d029044           0x1c          28   
.text._DRV_ETHMAC_GetFr 0x9d029060           0x1c          28   
.text._DRV_ETHMAC_GetFr 0x9d02907c           0x1c          28   
.text.ETHERNET_Interrup 0x9d029098           0x1c          28   
.text.DRV_ETH_NonBackTo 0x9d0290b4           0x1c          28   
.text.DRV_ETHPHY_Deinit 0x9d0290d0           0x1c          28   
.text.DRV_ETHPHY_Vendor 0x9d0290ec           0x1c          28   
.text._DRV_ETHPHY_Clien 0x9d029108           0x1c          28   
.text.btohexa_high      0x9d029124           0x1c          28   
.text.btohexa_low       0x9d029140           0x1c          28   
.text.TCPIP_DNS_Resolve 0x9d02915c           0x1c          28   
.text._Command_ZcllOnOf 0x9d029178           0x1c          28   
.text._Command_DHCPSOnO 0x9d029194           0x1c          28   
.text.TCPIP_Helper_Chec 0x9d0291b0           0x1c          28   
.text.TCPIP_Notificatio 0x9d0291cc           0x1c          28   
.text.TCPIP_UDP_ClientO 0x9d0291e8           0x1c          28   
.text.TCPIP_UDP_TxPutIs 0x9d029204           0x1c          28   
.text.CORETIMER_Compare 0x9d029220           0x1c          28   
.text.APP_Initialize    0x9d02923c           0x1c          28   
.text.DRV_ETH_BackToBac 0x9d029258           0x18          24   
.text.DRV_ETH_NonBackTo 0x9d029270           0x18          24   
.text.DRV_ETHPHY_Status 0x9d029288           0x18          24   
.text.DRV_ETHPHY_Client 0x9d0292a0           0x18          24   
.text.DRV_ETHPHY_Client 0x9d0292b8           0x18          24   
.text.TCPIP_ARP_HashKey 0x9d0292d0           0x18          24   
.text.TCPIP_STACK_NetIn 0x9d0292e8           0x18          24   
.text.TCPIP_STACK_NetIx 0x9d029300           0x18          24   
.text.TCPIP_STACK_Gatew 0x9d029318           0x18          24   
.text.TCPIP_STACK_Prima 0x9d029330           0x18          24   
.text.TCPIP_STACK_Secon 0x9d029348           0x18          24   
.text.CORETIMER_Counter 0x9d029360           0x18          24   
.text.holding_reg_read  0x9d029378           0x18          24   
.text.input_reg_write   0x9d029390           0x18          24   
.text                   0x9d0293a8           0x18          24  App's exec code 
.text.DRV_ETH_TxPacketD 0x9d0293c0           0x14          20   
.text.DRV_ETH_RxPacketD 0x9d0293d4           0x14          20   
.text.UART2_ReadCallbac 0x9d0293e8           0x14          20   
.text.UART2_WriteCallba 0x9d0293fc           0x14          20   
.text.DRV_ETH_RxBufferC 0x9d029410           0x10          16   
.text.DRV_ETH_MIIResetE 0x9d029420           0x10          16   
.text.DRV_ETH_MIIResetD 0x9d029430           0x10          16   
.text.DRV_ETH_Disable   0x9d029440           0x10          16   
.text.DRV_ETH_Enable    0x9d029450           0x10          16   
.text.DRV_ETH_TxRTSDisa 0x9d029460           0x10          16   
.text.DRV_ETH_TxRTSEnab 0x9d029470           0x10          16   
.text.DRV_ETH_RxDisable 0x9d029480           0x10          16   
.text.DRV_ETH_RxEnable  0x9d029490           0x10          16   
.text.DRV_ETH_Collision 0x9d0294a0           0x10          16   
.text.DRV_ETH_ReTxMaxSe 0x9d0294b0           0x10          16   
.text.DRV_ETH_RMIIReset 0x9d0294c0           0x10          16   
.text.DRV_ETH_RMIIReset 0x9d0294d0           0x10          16   
.text.DRV_ETH_RMIISpeed 0x9d0294e0           0x10          16   
.text.DRV_ETH_RxFilters 0x9d0294f0           0x10          16   
.text.DRV_ETH_RxFilters 0x9d029500           0x10          16   
.text.DRV_ETH_PauseTime 0x9d029510           0x10          16   
.text.DRV_ETH_TxPauseEn 0x9d029520           0x10          16   
.text.DRV_ETH_RxPauseEn 0x9d029530           0x10          16   
.text.DRV_ETH_AutoFlowC 0x9d029540           0x10          16   
.text.DRV_ETH_RxFilters 0x9d029550           0x10          16   
.text.DRV_ETH_MIIMNoPre 0x9d029560           0x10          16   
.text.DRV_ETH_MIIMNoPre 0x9d029570           0x10          16   
.text.DRV_ETH_MIIMScanI 0x9d029580           0x10          16   
.text.DRV_ETH_MIIMScanI 0x9d029590           0x10          16   
.text.DRV_ETH_PHYAddres 0x9d0295a0           0x10          16   
.text.DRV_ETH_RegisterA 0x9d0295b0           0x10          16   
.text.DRV_ETH_ClearData 0x9d0295c0           0x10          16   
.text.DRV_ETH_MIIMScanM 0x9d0295d0           0x10          16   
.text.DRV_ETH_MIIMScanM 0x9d0295e0           0x10          16   
.text.DRV_ETH_MIIMWrite 0x9d0295f0           0x10          16   
.text.DRV_ETH_MIIMReset 0x9d029600           0x10          16   
.text.DRV_ETH_MIIMReset 0x9d029610           0x10          16   
.text.DRV_ETH_MIIMClock 0x9d029620           0x10          16   
.rodata                 0x9d029630           0x10          16  Read-only const 
.text.TCPIP_ARP_HashKey 0x9d029640           0x10          16   
.text.TCPIP_Helper_Sing 0x9d029650           0x10          16   
.text.tcp_app_set_alter 0x9d029660           0x10          16   
.text.modbus_rx_buf_cle 0x9d029670           0x10          16   
.text.modbus_tx_buf_cle 0x9d029680           0x10          16   
.text.DRV_ETHMAC_PIC32M 0x9d029690            0xc          12   
.text.DRV_ETH_EthernetI 0x9d02969c            0xc          12   
.text.DRV_ETH_TransmitI 0x9d0296a8            0xc          12   
.text.DRV_ETH_ReceiveIs 0x9d0296b4            0xc          12   
.text.DRV_ETH_EventsClr 0x9d0296c0            0xc          12   
.text.DRV_ETH_EventsEna 0x9d0296cc            0xc          12   
.text.DRV_ETH_EventsEna 0x9d0296d8            0xc          12   
.text.DRV_ETH_EventsCle 0x9d0296e4            0xc          12   
.text.DRV_ETH_IsEnabled 0x9d0296f0            0xc          12   
.text.DRV_ETH_MIIMIsBus 0x9d0296fc            0xc          12   
.text.DRV_ETH_DataNotVa 0x9d029708            0xc          12   
.text.DRV_EXTPHY_SMIClo 0x9d029714            0xc          12   
.text.TCPIP_STACK_Numbe 0x9d029720            0xc          12   
.text.TCPIP_STACK_NetBI 0x9d02972c            0xc          12   
.text._TCPIPStackAddres 0x9d029738            0xc          12   
.text.CORETIMER_Callbac 0x9d029744            0xc          12   
.text.CORETIMER_Frequen 0x9d029750            0xc          12   
.text.SYS_TIME_Frequenc 0x9d02975c            0xc          12   
.rodata                 0x9d029768            0xc          12  Read-only const 
.text.BSP_Initialize    0x9d029774            0x8           8   
.text.DRV_ETHMAC_PIC32M 0x9d02977c            0x8           8   
.text.DRV_ETHMAC_PIC32M 0x9d029784            0x8           8   
.text.DRV_ETH_MaxFrameL 0x9d02978c            0x8           8   
.text.DRV_ETH_RxPacketC 0x9d029794            0x8           8   
.text.DRV_ETH_TxPacketD 0x9d02979c            0x8           8   
.text.DRV_ETH_RxPacketD 0x9d0297a4            0x8           8   
.text.DRV_ETH_RxFullWma 0x9d0297ac            0x8           8   
.text.DRV_ETH_RxEmptyWm 0x9d0297b4            0x8           8   
.text.DRV_ETH_FramesTxd 0x9d0297bc            0x8           8   
.text.DRV_ETH_FramesRxd 0x9d0297c4            0x8           8   
.text.DRV_ETH_RxOverflo 0x9d0297cc            0x8           8   
.text.DRV_ETH_FCSErrorC 0x9d0297d4            0x8           8   
.text.DRV_ETH_AlignErro 0x9d0297dc            0x8           8   
.text.DRV_ETH_SingleCol 0x9d0297e4            0x8           8   
.text.DRV_ETH_MultipleC 0x9d0297ec            0x8           8   
.text.DRV_ETH_EventsGet 0x9d0297f4            0x8           8   
.text.DRV_ETH_MIIMReadD 0x9d0297fc            0x8           8   
.text._DRV_ETHPHY_Clien 0x9d029804            0x8           8   
.text.DRV_ETHPHY_SMIRea 0x9d02980c            0x8           8   
.text.DRV_ETHPHY_SMIWri 0x9d029814            0x8           8   
.text.DRV_ETHPHY_SMISca 0x9d02981c            0x8           8   
.text.DRV_ETHPHY_SMISca 0x9d029824            0x8           8   
.text.DRV_ETHPHY_SMISca 0x9d02982c            0x8           8   
.text.DRV_ETHPHY_SMISca 0x9d029834            0x8           8   
.text.DRV_ETHPHY_SMISta 0x9d02983c            0x8           8   
.text.DRV_ETHPHY_SMIClo 0x9d029844            0x8           8   
.text.DRV_MIIM_Reinitia 0x9d02984c            0x8           8   
.text._DHCPOptionProces 0x9d029854            0x8           8   
.text.TCPIP_IPV4_IsFrag 0x9d02985c            0x8           8   
.text.TCPIP_STACK_NetDe 0x9d029864            0x8           8   
.text.TCPIP_STACK_NetGe 0x9d02986c            0x8           8   
.text.TCPIP_PKT_Deiniti 0x9d029874            0x8           8   
.text._mon_putc         0x9d02987c            0x8           8   
.text.SYS_CMD_READY_TO_ 0x9d029884            0x8           8   
.text.Console_UART_Task 0x9d02988c            0x8           8   
.text.SYS_DEBUG_ErrorLe 0x9d029894            0x8           8   
.text.get_wr_reg_addr   0x9d02989c            0x8           8   
.text.get_wr_reg_val    0x9d0298a4            0x8           8   
.text.TCP_APP_Initializ 0x9d0298ac            0x8           8   
.text._on_reset         0x9d0298b4            0x8           8   
.text._on_bootstrap     0x9d0298bc            0x8           8   
.rodata                 0x9d0298c8            0x8           8  Read-only const 
      Total kseg0_program_mem used  :     0x298c0      170176  8.1% of 0x200000

kseg0 Boot-Memory Usage
section                    address  length [bytes]      (dec)  Description
-------                 ----------  -------------------------  -----------
         Total kseg0_boot_mem used  :           0           0  

kseg1 Boot-Memory Usage
section                    address  length [bytes]      (dec)  Description
-------                 ----------  -------------------------  -----------
.reset                  0xbfc00000          0x1b4         436  Reset handler 
.bev_excpt              0xbfc00380           0x10          16  BEV-Exception 
         Total kseg1_boot_mem used  :       0x1c4         452  39.2% of 0x480
        --------------------------------------------------------------------------
         Total Program Memory used  :     0x29a84      170628  8.1% of 0x200480
        --------------------------------------------------------------------------


kseg0 Data-Memory Usage
section                    address  length [bytes]      (dec)  Description
-------                 ----------  -------------------------  -----------
.sdata                  0x80000000           0x48          72  Small init data 
.sbss                   0x80000048          0x178         376  Small uninit data 
.bss                    0x800001c0          0x348         840  Uninitialized data 
.bss                    0x80000508          0x828        2088  Uninitialized data 
.bss                    0x80000d30          0x580        1408  Uninitialized data 
.bss                    0x800012b0          0x190         400  Uninitialized data 
.data                   0x80001440          0x140         320  Initialized data 
.bss                    0x80001580           0xec         236  Uninitialized data 
.data                   0x8000166c           0xa4         164  Initialized data 
.bss                    0x80001710          0x108         264  Uninitialized data 
.bss                    0x80001818           0xb4         180  Uninitialized data 
.bss                    0x800018cc           0x78         120  Uninitialized data 
.bss                    0x80001944           0x4c          76  Uninitialized data 
.bss                    0x80001990           0x40          64  Uninitialized data 
.data                   0x800019d0           0x1c          28  Initialized data 
.bss                    0x800019ec           0x10          16  Uninitialized data 
.bss.errno              0x800019fc            0x4           4   
.bss                    0x80001a00           0x1c          28  Uninitialized data 
         Total kseg0_data_mem used  :      0x1a1c        6684  1.3% of 0x80000
        --------------------------------------------------------------------------
            Total Data Memory used  :      0x1a1c        6684  1.3% of 0x80000
        --------------------------------------------------------------------------


Dynamic Data-Memory Reservation
section                    address  length [bytes]      (dec)  Description
-------                 ----------  -------------------------  -----------
heap                    0x80001a20         0xfdc0       64960  Reserved for heap 
stack                   0x800117f8        0x6e7f8      452600  Reserved for stack 

        --------------------------------------------------------------------------

Discarded input sections

 .text          0x00000000        0x0 c:/program files (x86)/microchip/xc32/v2.30/bin/bin/../../lib/gcc/pic32mx/4.8.3/../../../../pic32mx/lib/fpu64\debug-exception-return.o
 .data          0x00000000        0x0 c:/program files (x86)/microchip/xc32/v2.30/bin/bin/../../lib/gcc/pic32mx/4.8.3/../../../../pic32mx/lib/fpu64\debug-exception-return.o
 .bss           0x00000000        0x0 c:/program files (x86)/microchip/xc32/v2.30/bin/bin/../../lib/gcc/pic32mx/4.8.3/../../../../pic32mx/lib/fpu64\debug-exception-return.o
 .text          0x00000000        0x0 build/pic32mz_ef_sk/production/_ext/978308758/bsp.o
 .data          0x00000000        0x0 build/pic32mz_ef_sk/production/_ext/978308758/bsp.o
 .bss           0x00000000        0x0 build/pic32mz_ef_sk/production/_ext/978308758/bsp.o
 .reginfo       0x00000000       0x18 build/pic32mz_ef_sk/production/_ext/978308758/bsp.o
 .text          0x00000000        0x0 build/pic32mz_ef_sk/production/_ext/1314174413/drv_ethmac.o
 .bss           0x00000000        0x0 build/pic32mz_ef_sk/production/_ext/1314174413/drv_ethmac.o
 .reginfo       0x00000000       0x18 build/pic32mz_ef_sk/production/_ext/1314174413/drv_ethmac.o
 .text          0x00000000        0x0 build/pic32mz_ef_sk/production/_ext/1314174413/drv_ethmac_lib.o
 .data          0x00000000        0x0 build/pic32mz_ef_sk/production/_ext/1314174413/drv_ethmac_lib.o
 .bss           0x00000000        0x0 build/pic32mz_ef_sk/production/_ext/1314174413/drv_ethmac_lib.o
 .reginfo       0x00000000       0x18 build/pic32mz_ef_sk/production/_ext/1314174413/drv_ethmac_lib.o
 .text.DRV_ETHMAC_LibDescriptorsPoolRemove
                0x00000000       0xc4 build/pic32mz_ef_sk/production/_ext/1314174413/drv_ethmac_lib.o
 .text.DRV_ETHMAC_LibTxSendBuffer
                0x00000000       0xe4 build/pic32mz_ef_sk/production/_ext/1314174413/drv_ethmac_lib.o
 .text.DRV_ETHMAC_LibTxGetBufferStatus
                0x00000000       0x84 build/pic32mz_ef_sk/production/_ext/1314174413/drv_ethmac_lib.o
 .text.DRV_ETHMAC_LibRxGetBuffer
                0x00000000       0x3c build/pic32mz_ef_sk/production/_ext/1314174413/drv_ethmac_lib.o
 .text          0x00000000        0x0 build/pic32mz_ef_sk/production/_ext/1314174413/drv_eth_pic32_lib.o
 .data          0x00000000        0x0 build/pic32mz_ef_sk/production/_ext/1314174413/drv_eth_pic32_lib.o
 .bss           0x00000000        0x0 build/pic32mz_ef_sk/production/_ext/1314174413/drv_eth_pic32_lib.o
 .reginfo       0x00000000       0x18 build/pic32mz_ef_sk/production/_ext/1314174413/drv_eth_pic32_lib.o
 .text          0x00000000        0x0 build/pic32mz_ef_sk/production/_ext/138020607/drv_ethphy.o
 .data          0x00000000        0x0 build/pic32mz_ef_sk/production/_ext/138020607/drv_ethphy.o
 .reginfo       0x00000000       0x18 build/pic32mz_ef_sk/production/_ext/138020607/drv_ethphy.o
 .text          0x00000000        0x0 build/pic32mz_ef_sk/production/_ext/138020607/drv_extphy_smsc8740.o
 .data          0x00000000        0x0 build/pic32mz_ef_sk/production/_ext/138020607/drv_extphy_smsc8740.o
 .bss           0x00000000        0x0 build/pic32mz_ef_sk/production/_ext/138020607/drv_extphy_smsc8740.o
 .reginfo       0x00000000       0x18 build/pic32mz_ef_sk/production/_ext/138020607/drv_extphy_smsc8740.o
 .text          0x00000000        0x0 build/pic32mz_ef_sk/production/_ext/1761147401/drv_miim.o
 .data          0x00000000        0x0 build/pic32mz_ef_sk/production/_ext/1761147401/drv_miim.o
 .reginfo       0x00000000       0x18 build/pic32mz_ef_sk/production/_ext/1761147401/drv_miim.o
 .text.Helper_SingleListInitialize
                0x00000000       0x10 build/pic32mz_ef_sk/production/_ext/1761147401/drv_miim.o
 .text          0x00000000        0x0 build/pic32mz_ef_sk/production/_ext/2027382860/helpers.o
 .data          0x00000000        0x0 build/pic32mz_ef_sk/production/_ext/2027382860/helpers.o
 .bss           0x00000000        0x0 build/pic32mz_ef_sk/production/_ext/2027382860/helpers.o
 .reginfo       0x00000000       0x18 build/pic32mz_ef_sk/production/_ext/2027382860/helpers.o
 .text.uitoa    0x00000000       0x90 build/pic32mz_ef_sk/production/_ext/2027382860/helpers.o
 .text.strncpy_m
                0x00000000       0xd8 build/pic32mz_ef_sk/production/_ext/2027382860/helpers.o
 .text.stricmp  0x00000000       0xa4 build/pic32mz_ef_sk/production/_ext/2027382860/helpers.o
 .text          0x00000000        0x0 build/pic32mz_ef_sk/production/_ext/2027382860/dns.o
 .data          0x00000000        0x0 build/pic32mz_ef_sk/production/_ext/2027382860/dns.o
 .reginfo       0x00000000       0x18 build/pic32mz_ef_sk/production/_ext/2027382860/dns.o
 .text.TCPIP_DNS_Send_Query
                0x00000000       0x1c build/pic32mz_ef_sk/production/_ext/2027382860/dns.o
 .text.TCPIP_DNS_IsNameResolved
                0x00000000       0x1c build/pic32mz_ef_sk/production/_ext/2027382860/dns.o
 .text.TCPIP_DNS_IsEnabled
                0x00000000       0x24 build/pic32mz_ef_sk/production/_ext/2027382860/dns.o
 .text          0x00000000        0x0 build/pic32mz_ef_sk/production/_ext/2027382860/icmp.o
 .data          0x00000000        0x0 build/pic32mz_ef_sk/production/_ext/2027382860/icmp.o
 .bss           0x00000000        0x0 build/pic32mz_ef_sk/production/_ext/2027382860/icmp.o
 .reginfo       0x00000000       0x18 build/pic32mz_ef_sk/production/_ext/2027382860/icmp.o
 .text          0x00000000        0x0 build/pic32mz_ef_sk/production/_ext/2027382860/tcp.o
 .data          0x00000000        0x0 build/pic32mz_ef_sk/production/_ext/2027382860/tcp.o
 .bss           0x00000000        0x0 build/pic32mz_ef_sk/production/_ext/2027382860/tcp.o
 .reginfo       0x00000000       0x18 build/pic32mz_ef_sk/production/_ext/2027382860/tcp.o
 .text.TCPIP_TCP_SocketTraceSet
                0x00000000        0x8 build/pic32mz_ef_sk/production/_ext/2027382860/tcp.o
 .text.TCPIP_TCP_ClientOpen
                0x00000000       0x40 build/pic32mz_ef_sk/production/_ext/2027382860/tcp.o
 .text.TCPIP_TCP_WasReset
                0x00000000       0x48 build/pic32mz_ef_sk/production/_ext/2027382860/tcp.o
 .text.TCPIP_TCP_Disconnect
                0x00000000       0x3c build/pic32mz_ef_sk/production/_ext/2027382860/tcp.o
 .text.TCPIP_TCP_Abort
                0x00000000       0x38 build/pic32mz_ef_sk/production/_ext/2027382860/tcp.o
 .text.TCPIP_TCP_Connect
                0x00000000       0x60 build/pic32mz_ef_sk/production/_ext/2027382860/tcp.o
 .text.TCPIP_TCP_SocketsNumberGet
                0x00000000        0x8 build/pic32mz_ef_sk/production/_ext/2027382860/tcp.o
 .text.TCPIP_TCP_Put
                0x00000000       0x24 build/pic32mz_ef_sk/production/_ext/2027382860/tcp.o
 .text.TCPIP_TCP_StringPut
                0x00000000       0x48 build/pic32mz_ef_sk/production/_ext/2027382860/tcp.o
 .text.TCPIP_TCP_FifoTxFullGet
                0x00000000       0x7c build/pic32mz_ef_sk/production/_ext/2027382860/tcp.o
 .text.TCPIP_TCP_SocketInfoGet
                0x00000000       0xdc build/pic32mz_ef_sk/production/_ext/2027382860/tcp.o
 .text.TCPIP_TCP_FifoTxFreeGet
                0x00000000       0x50 build/pic32mz_ef_sk/production/_ext/2027382860/tcp.o
 .text.TCPIP_TCP_Discard
                0x00000000       0x60 build/pic32mz_ef_sk/production/_ext/2027382860/tcp.o
 .text.TCPIP_TCP_Get
                0x00000000       0x1c build/pic32mz_ef_sk/production/_ext/2027382860/tcp.o
 .text.TCPIP_TCP_FifoRxFreeGet
                0x00000000       0x4c build/pic32mz_ef_sk/production/_ext/2027382860/tcp.o
 .text.TCPIP_TCP_ArrayPeek
                0x00000000       0xe4 build/pic32mz_ef_sk/production/_ext/2027382860/tcp.o
 .text.TCPIP_TCP_Peek
                0x00000000       0x28 build/pic32mz_ef_sk/production/_ext/2027382860/tcp.o
 .text.TCPIP_TCP_ArrayFind
                0x00000000      0x398 build/pic32mz_ef_sk/production/_ext/2027382860/tcp.o
 .text.TCPIP_TCP_Find
                0x00000000       0x38 build/pic32mz_ef_sk/production/_ext/2027382860/tcp.o
 .text.TCPIP_TCP_FifoSizeAdjust
                0x00000000      0x4c4 build/pic32mz_ef_sk/production/_ext/2027382860/tcp.o
 .text.TCPIP_TCP_SocketNetSet
                0x00000000       0x48 build/pic32mz_ef_sk/production/_ext/2027382860/tcp.o
 .text.TCPIP_TCP_SocketNetGet
                0x00000000       0x28 build/pic32mz_ef_sk/production/_ext/2027382860/tcp.o
 .text.TCPIP_TCP_Bind
                0x00000000      0x158 build/pic32mz_ef_sk/production/_ext/2027382860/tcp.o
 .text.TCPIP_TCP_OptionsSet
                0x00000000      0x1b4 build/pic32mz_ef_sk/production/_ext/2027382860/tcp.o
 .text.TCPIP_TCP_OptionsGet
                0x00000000      0x178 build/pic32mz_ef_sk/production/_ext/2027382860/tcp.o
 .text.TCPIP_TCP_DestinationIPAddressSet
                0x00000000       0x98 build/pic32mz_ef_sk/production/_ext/2027382860/tcp.o
 .text.TCPIP_TCP_RemoteBind
                0x00000000       0xac build/pic32mz_ef_sk/production/_ext/2027382860/tcp.o
 .text.TCPIP_TCP_SourceIPAddressSet
                0x00000000       0x78 build/pic32mz_ef_sk/production/_ext/2027382860/tcp.o
 .text.TCPIP_TCP_SignalHandlerRegister
                0x00000000       0x74 build/pic32mz_ef_sk/production/_ext/2027382860/tcp.o
 .text.TCPIP_TCP_SignalHandlerDeregister
                0x00000000       0x48 build/pic32mz_ef_sk/production/_ext/2027382860/tcp.o
 .text.TCPIP_TCP_IsReady
                0x00000000        0x8 build/pic32mz_ef_sk/production/_ext/2027382860/tcp.o
 .text          0x00000000        0x0 build/pic32mz_ef_sk/production/_ext/2027382860/dhcp.o
 .data          0x00000000        0x0 build/pic32mz_ef_sk/production/_ext/2027382860/dhcp.o
 .reginfo       0x00000000       0x18 build/pic32mz_ef_sk/production/_ext/2027382860/dhcp.o
 .text.TCPIP_DHCP_IsBound
                0x00000000       0x78 build/pic32mz_ef_sk/production/_ext/2027382860/dhcp.o
 .text.TCPIP_DHCP_IsServerDetected
                0x00000000       0x78 build/pic32mz_ef_sk/production/_ext/2027382860/dhcp.o
 .text.TCPIP_DHCP_RequestTimeoutSet
                0x00000000       0xa4 build/pic32mz_ef_sk/production/_ext/2027382860/dhcp.o
 .text.TCPIP_DHCP_HandlerRegister
                0x00000000       0x78 build/pic32mz_ef_sk/production/_ext/2027382860/dhcp.o
 .text.TCPIP_DHCP_HandlerDeRegister
                0x00000000       0x44 build/pic32mz_ef_sk/production/_ext/2027382860/dhcp.o
 .text.TCPIP_DHCP_HostNameCallbackRegister
                0x00000000       0xa0 build/pic32mz_ef_sk/production/_ext/2027382860/dhcp.o
 .text          0x00000000        0x0 build/pic32mz_ef_sk/production/_ext/2027382860/arp.o
 .data          0x00000000        0x0 build/pic32mz_ef_sk/production/_ext/2027382860/arp.o
 .reginfo       0x00000000       0x18 build/pic32mz_ef_sk/production/_ext/2027382860/arp.o
 .text.TCPIP_ARP_Resolve
                0x00000000       0x78 build/pic32mz_ef_sk/production/_ext/2027382860/arp.o
 .text.TCPIP_ARP_EntrySet
                0x00000000      0x174 build/pic32mz_ef_sk/production/_ext/2027382860/arp.o
 .text.TCPIP_ARP_EntryRemoveAll
                0x00000000       0xe8 build/pic32mz_ef_sk/production/_ext/2027382860/arp.o
 .text.TCPIP_ARP_CacheThresholdSet
                0x00000000       0xa8 build/pic32mz_ef_sk/production/_ext/2027382860/arp.o
 .text          0x00000000        0x0 build/pic32mz_ef_sk/production/_ext/2027382860/tcpip_commands.o
 .data          0x00000000        0x0 build/pic32mz_ef_sk/production/_ext/2027382860/tcpip_commands.o
 .reginfo       0x00000000       0x18 build/pic32mz_ef_sk/production/_ext/2027382860/tcpip_commands.o
 .text          0x00000000        0x0 build/pic32mz_ef_sk/production/_ext/2027382860/ipv4.o
 .data          0x00000000        0x0 build/pic32mz_ef_sk/production/_ext/2027382860/ipv4.o
 .reginfo       0x00000000       0x18 build/pic32mz_ef_sk/production/_ext/2027382860/ipv4.o
 .text.TCPIP_IPV4_PacketFilterSet
                0x00000000       0x10 build/pic32mz_ef_sk/production/_ext/2027382860/ipv4.o
 .text.TCPIP_IPV4_PacketFilterClear
                0x00000000       0x14 build/pic32mz_ef_sk/production/_ext/2027382860/ipv4.o
 .text.TCPIP_IPV4_PacketAlloc
                0x00000000       0xc4 build/pic32mz_ef_sk/production/_ext/2027382860/ipv4.o
 .text.TCPIP_IPV4_PacketOptionFieldSet
                0x00000000       0x40 build/pic32mz_ef_sk/production/_ext/2027382860/ipv4.o
 .text.TCPIP_IPV4_PacketOptionListGet
                0x00000000       0x90 build/pic32mz_ef_sk/production/_ext/2027382860/ipv4.o
 .text.TCPIP_IPV4_PacketOptionGet
                0x00000000       0xd8 build/pic32mz_ef_sk/production/_ext/2027382860/ipv4.o
 .text          0x00000000        0x0 build/pic32mz_ef_sk/production/_ext/2027382860/tcpip_heap_alloc.o
 .data          0x00000000        0x0 build/pic32mz_ef_sk/production/_ext/2027382860/tcpip_heap_alloc.o
 .bss           0x00000000        0x0 build/pic32mz_ef_sk/production/_ext/2027382860/tcpip_heap_alloc.o
 .reginfo       0x00000000       0x18 build/pic32mz_ef_sk/production/_ext/2027382860/tcpip_heap_alloc.o
 .text._TCPIP_HEAP_PointerMapCached
                0x00000000       0x20 build/pic32mz_ef_sk/production/_ext/2027382860/tcpip_heap_alloc.o
 .text          0x00000000        0x0 build/pic32mz_ef_sk/production/_ext/2027382860/tcpip_heap_internal.o
 .data          0x00000000        0x0 build/pic32mz_ef_sk/production/_ext/2027382860/tcpip_heap_internal.o
 .bss           0x00000000        0x0 build/pic32mz_ef_sk/production/_ext/2027382860/tcpip_heap_internal.o
 .reginfo       0x00000000       0x18 build/pic32mz_ef_sk/production/_ext/2027382860/tcpip_heap_internal.o
 .text          0x00000000        0x0 build/pic32mz_ef_sk/production/_ext/2027382860/hash_fnv.o
 .data          0x00000000        0x0 build/pic32mz_ef_sk/production/_ext/2027382860/hash_fnv.o
 .bss           0x00000000        0x0 build/pic32mz_ef_sk/production/_ext/2027382860/hash_fnv.o
 .reginfo       0x00000000       0x18 build/pic32mz_ef_sk/production/_ext/2027382860/hash_fnv.o
 .text.fnv_32a_hash
                0x00000000       0x5c build/pic32mz_ef_sk/production/_ext/2027382860/hash_fnv.o
 .text          0x00000000        0x0 build/pic32mz_ef_sk/production/_ext/2027382860/oahash.o
 .data          0x00000000        0x0 build/pic32mz_ef_sk/production/_ext/2027382860/oahash.o
 .bss           0x00000000        0x0 build/pic32mz_ef_sk/production/_ext/2027382860/oahash.o
 .reginfo       0x00000000       0x18 build/pic32mz_ef_sk/production/_ext/2027382860/oahash.o
 .text          0x00000000        0x0 build/pic32mz_ef_sk/production/_ext/2027382860/tcpip_helpers.o
 .data          0x00000000       0x28 build/pic32mz_ef_sk/production/_ext/2027382860/tcpip_helpers.o
 .bss           0x00000000        0x0 build/pic32mz_ef_sk/production/_ext/2027382860/tcpip_helpers.o
 .reginfo       0x00000000       0x18 build/pic32mz_ef_sk/production/_ext/2027382860/tcpip_helpers.o
 .text._TCPIP_Helper_SecurePortEntry
                0x00000000       0x54 build/pic32mz_ef_sk/production/_ext/2027382860/tcpip_helpers.o
 .text.TCPIP_Helper_IsPrivateAddress
                0x00000000       0x3c build/pic32mz_ef_sk/production/_ext/2027382860/tcpip_helpers.o
 .text.TCPIP_Helper_PowerModeToString
                0x00000000       0x28 build/pic32mz_ef_sk/production/_ext/2027382860/tcpip_helpers.o
 .text.TCPIP_Helper_Base64Decode
                0x00000000      0x1a4 build/pic32mz_ef_sk/production/_ext/2027382860/tcpip_helpers.o
 .text.TCPIP_Helper_Base64Encode
                0x00000000      0x188 build/pic32mz_ef_sk/production/_ext/2027382860/tcpip_helpers.o
 .text.TCPIP_Helper_FindCommonPrefix
                0x00000000       0xa0 build/pic32mz_ef_sk/production/_ext/2027382860/tcpip_helpers.o
 .text.TCPIP_Helper_SingleListHeadAdd
                0x00000000       0x28 build/pic32mz_ef_sk/production/_ext/2027382860/tcpip_helpers.o
 .text.TCPIP_Helper_SingleListMidAdd
                0x00000000       0x1c build/pic32mz_ef_sk/production/_ext/2027382860/tcpip_helpers.o
 .text.TCPIP_Helper_SingleListNextRemove
                0x00000000       0x58 build/pic32mz_ef_sk/production/_ext/2027382860/tcpip_helpers.o
 .text.TCPIP_Helper_SingleListFind
                0x00000000       0x48 build/pic32mz_ef_sk/production/_ext/2027382860/tcpip_helpers.o
 .text.TCPIP_Helper_ProtectedSingleListHeadAdd
                0x00000000       0x88 build/pic32mz_ef_sk/production/_ext/2027382860/tcpip_helpers.o
 .text.TCPIP_Helper_ProtectedSingleListMidAdd
                0x00000000       0x9c build/pic32mz_ef_sk/production/_ext/2027382860/tcpip_helpers.o
 .text.TCPIP_Helper_ProtectedSingleListNextRemove
                0x00000000       0x94 build/pic32mz_ef_sk/production/_ext/2027382860/tcpip_helpers.o
 .text.TCPIP_Helper_ProtectedSingleListAppend
                0x00000000       0x88 build/pic32mz_ef_sk/production/_ext/2027382860/tcpip_helpers.o
 .text.TCPIP_Helper_DoubleListInitialize
                0x00000000       0x10 build/pic32mz_ef_sk/production/_ext/2027382860/tcpip_helpers.o
 .text.TCPIP_Helper_DoubleListHeadAdd
                0x00000000       0x40 build/pic32mz_ef_sk/production/_ext/2027382860/tcpip_helpers.o
 .text.TCPIP_Helper_DoubleListTailAdd
                0x00000000       0x44 build/pic32mz_ef_sk/production/_ext/2027382860/tcpip_helpers.o
 .text.TCPIP_Helper_DoubleListMidAdd
                0x00000000       0x28 build/pic32mz_ef_sk/production/_ext/2027382860/tcpip_helpers.o
 .text.TCPIP_Helper_DoubleListHeadRemove
                0x00000000       0x40 build/pic32mz_ef_sk/production/_ext/2027382860/tcpip_helpers.o
 .text.TCPIP_Helper_DoubleListTailRemove
                0x00000000       0x40 build/pic32mz_ef_sk/production/_ext/2027382860/tcpip_helpers.o
 .text.TCPIP_Helper_DoubleListMidRemove
                0x00000000       0x28 build/pic32mz_ef_sk/production/_ext/2027382860/tcpip_helpers.o
 .text.TCPIP_Helper_DoubleListNodeRemove
                0x00000000       0x50 build/pic32mz_ef_sk/production/_ext/2027382860/tcpip_helpers.o
 .text.TCPIP_Helper_DoubleListFind
                0x00000000       0x48 build/pic32mz_ef_sk/production/_ext/2027382860/tcpip_helpers.o
 .text.TCPIP_Helper_ProtectedDoubleListInitialize
                0x00000000       0x50 build/pic32mz_ef_sk/production/_ext/2027382860/tcpip_helpers.o
 .text.TCPIP_Helper_ProtectedDoubleListDeinitialize
                0x00000000       0x78 build/pic32mz_ef_sk/production/_ext/2027382860/tcpip_helpers.o
 .text.TCPIP_Helper_ProtectedDoubleListHeadAdd
                0x00000000       0x88 build/pic32mz_ef_sk/production/_ext/2027382860/tcpip_helpers.o
 .text.TCPIP_Helper_ProtectedDoubleListTailAdd
                0x00000000       0x88 build/pic32mz_ef_sk/production/_ext/2027382860/tcpip_helpers.o
 .text.TCPIP_Helper_ProtectedDoubleListMidAdd
                0x00000000       0x98 build/pic32mz_ef_sk/production/_ext/2027382860/tcpip_helpers.o
 .text.TCPIP_Helper_ProtectedDoubleListHeadRemove
                0x00000000       0x90 build/pic32mz_ef_sk/production/_ext/2027382860/tcpip_helpers.o
 .text.TCPIP_Helper_ProtectedDoubleListTailRemove
                0x00000000       0x90 build/pic32mz_ef_sk/production/_ext/2027382860/tcpip_helpers.o
 .text.TCPIP_Helper_ProtectedDoubleListMidRemove
                0x00000000       0x88 build/pic32mz_ef_sk/production/_ext/2027382860/tcpip_helpers.o
 .text.TCPIP_Helper_ProtectedDoubleListNodeRemove
                0x00000000       0x88 build/pic32mz_ef_sk/production/_ext/2027382860/tcpip_helpers.o
 .text.TCPIP_Helper_ProtectedDoubleListRemoveAll
                0x00000000       0x90 build/pic32mz_ef_sk/production/_ext/2027382860/tcpip_helpers.o
 .text.TCPIP_Helper_ProtectedDoubleListLock
                0x00000000       0x58 build/pic32mz_ef_sk/production/_ext/2027382860/tcpip_helpers.o
 .text.TCPIP_Helper_ProtectedDoubleListUnlock
                0x00000000       0x44 build/pic32mz_ef_sk/production/_ext/2027382860/tcpip_helpers.o
 .text.TCPIP_Helper_TCPSecurePortGet
                0x00000000       0x2c build/pic32mz_ef_sk/production/_ext/2027382860/tcpip_helpers.o
 .text.TCPIP_Helper_UDPSecurePortGet
                0x00000000       0x2c build/pic32mz_ef_sk/production/_ext/2027382860/tcpip_helpers.o
 .text.TCPIP_Helper_SecurePortGetByIndex
                0x00000000       0x60 build/pic32mz_ef_sk/production/_ext/2027382860/tcpip_helpers.o
 .text.TCPIP_Helper_SecurePortSet
                0x00000000       0xc0 build/pic32mz_ef_sk/production/_ext/2027382860/tcpip_helpers.o
 .data          0x00000000        0x0 build/pic32mz_ef_sk/production/_ext/2027382860/tcpip_helper_c32.o
 .bss           0x00000000        0x0 build/pic32mz_ef_sk/production/_ext/2027382860/tcpip_helper_c32.o
 .reginfo       0x00000000       0x18 build/pic32mz_ef_sk/production/_ext/2027382860/tcpip_helper_c32.o
 .text          0x00000000        0x0 build/pic32mz_ef_sk/production/_ext/2027382860/tcpip_manager.o
 .data          0x00000000        0x0 build/pic32mz_ef_sk/production/_ext/2027382860/tcpip_manager.o
 .reginfo       0x00000000       0x18 build/pic32mz_ef_sk/production/_ext/2027382860/tcpip_manager.o
 .text._NetConfigStringToBuffer
                0x00000000       0xc8 build/pic32mz_ef_sk/production/_ext/2027382860/tcpip_manager.o
 .text.TCPIP_STACK_NetMulticastGet
                0x00000000        0x8 build/pic32mz_ef_sk/production/_ext/2027382860/tcpip_manager.o
 .text.TCPIP_STACK_NetMulticastSet
                0x00000000        0x8 build/pic32mz_ef_sk/production/_ext/2027382860/tcpip_manager.o
 .text.TCPIP_STACK_MacToNet
                0x00000000       0x4c build/pic32mz_ef_sk/production/_ext/2027382860/tcpip_manager.o
 .text.TCPIP_STACK_MacToNetIndex
                0x00000000       0x54 build/pic32mz_ef_sk/production/_ext/2027382860/tcpip_manager.o
 .text.TCPIP_STACK_MACObjectGet
                0x00000000       0x18 build/pic32mz_ef_sk/production/_ext/2027382860/tcpip_manager.o
 .text.TCPIP_STACK_NetAddressDnsSecond
                0x00000000       0x28 build/pic32mz_ef_sk/production/_ext/2027382860/tcpip_manager.o
 .text.TCPIP_STACK_NetAddressDnsSecondSet
                0x00000000       0x30 build/pic32mz_ef_sk/production/_ext/2027382860/tcpip_manager.o
 .text.TCPIP_STACK_NetMACIdGet
                0x00000000       0x28 build/pic32mz_ef_sk/production/_ext/2027382860/tcpip_manager.o
 .text.TCPIP_STACK_ModuleConfigGet
                0x00000000       0x74 build/pic32mz_ef_sk/production/_ext/2027382860/tcpip_manager.o
 .text.TCPIP_STACK_NetConfigGet
                0x00000000      0x104 build/pic32mz_ef_sk/production/_ext/2027382860/tcpip_manager.o
 .text.TCPIP_STACK_NetConfigSet
                0x00000000      0x2dc build/pic32mz_ef_sk/production/_ext/2027382860/tcpip_manager.o
 .text.TCPIP_STACK_MACIdToString
                0x00000000       0x4c build/pic32mz_ef_sk/production/_ext/2027382860/tcpip_manager.o
 .text.TCPIP_STACK_EventsPendingGet
                0x00000000       0x4c build/pic32mz_ef_sk/production/_ext/2027382860/tcpip_manager.o
 .text.TCPIP_STACK_NetStaticIPv6AddressGet
                0x00000000        0x8 build/pic32mz_ef_sk/production/_ext/2027382860/tcpip_manager.o
 .text.TCPIP_STACK_NetDefaultIPv6GatewayGet
                0x00000000        0x8 build/pic32mz_ef_sk/production/_ext/2027382860/tcpip_manager.o
 .text.TCPIP_STACK_AddressIsOfNetUp
                0x00000000       0x54 build/pic32mz_ef_sk/production/_ext/2027382860/tcpip_manager.o
 .text.TCPIP_STACK_NetMACId
                0x00000000       0x18 build/pic32mz_ef_sk/production/_ext/2027382860/tcpip_manager.o
 .text.TCPIP_STACK_NetToMAC
                0x00000000       0x18 build/pic32mz_ef_sk/production/_ext/2027382860/tcpip_manager.o
 .text.TCPIP_STACK_VersionGet
                0x00000000        0xc build/pic32mz_ef_sk/production/_ext/2027382860/tcpip_manager.o
 .text.TCPIP_STACK_VersionStrGet
                0x00000000        0xc build/pic32mz_ef_sk/production/_ext/2027382860/tcpip_manager.o
 .text.TCPIP_MODULE_SignalFunctionRegister
                0x00000000       0x50 build/pic32mz_ef_sk/production/_ext/2027382860/tcpip_manager.o
 .text.TCPIP_MODULE_SignalFunctionDeregister
                0x00000000       0x1c build/pic32mz_ef_sk/production/_ext/2027382860/tcpip_manager.o
 .text.TCPIP_MODULE_SignalGet
                0x00000000       0x50 build/pic32mz_ef_sk/production/_ext/2027382860/tcpip_manager.o
 .text.TCPIP_STACK_HEAP_Size
                0x00000000       0x34 build/pic32mz_ef_sk/production/_ext/2027382860/tcpip_manager.o
 .text.TCPIP_STACK_HEAP_MaxSize
                0x00000000       0x34 build/pic32mz_ef_sk/production/_ext/2027382860/tcpip_manager.o
 .text.TCPIP_STACK_HEAP_FreeSize
                0x00000000       0x34 build/pic32mz_ef_sk/production/_ext/2027382860/tcpip_manager.o
 .text.TCPIP_STACK_HEAP_HighWatermark
                0x00000000       0x34 build/pic32mz_ef_sk/production/_ext/2027382860/tcpip_manager.o
 .text.TCPIP_STACK_HEAP_LastError
                0x00000000       0x34 build/pic32mz_ef_sk/production/_ext/2027382860/tcpip_manager.o
 .text._TCPIPStackHeapConfig
                0x00000000        0xc build/pic32mz_ef_sk/production/_ext/2027382860/tcpip_manager.o
 .text          0x00000000        0x0 build/pic32mz_ef_sk/production/_ext/2027382860/tcpip_notify.o
 .data          0x00000000        0x0 build/pic32mz_ef_sk/production/_ext/2027382860/tcpip_notify.o
 .bss           0x00000000        0x0 build/pic32mz_ef_sk/production/_ext/2027382860/tcpip_notify.o
 .reginfo       0x00000000       0x18 build/pic32mz_ef_sk/production/_ext/2027382860/tcpip_notify.o
 .text          0x00000000        0x0 build/pic32mz_ef_sk/production/_ext/2027382860/tcpip_packet.o
 .data          0x00000000        0x0 build/pic32mz_ef_sk/production/_ext/2027382860/tcpip_packet.o
 .bss           0x00000000        0x0 build/pic32mz_ef_sk/production/_ext/2027382860/tcpip_packet.o
 .reginfo       0x00000000       0x18 build/pic32mz_ef_sk/production/_ext/2027382860/tcpip_packet.o
 .text.TCPIP_PKT_SegmentAppend
                0x00000000       0x30 build/pic32mz_ef_sk/production/_ext/2027382860/tcpip_packet.o
 .text._TCPIP_PKT_SegmentAlloc
                0x00000000       0xb0 build/pic32mz_ef_sk/production/_ext/2027382860/tcpip_packet.o
 .text._TCPIP_PKT_SegmentFree
                0x00000000       0x48 build/pic32mz_ef_sk/production/_ext/2027382860/tcpip_packet.o
 .text          0x00000000        0x0 build/pic32mz_ef_sk/production/_ext/2027382860/udp.o
 .data          0x00000000        0x0 build/pic32mz_ef_sk/production/_ext/2027382860/udp.o
 .bss           0x00000000        0x0 build/pic32mz_ef_sk/production/_ext/2027382860/udp.o
 .reginfo       0x00000000       0x18 build/pic32mz_ef_sk/production/_ext/2027382860/udp.o
 .text.TCPIP_UDP_OpenServerSkt
                0x00000000      0x148 build/pic32mz_ef_sk/production/_ext/2027382860/udp.o
 .text.TCPIP_UDP_ServerOpen
                0x00000000       0x1c build/pic32mz_ef_sk/production/_ext/2027382860/udp.o
 .text.TCPIP_UDP_IsConnected
                0x00000000       0x5c build/pic32mz_ef_sk/production/_ext/2027382860/udp.o
 .text.TCPIP_UDP_Put
                0x00000000       0x24 build/pic32mz_ef_sk/production/_ext/2027382860/udp.o
 .text.TCPIP_UDP_StringPut
                0x00000000       0x60 build/pic32mz_ef_sk/production/_ext/2027382860/udp.o
 .text.TCPIP_UDP_TxCountGet
                0x00000000       0x54 build/pic32mz_ef_sk/production/_ext/2027382860/udp.o
 .text.TCPIP_UDP_Get
                0x00000000       0x1c build/pic32mz_ef_sk/production/_ext/2027382860/udp.o
 .text.TCPIP_UDP_SocketNetGet
                0x00000000       0x28 build/pic32mz_ef_sk/production/_ext/2027382860/udp.o
 .text.TCPIP_UDP_RemoteBind
                0x00000000      0x11c build/pic32mz_ef_sk/production/_ext/2027382860/udp.o
 .text.TCPIP_UDP_SetSplitPayload
                0x00000000       0xc0 build/pic32mz_ef_sk/production/_ext/2027382860/udp.o
 .text.TCPIP_UDP_SignalHandlerDeregister
                0x00000000       0x48 build/pic32mz_ef_sk/production/_ext/2027382860/udp.o
 .text.TCPIP_UDP_SocketsNumberGet
                0x00000000        0x8 build/pic32mz_ef_sk/production/_ext/2027382860/udp.o
 .text          0x00000000        0x0 build/pic32mz_ef_sk/production/_ext/1098417660/plib_clk.o
 .data          0x00000000        0x0 build/pic32mz_ef_sk/production/_ext/1098417660/plib_clk.o
 .bss           0x00000000        0x0 build/pic32mz_ef_sk/production/_ext/1098417660/plib_clk.o
 .reginfo       0x00000000       0x18 build/pic32mz_ef_sk/production/_ext/1098417660/plib_clk.o
 .text          0x00000000        0x0 build/pic32mz_ef_sk/production/_ext/1710852712/plib_coretimer.o
 .data          0x00000000        0x0 build/pic32mz_ef_sk/production/_ext/1710852712/plib_coretimer.o
 .bss           0x00000000        0x0 build/pic32mz_ef_sk/production/_ext/1710852712/plib_coretimer.o
 .reginfo       0x00000000       0x18 build/pic32mz_ef_sk/production/_ext/1710852712/plib_coretimer.o
 .text.CORETIMER_DelayMs
                0x00000000       0x4c build/pic32mz_ef_sk/production/_ext/1710852712/plib_coretimer.o
 .text.CORETIMER_DelayUs
                0x00000000       0x3c build/pic32mz_ef_sk/production/_ext/1710852712/plib_coretimer.o
 .text          0x00000000        0x0 build/pic32mz_ef_sk/production/_ext/308860137/plib_evic.o
 .data          0x00000000        0x0 build/pic32mz_ef_sk/production/_ext/308860137/plib_evic.o
 .bss           0x00000000        0x0 build/pic32mz_ef_sk/production/_ext/308860137/plib_evic.o
 .reginfo       0x00000000       0x18 build/pic32mz_ef_sk/production/_ext/308860137/plib_evic.o
 .text.EVIC_SourceStatusGet
                0x00000000       0x20 build/pic32mz_ef_sk/production/_ext/308860137/plib_evic.o
 .text.EVIC_SourceStatusSet
                0x00000000       0x28 build/pic32mz_ef_sk/production/_ext/308860137/plib_evic.o
 .text          0x00000000        0x0 build/pic32mz_ef_sk/production/_ext/308913965/plib_gpio.o
 .data          0x00000000        0x0 build/pic32mz_ef_sk/production/_ext/308913965/plib_gpio.o
 .bss           0x00000000        0x0 build/pic32mz_ef_sk/production/_ext/308913965/plib_gpio.o
 .reginfo       0x00000000       0x18 build/pic32mz_ef_sk/production/_ext/308913965/plib_gpio.o
 .text.GPIO_PortRead
                0x00000000       0x18 build/pic32mz_ef_sk/production/_ext/308913965/plib_gpio.o
 .text.GPIO_PortWrite
                0x00000000       0x30 build/pic32mz_ef_sk/production/_ext/308913965/plib_gpio.o
 .text.GPIO_PortLatchRead
                0x00000000       0x18 build/pic32mz_ef_sk/production/_ext/308913965/plib_gpio.o
 .text.GPIO_PortSet
                0x00000000       0x1c build/pic32mz_ef_sk/production/_ext/308913965/plib_gpio.o
 .text.GPIO_PortClear
                0x00000000       0x1c build/pic32mz_ef_sk/production/_ext/308913965/plib_gpio.o
 .text.GPIO_PortToggle
                0x00000000       0x1c build/pic32mz_ef_sk/production/_ext/308913965/plib_gpio.o
 .text.GPIO_PortInputEnable
                0x00000000       0x1c build/pic32mz_ef_sk/production/_ext/308913965/plib_gpio.o
 .text.GPIO_PortOutputEnable
                0x00000000       0x1c build/pic32mz_ef_sk/production/_ext/308913965/plib_gpio.o
 .text          0x00000000        0x0 build/pic32mz_ef_sk/production/_ext/309316908/plib_uart2.o
 .data          0x00000000        0x0 build/pic32mz_ef_sk/production/_ext/309316908/plib_uart2.o
 .bss           0x00000000        0x0 build/pic32mz_ef_sk/production/_ext/309316908/plib_uart2.o
 .reginfo       0x00000000       0x18 build/pic32mz_ef_sk/production/_ext/309316908/plib_uart2.o
 .text.UART2_SerialSetup
                0x00000000      0x144 build/pic32mz_ef_sk/production/_ext/309316908/plib_uart2.o
 .text.UART2_ReadIsBusy
                0x00000000        0xc build/pic32mz_ef_sk/production/_ext/309316908/plib_uart2.o
 .text.UART2_ReadCountGet
                0x00000000        0xc build/pic32mz_ef_sk/production/_ext/309316908/plib_uart2.o
 .text.UART2_WriteIsBusy
                0x00000000        0xc build/pic32mz_ef_sk/production/_ext/309316908/plib_uart2.o
 .text.UART2_WriteCountGet
                0x00000000        0xc build/pic32mz_ef_sk/production/_ext/309316908/plib_uart2.o
 .text          0x00000000        0x0 build/pic32mz_ef_sk/production/_ext/458842868/xc32_monitor.o
 .data          0x00000000        0x0 build/pic32mz_ef_sk/production/_ext/458842868/xc32_monitor.o
 .bss           0x00000000        0x0 build/pic32mz_ef_sk/production/_ext/458842868/xc32_monitor.o
 .reginfo       0x00000000       0x18 build/pic32mz_ef_sk/production/_ext/458842868/xc32_monitor.o
 .text._mon_getc
                0x00000000        0x8 build/pic32mz_ef_sk/production/_ext/458842868/xc32_monitor.o
 .text          0x00000000        0x0 build/pic32mz_ef_sk/production/_ext/2135388491/sys_command.o
 .data          0x00000000        0x0 build/pic32mz_ef_sk/production/_ext/2135388491/sys_command.o
 .reginfo       0x00000000       0x18 build/pic32mz_ef_sk/production/_ext/2135388491/sys_command.o
 .text.SYS_CMDIO_GET_HANDLE
                0x00000000       0x2c build/pic32mz_ef_sk/production/_ext/2135388491/sys_command.o
 .text.SYS_CMD_DELETE
                0x00000000       0xa0 build/pic32mz_ef_sk/production/_ext/2135388491/sys_command.o
 .text          0x00000000        0x0 build/pic32mz_ef_sk/production/_ext/1702866625/sys_console.o
 .data          0x00000000        0x0 build/pic32mz_ef_sk/production/_ext/1702866625/sys_console.o
 .reginfo       0x00000000       0x18 build/pic32mz_ef_sk/production/_ext/1702866625/sys_console.o
 .text.SYS_CONSOLE_Tasks
                0x00000000       0x4c build/pic32mz_ef_sk/production/_ext/1702866625/sys_console.o
 .text.SYS_CONSOLE_Flush
                0x00000000       0x48 build/pic32mz_ef_sk/production/_ext/1702866625/sys_console.o
 .text          0x00000000        0x0 build/pic32mz_ef_sk/production/_ext/1702866625/sys_console_uart.o
 .data          0x00000000        0x0 build/pic32mz_ef_sk/production/_ext/1702866625/sys_console_uart.o
 .reginfo       0x00000000       0x18 build/pic32mz_ef_sk/production/_ext/1702866625/sys_console_uart.o
 .text          0x00000000        0x0 build/pic32mz_ef_sk/production/_ext/57023747/sys_debug.o
 .data          0x00000000        0x0 build/pic32mz_ef_sk/production/_ext/57023747/sys_debug.o
 .reginfo       0x00000000       0x18 build/pic32mz_ef_sk/production/_ext/57023747/sys_debug.o
 .text.SYS_DEBUG_Tasks
                0x00000000        0x8 build/pic32mz_ef_sk/production/_ext/57023747/sys_debug.o
 .text.SYS_DEBUG_Status
                0x00000000        0xc build/pic32mz_ef_sk/production/_ext/57023747/sys_debug.o
 .text.SYS_DEBUG_Message
                0x00000000       0x3c build/pic32mz_ef_sk/production/_ext/57023747/sys_debug.o
 .text.SYS_DEBUG_ErrorLevelSet
                0x00000000        0x8 build/pic32mz_ef_sk/production/_ext/57023747/sys_debug.o
 .text          0x00000000        0x0 build/pic32mz_ef_sk/production/_ext/723085273/sys_int.o
 .data          0x00000000        0x0 build/pic32mz_ef_sk/production/_ext/723085273/sys_int.o
 .bss           0x00000000        0x0 build/pic32mz_ef_sk/production/_ext/723085273/sys_int.o
 .reginfo       0x00000000       0x18 build/pic32mz_ef_sk/production/_ext/723085273/sys_int.o
 .text.SYS_INT_Enable
                0x00000000       0x18 build/pic32mz_ef_sk/production/_ext/723085273/sys_int.o
 .text          0x00000000        0x0 build/pic32mz_ef_sk/production/_ext/1658225107/sys_time.o
 .data          0x00000000        0x0 build/pic32mz_ef_sk/production/_ext/1658225107/sys_time.o
 .reginfo       0x00000000       0x18 build/pic32mz_ef_sk/production/_ext/1658225107/sys_time.o
 .text.SYS_TIME_Deinitialize
                0x00000000       0x98 build/pic32mz_ef_sk/production/_ext/1658225107/sys_time.o
 .text.SYS_TIME_Status
                0x00000000       0x20 build/pic32mz_ef_sk/production/_ext/1658225107/sys_time.o
 .text.SYS_TIME_CounterGet
                0x00000000       0x1c build/pic32mz_ef_sk/production/_ext/1658225107/sys_time.o
 .text.SYS_TIME_CounterSet
                0x00000000       0x44 build/pic32mz_ef_sk/production/_ext/1658225107/sys_time.o
 .text.SYS_TIME_CountToUS
                0x00000000       0x70 build/pic32mz_ef_sk/production/_ext/1658225107/sys_time.o
 .text.SYS_TIME_CountToMS
                0x00000000       0x70 build/pic32mz_ef_sk/production/_ext/1658225107/sys_time.o
 .text.SYS_TIME_USToCount
                0x00000000       0x6c build/pic32mz_ef_sk/production/_ext/1658225107/sys_time.o
 .text.SYS_TIME_TimerCreate
                0x00000000       0x38 build/pic32mz_ef_sk/production/_ext/1658225107/sys_time.o
 .text.SYS_TIME_TimerReload
                0x00000000      0x118 build/pic32mz_ef_sk/production/_ext/1658225107/sys_time.o
 .text.SYS_TIME_TimerStop
                0x00000000       0x84 build/pic32mz_ef_sk/production/_ext/1658225107/sys_time.o
 .text.SYS_TIME_TimerCounterGet
                0x00000000       0xf0 build/pic32mz_ef_sk/production/_ext/1658225107/sys_time.o
 .text.SYS_TIME_TimerPeriodHasExpired
                0x00000000       0x5c build/pic32mz_ef_sk/production/_ext/1658225107/sys_time.o
 .text.SYS_TIME_DelayUS
                0x00000000       0x74 build/pic32mz_ef_sk/production/_ext/1658225107/sys_time.o
 .text.SYS_TIME_DelayMS
                0x00000000       0x74 build/pic32mz_ef_sk/production/_ext/1658225107/sys_time.o
 .text.SYS_TIME_DelayIsComplete
                0x00000000       0x3c build/pic32mz_ef_sk/production/_ext/1658225107/sys_time.o
 .text.SYS_TIME_CallbackRegisterUS
                0x00000000       0x98 build/pic32mz_ef_sk/production/_ext/1658225107/sys_time.o
 .text          0x00000000        0x0 build/pic32mz_ef_sk/production/_ext/1344301860/sys_time_h2_adapter.o
 .data          0x00000000        0x0 build/pic32mz_ef_sk/production/_ext/1344301860/sys_time_h2_adapter.o
 .bss           0x00000000        0x0 build/pic32mz_ef_sk/production/_ext/1344301860/sys_time_h2_adapter.o
 .reginfo       0x00000000       0x18 build/pic32mz_ef_sk/production/_ext/1344301860/sys_time_h2_adapter.o
 .text          0x00000000        0x0 build/pic32mz_ef_sk/production/_ext/942849350/tasks.o
 .data          0x00000000        0x0 build/pic32mz_ef_sk/production/_ext/942849350/tasks.o
 .bss           0x00000000        0x0 build/pic32mz_ef_sk/production/_ext/942849350/tasks.o
 .reginfo       0x00000000       0x18 build/pic32mz_ef_sk/production/_ext/942849350/tasks.o
 .text          0x00000000        0x0 build/pic32mz_ef_sk/production/_ext/942849350/initialization.o
 .reginfo       0x00000000       0x18 build/pic32mz_ef_sk/production/_ext/942849350/initialization.o
 .text          0x00000000        0x0 build/pic32mz_ef_sk/production/_ext/942849350/interrupts.o
 .data          0x00000000        0x0 build/pic32mz_ef_sk/production/_ext/942849350/interrupts.o
 .bss           0x00000000        0x0 build/pic32mz_ef_sk/production/_ext/942849350/interrupts.o
 .reginfo       0x00000000       0x18 build/pic32mz_ef_sk/production/_ext/942849350/interrupts.o
 .text          0x00000000        0x0 build/pic32mz_ef_sk/production/_ext/942849350/exceptions.o
 .data          0x00000000        0x0 build/pic32mz_ef_sk/production/_ext/942849350/exceptions.o
 .bss           0x00000000        0x0 build/pic32mz_ef_sk/production/_ext/942849350/exceptions.o
 .reginfo       0x00000000       0x18 build/pic32mz_ef_sk/production/_ext/942849350/exceptions.o
 .text          0x00000000        0x0 build/pic32mz_ef_sk/production/_ext/1360937237/app.o
 .data          0x00000000        0x0 build/pic32mz_ef_sk/production/_ext/1360937237/app.o
 .bss           0x00000000        0x0 build/pic32mz_ef_sk/production/_ext/1360937237/app.o
 .reginfo       0x00000000       0x18 build/pic32mz_ef_sk/production/_ext/1360937237/app.o
 .text          0x00000000        0x0 build/pic32mz_ef_sk/production/_ext/1360937237/main.o
 .data          0x00000000        0x0 build/pic32mz_ef_sk/production/_ext/1360937237/main.o
 .bss           0x00000000        0x0 build/pic32mz_ef_sk/production/_ext/1360937237/main.o
 .reginfo       0x00000000       0x18 build/pic32mz_ef_sk/production/_ext/1360937237/main.o
 .text          0x00000000        0x0 build/pic32mz_ef_sk/production/_ext/108032392/dialtek_modbus.o
 .data          0x00000000        0x0 build/pic32mz_ef_sk/production/_ext/108032392/dialtek_modbus.o
 .reginfo       0x00000000       0x18 build/pic32mz_ef_sk/production/_ext/108032392/dialtek_modbus.o
 .text.is_reg   0x00000000       0x54 build/pic32mz_ef_sk/production/_ext/108032392/dialtek_modbus.o
 .text.modbus_reset
                0x00000000       0x1c build/pic32mz_ef_sk/production/_ext/108032392/dialtek_modbus.o
 .text.holding_reg_write
                0x00000000       0x18 build/pic32mz_ef_sk/production/_ext/108032392/dialtek_modbus.o
 .text.input_reg_read
                0x00000000       0x18 build/pic32mz_ef_sk/production/_ext/108032392/dialtek_modbus.o
 .text.get_modbus_id
                0x00000000        0x8 build/pic32mz_ef_sk/production/_ext/108032392/dialtek_modbus.o
 .text.set_modbus_id
                0x00000000       0x1c build/pic32mz_ef_sk/production/_ext/108032392/dialtek_modbus.o
 .rodata        0x00000000        0x3 build/pic32mz_ef_sk/production/_ext/108032392/dialtek_modbus.o
 .text          0x00000000        0x0 build/pic32mz_ef_sk/production/_ext/1360937237/tcp_app.o
 .data          0x00000000        0x0 build/pic32mz_ef_sk/production/_ext/1360937237/tcp_app.o
 .bss           0x00000000        0x0 build/pic32mz_ef_sk/production/_ext/1360937237/tcp_app.o
 .reginfo       0x00000000       0x18 build/pic32mz_ef_sk/production/_ext/1360937237/tcp_app.o
 .text.get_tcp_app_state
                0x00000000        0x8 build/pic32mz_ef_sk/production/_ext/1360937237/tcp_app.o
 .text.tcp_app_get_alternative_ip
                0x00000000       0x10 build/pic32mz_ef_sk/production/_ext/1360937237/tcp_app.o
 .text.tcp_app_get_alternative_ip_mask
                0x00000000       0x10 build/pic32mz_ef_sk/production/_ext/1360937237/tcp_app.o
 .text.tcp_app_get_alternative_ip_gateway
                0x00000000       0x10 build/pic32mz_ef_sk/production/_ext/1360937237/tcp_app.o
 .text.tcp_app_get_default_ip
                0x00000000       0x10 build/pic32mz_ef_sk/production/_ext/1360937237/tcp_app.o
 .text.tcp_app_get_default_ip_mask
                0x00000000       0x10 build/pic32mz_ef_sk/production/_ext/1360937237/tcp_app.o
 .text.tcp_app_get_default_ip_gateway
                0x00000000       0x10 build/pic32mz_ef_sk/production/_ext/1360937237/tcp_app.o
 .text          0x00000000        0x0 build/pic32mz_ef_sk/production/_ext/1360937237/modbus_buf.o
 .data          0x00000000        0x0 build/pic32mz_ef_sk/production/_ext/1360937237/modbus_buf.o
 .bss           0x00000000        0x0 build/pic32mz_ef_sk/production/_ext/1360937237/modbus_buf.o
 .reginfo       0x00000000       0x18 build/pic32mz_ef_sk/production/_ext/1360937237/modbus_buf.o
 .text.modbus_rx_buf_add
                0x00000000       0x50 build/pic32mz_ef_sk/production/_ext/1360937237/modbus_buf.o
 .text          0x00000000        0x0 C:\Users\Reg\AppData\Local\Temp\ccyBwbgZ.o
 .data          0x00000000        0x0 C:\Users\Reg\AppData\Local\Temp\ccyBwbgZ.o
 .bss           0x00000000        0x0 C:\Users\Reg\AppData\Local\Temp\ccyBwbgZ.o
 .reginfo       0x00000000       0x18 C:\Users\Reg\AppData\Local\Temp\ccyBwbgZ.o
 .text          0x00000000        0x0 C:\Users\Reg\AppData\Local\Temp\ccuKqiWj.o
 .data          0x00000000        0x0 C:\Users\Reg\AppData\Local\Temp\ccuKqiWj.o
 .bss           0x00000000        0x0 C:\Users\Reg\AppData\Local\Temp\ccuKqiWj.o
 .reginfo       0x00000000       0x18 C:\Users\Reg\AppData\Local\Temp\ccuKqiWj.o
 .text          0x00000000        0x0 C:\Users\Reg\AppData\Local\Temp\ccyzeYAh.o
 .data          0x00000000        0x0 C:\Users\Reg\AppData\Local\Temp\ccyzeYAh.o
 .bss           0x00000000        0x0 C:\Users\Reg\AppData\Local\Temp\ccyzeYAh.o
 .reginfo       0x00000000       0x18 C:\Users\Reg\AppData\Local\Temp\ccyzeYAh.o
 .discard       0x00000000        0x4 C:\Users\Reg\AppData\Local\Temp\ccyzeYAh.o
 .data          0x00000000        0x0 c:/program files (x86)/microchip/xc32/v2.30/bin/bin/../../lib/gcc/pic32mx/4.8.3/../../../../pic32mx/lib/fpu64\pic32_software_reset.o
 .bss           0x00000000        0x0 c:/program files (x86)/microchip/xc32/v2.30/bin/bin/../../lib/gcc/pic32mx/4.8.3/../../../../pic32mx/lib/fpu64\pic32_software_reset.o
 .reginfo       0x00000000       0x18 c:/program files (x86)/microchip/xc32/v2.30/bin/bin/../../lib/gcc/pic32mx/4.8.3/../../../../pic32mx/lib/fpu64\pic32_software_reset.o
 .text          0x00000000        0x0 c:/program files (x86)/microchip/xc32/v2.30/bin/bin/../../lib/gcc/pic32mx/4.8.3/../../../../pic32mx/lib/./proc/32MZ2048EFH144\processor.o
 .data          0x00000000        0x0 c:/program files (x86)/microchip/xc32/v2.30/bin/bin/../../lib/gcc/pic32mx/4.8.3/../../../../pic32mx/lib/./proc/32MZ2048EFH144\processor.o
 .bss           0x00000000        0x0 c:/program files (x86)/microchip/xc32/v2.30/bin/bin/../../lib/gcc/pic32mx/4.8.3/../../../../pic32mx/lib/./proc/32MZ2048EFH144\processor.o
 .reginfo       0x00000000       0x18 c:/program files (x86)/microchip/xc32/v2.30/bin/bin/../../lib/gcc/pic32mx/4.8.3/../../../../pic32mx/lib/./proc/32MZ2048EFH144\processor.o
 .text          0x00000000        0x0 c:/program files (x86)/microchip/xc32/v2.30/bin/bin/../../lib/gcc/pic32mx/4.8.3/../../../../pic32mx/lib/./proc/32MZ2048EFH144\vector_offset_init.o
 .data          0x00000000        0x0 c:/program files (x86)/microchip/xc32/v2.30/bin/bin/../../lib/gcc/pic32mx/4.8.3/../../../../pic32mx/lib/./proc/32MZ2048EFH144\vector_offset_init.o
 .bss           0x00000000        0x0 c:/program files (x86)/microchip/xc32/v2.30/bin/bin/../../lib/gcc/pic32mx/4.8.3/../../../../pic32mx/lib/./proc/32MZ2048EFH144\vector_offset_init.o
 .reginfo       0x00000000       0x18 c:/program files (x86)/microchip/xc32/v2.30/bin/bin/../../lib/gcc/pic32mx/4.8.3/../../../../pic32mx/lib/./proc/32MZ2048EFH144\vector_offset_init.o
 .data          0x00000000        0x0 c:/program files (x86)/microchip/xc32/v2.30/bin/bin/../../lib/gcc/pic32mx/4.8.3/fpu64\libgcc.a(_udivdi3.o)
 .bss           0x00000000        0x0 c:/program files (x86)/microchip/xc32/v2.30/bin/bin/../../lib/gcc/pic32mx/4.8.3/fpu64\libgcc.a(_udivdi3.o)
 .reginfo       0x00000000       0x18 c:/program files (x86)/microchip/xc32/v2.30/bin/bin/../../lib/gcc/pic32mx/4.8.3/fpu64\libgcc.a(_udivdi3.o)
 .data          0x00000000        0x0 c:/program files (x86)/microchip/xc32/v2.30/bin/bin/../../lib/gcc/pic32mx/4.8.3/../../../../pic32mx/lib/fpu64\libpic32.a(memcmp.o)
 .bss           0x00000000        0x0 c:/program files (x86)/microchip/xc32/v2.30/bin/bin/../../lib/gcc/pic32mx/4.8.3/../../../../pic32mx/lib/fpu64\libpic32.a(memcmp.o)
 .reginfo       0x00000000       0x18 c:/program files (x86)/microchip/xc32/v2.30/bin/bin/../../lib/gcc/pic32mx/4.8.3/../../../../pic32mx/lib/fpu64\libpic32.a(memcmp.o)
 .data          0x00000000        0x0 c:/program files (x86)/microchip/xc32/v2.30/bin/bin/../../lib/gcc/pic32mx/4.8.3/../../../../pic32mx/lib/fpu64\libpic32.a(memcpy.o)
 .bss           0x00000000        0x0 c:/program files (x86)/microchip/xc32/v2.30/bin/bin/../../lib/gcc/pic32mx/4.8.3/../../../../pic32mx/lib/fpu64\libpic32.a(memcpy.o)
 .reginfo       0x00000000       0x18 c:/program files (x86)/microchip/xc32/v2.30/bin/bin/../../lib/gcc/pic32mx/4.8.3/../../../../pic32mx/lib/fpu64\libpic32.a(memcpy.o)
 .data          0x00000000        0x0 c:/program files (x86)/microchip/xc32/v2.30/bin/bin/../../lib/gcc/pic32mx/4.8.3/../../../../pic32mx/lib/fpu64\libpic32.a(memset.o)
 .bss           0x00000000        0x0 c:/program files (x86)/microchip/xc32/v2.30/bin/bin/../../lib/gcc/pic32mx/4.8.3/../../../../pic32mx/lib/fpu64\libpic32.a(memset.o)
 .reginfo       0x00000000       0x18 c:/program files (x86)/microchip/xc32/v2.30/bin/bin/../../lib/gcc/pic32mx/4.8.3/../../../../pic32mx/lib/fpu64\libpic32.a(memset.o)
 .data          0x00000000        0x0 c:/program files (x86)/microchip/xc32/v2.30/bin/bin/../../lib/gcc/pic32mx/4.8.3/../../../../pic32mx/lib/fpu64\libpic32.a(strcmp.o)
 .bss           0x00000000        0x0 c:/program files (x86)/microchip/xc32/v2.30/bin/bin/../../lib/gcc/pic32mx/4.8.3/../../../../pic32mx/lib/fpu64\libpic32.a(strcmp.o)
 .reginfo       0x00000000       0x18 c:/program files (x86)/microchip/xc32/v2.30/bin/bin/../../lib/gcc/pic32mx/4.8.3/../../../../pic32mx/lib/fpu64\libpic32.a(strcmp.o)
 .data          0x00000000        0x0 c:/program files (x86)/microchip/xc32/v2.30/bin/bin/../../lib/gcc/pic32mx/4.8.3/../../../../pic32mx/lib/fpu64\libpic32.a(strcpy.o)
 .bss           0x00000000        0x0 c:/program files (x86)/microchip/xc32/v2.30/bin/bin/../../lib/gcc/pic32mx/4.8.3/../../../../pic32mx/lib/fpu64\libpic32.a(strcpy.o)
 .reginfo       0x00000000       0x18 c:/program files (x86)/microchip/xc32/v2.30/bin/bin/../../lib/gcc/pic32mx/4.8.3/../../../../pic32mx/lib/fpu64\libpic32.a(strcpy.o)
 .data          0x00000000        0x0 c:/program files (x86)/microchip/xc32/v2.30/bin/bin/../../lib/gcc/pic32mx/4.8.3/../../../../pic32mx/lib/fpu64\libpic32.a(strlen.o)
 .bss           0x00000000        0x0 c:/program files (x86)/microchip/xc32/v2.30/bin/bin/../../lib/gcc/pic32mx/4.8.3/../../../../pic32mx/lib/fpu64\libpic32.a(strlen.o)
 .reginfo       0x00000000       0x18 c:/program files (x86)/microchip/xc32/v2.30/bin/bin/../../lib/gcc/pic32mx/4.8.3/../../../../pic32mx/lib/fpu64\libpic32.a(strlen.o)
 .text          0x00000000        0x0 c:/program files (x86)/microchip/xc32/v2.30/bin/bin/../../lib/gcc/pic32mx/4.8.3/../../../../pic32mx/lib/fpu64\libpic32.a(default-bootstrap-exception-handler.o)
 .data          0x00000000        0x0 c:/program files (x86)/microchip/xc32/v2.30/bin/bin/../../lib/gcc/pic32mx/4.8.3/../../../../pic32mx/lib/fpu64\libpic32.a(default-bootstrap-exception-handler.o)
 .bss           0x00000000        0x0 c:/program files (x86)/microchip/xc32/v2.30/bin/bin/../../lib/gcc/pic32mx/4.8.3/../../../../pic32mx/lib/fpu64\libpic32.a(default-bootstrap-exception-handler.o)
 .reginfo       0x00000000       0x18 c:/program files (x86)/microchip/xc32/v2.30/bin/bin/../../lib/gcc/pic32mx/4.8.3/../../../../pic32mx/lib/fpu64\libpic32.a(default-bootstrap-exception-handler.o)
 .text          0x00000000        0x0 c:/program files (x86)/microchip/xc32/v2.30/bin/bin/../../lib/gcc/pic32mx/4.8.3/../../../../pic32mx/lib/fpu64\libpic32.a(default-on-reset.o)
 .data          0x00000000        0x0 c:/program files (x86)/microchip/xc32/v2.30/bin/bin/../../lib/gcc/pic32mx/4.8.3/../../../../pic32mx/lib/fpu64\libpic32.a(default-on-reset.o)
 .bss           0x00000000        0x0 c:/program files (x86)/microchip/xc32/v2.30/bin/bin/../../lib/gcc/pic32mx/4.8.3/../../../../pic32mx/lib/fpu64\libpic32.a(default-on-reset.o)
 .reginfo       0x00000000       0x18 c:/program files (x86)/microchip/xc32/v2.30/bin/bin/../../lib/gcc/pic32mx/4.8.3/../../../../pic32mx/lib/fpu64\libpic32.a(default-on-reset.o)
 .text          0x00000000        0x0 c:/program files (x86)/microchip/xc32/v2.30/bin/bin/../../lib/gcc/pic32mx/4.8.3/../../../../pic32mx/lib/fpu64\libpic32.a(default-on-bootstrap.o)
 .data          0x00000000        0x0 c:/program files (x86)/microchip/xc32/v2.30/bin/bin/../../lib/gcc/pic32mx/4.8.3/../../../../pic32mx/lib/fpu64\libpic32.a(default-on-bootstrap.o)
 .bss           0x00000000        0x0 c:/program files (x86)/microchip/xc32/v2.30/bin/bin/../../lib/gcc/pic32mx/4.8.3/../../../../pic32mx/lib/fpu64\libpic32.a(default-on-bootstrap.o)
 .reginfo       0x00000000       0x18 c:/program files (x86)/microchip/xc32/v2.30/bin/bin/../../lib/gcc/pic32mx/4.8.3/../../../../pic32mx/lib/fpu64\libpic32.a(default-on-bootstrap.o)
 .data          0x00000000        0x0 c:/program files (x86)/microchip/xc32/v2.30/bin/bin/../../lib/gcc/pic32mx/4.8.3/../../../../pic32mx/lib/fpu64\libpic32.a(default-nmi-handler.o)
 .bss           0x00000000        0x0 c:/program files (x86)/microchip/xc32/v2.30/bin/bin/../../lib/gcc/pic32mx/4.8.3/../../../../pic32mx/lib/fpu64\libpic32.a(default-nmi-handler.o)
 .reginfo       0x00000000       0x18 c:/program files (x86)/microchip/xc32/v2.30/bin/bin/../../lib/gcc/pic32mx/4.8.3/../../../../pic32mx/lib/fpu64\libpic32.a(default-nmi-handler.o)
 .data          0x00000000        0x0 c:/program files (x86)/microchip/xc32/v2.30/bin/bin/../../lib/gcc/pic32mx/4.8.3/../../../../pic32mx/lib/fpu64\libpic32.a(pic32_data_init.o)
 .bss           0x00000000        0x0 c:/program files (x86)/microchip/xc32/v2.30/bin/bin/../../lib/gcc/pic32mx/4.8.3/../../../../pic32mx/lib/fpu64\libpic32.a(pic32_data_init.o)
 .reginfo       0x00000000       0x18 c:/program files (x86)/microchip/xc32/v2.30/bin/bin/../../lib/gcc/pic32mx/4.8.3/../../../../pic32mx/lib/fpu64\libpic32.a(pic32_data_init.o)
 .text          0x00000000        0x0 c:/program files (x86)/microchip/xc32/v2.30/bin/bin/../../lib/gcc/pic32mx/4.8.3/../../../../pic32mx/lib/fpu64\libpic32.a(pic32_init_cache.o)
 .data          0x00000000        0x0 c:/program files (x86)/microchip/xc32/v2.30/bin/bin/../../lib/gcc/pic32mx/4.8.3/../../../../pic32mx/lib/fpu64\libpic32.a(pic32_init_cache.o)
 .bss           0x00000000        0x0 c:/program files (x86)/microchip/xc32/v2.30/bin/bin/../../lib/gcc/pic32mx/4.8.3/../../../../pic32mx/lib/fpu64\libpic32.a(pic32_init_cache.o)
 .reginfo       0x00000000       0x18 c:/program files (x86)/microchip/xc32/v2.30/bin/bin/../../lib/gcc/pic32mx/4.8.3/../../../../pic32mx/lib/fpu64\libpic32.a(pic32_init_cache.o)
 .cache_init.pic32_size_cache
                0x00000000       0x58 c:/program files (x86)/microchip/xc32/v2.30/bin/bin/../../lib/gcc/pic32mx/4.8.3/../../../../pic32mx/lib/fpu64\libpic32.a(pic32_init_cache.o)
 .text          0x00000000        0x0 c:/program files (x86)/microchip/xc32/v2.30/bin/bin/../../lib/gcc/pic32mx/4.8.3/../../../../pic32mx/lib/fpu64\libpic32.a(pic32_init_tlb_ebi_sqi.o)
 .data          0x00000000        0x0 c:/program files (x86)/microchip/xc32/v2.30/bin/bin/../../lib/gcc/pic32mx/4.8.3/../../../../pic32mx/lib/fpu64\libpic32.a(pic32_init_tlb_ebi_sqi.o)
 .bss           0x00000000        0x0 c:/program files (x86)/microchip/xc32/v2.30/bin/bin/../../lib/gcc/pic32mx/4.8.3/../../../../pic32mx/lib/fpu64\libpic32.a(pic32_init_tlb_ebi_sqi.o)
 .reginfo       0x00000000       0x18 c:/program files (x86)/microchip/xc32/v2.30/bin/bin/../../lib/gcc/pic32mx/4.8.3/../../../../pic32mx/lib/fpu64\libpic32.a(pic32_init_tlb_ebi_sqi.o)
 .text          0x00000000        0x0 c:/program files (x86)/microchip/xc32/v2.30/bin/bin/../../lib/gcc/pic32mx/4.8.3/../../../../pic32mx/lib/fpu64\libpic32.a(general-exception.o)
 .data          0x00000000        0x0 c:/program files (x86)/microchip/xc32/v2.30/bin/bin/../../lib/gcc/pic32mx/4.8.3/../../../../pic32mx/lib/fpu64\libpic32.a(general-exception.o)
 .bss           0x00000000        0x0 c:/program files (x86)/microchip/xc32/v2.30/bin/bin/../../lib/gcc/pic32mx/4.8.3/../../../../pic32mx/lib/fpu64\libpic32.a(general-exception.o)
 .reginfo       0x00000000       0x18 c:/program files (x86)/microchip/xc32/v2.30/bin/bin/../../lib/gcc/pic32mx/4.8.3/../../../../pic32mx/lib/fpu64\libpic32.a(general-exception.o)
 .text          0x00000000        0x0 c:/program files (x86)/microchip/xc32/v2.30/bin/bin/../../lib/gcc/pic32mx/4.8.3/../../../../pic32mx/lib/fpu64\libpic32.a(cache-err-exception.o)
 .data          0x00000000        0x0 c:/program files (x86)/microchip/xc32/v2.30/bin/bin/../../lib/gcc/pic32mx/4.8.3/../../../../pic32mx/lib/fpu64\libpic32.a(cache-err-exception.o)
 .bss           0x00000000        0x0 c:/program files (x86)/microchip/xc32/v2.30/bin/bin/../../lib/gcc/pic32mx/4.8.3/../../../../pic32mx/lib/fpu64\libpic32.a(cache-err-exception.o)
 .reginfo       0x00000000       0x18 c:/program files (x86)/microchip/xc32/v2.30/bin/bin/../../lib/gcc/pic32mx/4.8.3/../../../../pic32mx/lib/fpu64\libpic32.a(cache-err-exception.o)
 .text          0x00000000        0x0 c:/program files (x86)/microchip/xc32/v2.30/bin/bin/../../lib/gcc/pic32mx/4.8.3/../../../../pic32mx/lib/fpu64\libpic32.a(simple-tlb-refill-exception.o)
 .data          0x00000000        0x0 c:/program files (x86)/microchip/xc32/v2.30/bin/bin/../../lib/gcc/pic32mx/4.8.3/../../../../pic32mx/lib/fpu64\libpic32.a(simple-tlb-refill-exception.o)
 .bss           0x00000000        0x0 c:/program files (x86)/microchip/xc32/v2.30/bin/bin/../../lib/gcc/pic32mx/4.8.3/../../../../pic32mx/lib/fpu64\libpic32.a(simple-tlb-refill-exception.o)
 .reginfo       0x00000000       0x18 c:/program files (x86)/microchip/xc32/v2.30/bin/bin/../../lib/gcc/pic32mx/4.8.3/../../../../pic32mx/lib/fpu64\libpic32.a(simple-tlb-refill-exception.o)
 .text          0x00000000        0x0 c:/program files (x86)/microchip/xc32/v2.30/bin/bin/../../lib/gcc/pic32mx/4.8.3/../../../../pic32mx/lib/fpu64\libpic32.a(defaultinterrupt.o)
 .data          0x00000000        0x0 c:/program files (x86)/microchip/xc32/v2.30/bin/bin/../../lib/gcc/pic32mx/4.8.3/../../../../pic32mx/lib/fpu64\libpic32.a(defaultinterrupt.o)
 .bss           0x00000000        0x0 c:/program files (x86)/microchip/xc32/v2.30/bin/bin/../../lib/gcc/pic32mx/4.8.3/../../../../pic32mx/lib/fpu64\libpic32.a(defaultinterrupt.o)
 .reginfo       0x00000000       0x18 c:/program files (x86)/microchip/xc32/v2.30/bin/bin/../../lib/gcc/pic32mx/4.8.3/../../../../pic32mx/lib/fpu64\libpic32.a(defaultinterrupt.o)
 .text          0x00000000        0x0 c:/program files (x86)/microchip/xc32/v2.30/bin/bin/../../lib/gcc/pic32mx/4.8.3/../../../../pic32mx/lib/fpu64\libpic32.a(default-cache-err-exception-handler.o)
 .data          0x00000000        0x0 c:/program files (x86)/microchip/xc32/v2.30/bin/bin/../../lib/gcc/pic32mx/4.8.3/../../../../pic32mx/lib/fpu64\libpic32.a(default-cache-err-exception-handler.o)
 .bss           0x00000000        0x0 c:/program files (x86)/microchip/xc32/v2.30/bin/bin/../../lib/gcc/pic32mx/4.8.3/../../../../pic32mx/lib/fpu64\libpic32.a(default-cache-err-exception-handler.o)
 .reginfo       0x00000000       0x18 c:/program files (x86)/microchip/xc32/v2.30/bin/bin/../../lib/gcc/pic32mx/4.8.3/../../../../pic32mx/lib/fpu64\libpic32.a(default-cache-err-exception-handler.o)
 .text          0x00000000        0x0 c:/program files (x86)/microchip/xc32/v2.30/bin/bin/../../lib/gcc/pic32mx/4.8.3/../../../../pic32mx/lib/fpu64\libpic32.a(default-simple-tlb-refill-exception-handler.o)
 .data          0x00000000        0x0 c:/program files (x86)/microchip/xc32/v2.30/bin/bin/../../lib/gcc/pic32mx/4.8.3/../../../../pic32mx/lib/fpu64\libpic32.a(default-simple-tlb-refill-exception-handler.o)
 .bss           0x00000000        0x0 c:/program files (x86)/microchip/xc32/v2.30/bin/bin/../../lib/gcc/pic32mx/4.8.3/../../../../pic32mx/lib/fpu64\libpic32.a(default-simple-tlb-refill-exception-handler.o)
 .reginfo       0x00000000       0x18 c:/program files (x86)/microchip/xc32/v2.30/bin/bin/../../lib/gcc/pic32mx/4.8.3/../../../../pic32mx/lib/fpu64\libpic32.a(default-simple-tlb-refill-exception-handler.o)
 .text          0x00000000        0x0 c:/program files (x86)/microchip/xc32/v2.30/bin/bin/../../lib/gcc/pic32mx/4.8.3/../../../../pic32mx/lib/fpu64\libc.a(atoi.o)
 .data          0x00000000        0x0 c:/program files (x86)/microchip/xc32/v2.30/bin/bin/../../lib/gcc/pic32mx/4.8.3/../../../../pic32mx/lib/fpu64\libc.a(atoi.o)
 .bss           0x00000000        0x0 c:/program files (x86)/microchip/xc32/v2.30/bin/bin/../../lib/gcc/pic32mx/4.8.3/../../../../pic32mx/lib/fpu64\libc.a(atoi.o)
 .reginfo       0x00000000       0x18 c:/program files (x86)/microchip/xc32/v2.30/bin/bin/../../lib/gcc/pic32mx/4.8.3/../../../../pic32mx/lib/fpu64\libc.a(atoi.o)
 .text          0x00000000        0x0 c:/program files (x86)/microchip/xc32/v2.30/bin/bin/../../lib/gcc/pic32mx/4.8.3/../../../../pic32mx/lib/fpu64\libc.a(calloc.o)
 .data          0x00000000        0x0 c:/program files (x86)/microchip/xc32/v2.30/bin/bin/../../lib/gcc/pic32mx/4.8.3/../../../../pic32mx/lib/fpu64\libc.a(calloc.o)
 .bss           0x00000000        0x0 c:/program files (x86)/microchip/xc32/v2.30/bin/bin/../../lib/gcc/pic32mx/4.8.3/../../../../pic32mx/lib/fpu64\libc.a(calloc.o)
 .reginfo       0x00000000       0x18 c:/program files (x86)/microchip/xc32/v2.30/bin/bin/../../lib/gcc/pic32mx/4.8.3/../../../../pic32mx/lib/fpu64\libc.a(calloc.o)
 .text          0x00000000        0x0 c:/program files (x86)/microchip/xc32/v2.30/bin/bin/../../lib/gcc/pic32mx/4.8.3/../../../../pic32mx/lib/fpu64\libc.a(ctype.o)
 .data          0x00000000        0x0 c:/program files (x86)/microchip/xc32/v2.30/bin/bin/../../lib/gcc/pic32mx/4.8.3/../../../../pic32mx/lib/fpu64\libc.a(ctype.o)
 .bss           0x00000000        0x0 c:/program files (x86)/microchip/xc32/v2.30/bin/bin/../../lib/gcc/pic32mx/4.8.3/../../../../pic32mx/lib/fpu64\libc.a(ctype.o)
 .reginfo       0x00000000       0x18 c:/program files (x86)/microchip/xc32/v2.30/bin/bin/../../lib/gcc/pic32mx/4.8.3/../../../../pic32mx/lib/fpu64\libc.a(ctype.o)
 .text          0x00000000        0x0 c:/program files (x86)/microchip/xc32/v2.30/bin/bin/../../lib/gcc/pic32mx/4.8.3/../../../../pic32mx/lib/fpu64\libc.a(ctypef.o)
 .data          0x00000000        0x0 c:/program files (x86)/microchip/xc32/v2.30/bin/bin/../../lib/gcc/pic32mx/4.8.3/../../../../pic32mx/lib/fpu64\libc.a(ctypef.o)
 .bss           0x00000000        0x0 c:/program files (x86)/microchip/xc32/v2.30/bin/bin/../../lib/gcc/pic32mx/4.8.3/../../../../pic32mx/lib/fpu64\libc.a(ctypef.o)
 .reginfo       0x00000000       0x18 c:/program files (x86)/microchip/xc32/v2.30/bin/bin/../../lib/gcc/pic32mx/4.8.3/../../../../pic32mx/lib/fpu64\libc.a(ctypef.o)
 .text.tolower  0x00000000       0x24 c:/program files (x86)/microchip/xc32/v2.30/bin/bin/../../lib/gcc/pic32mx/4.8.3/../../../../pic32mx/lib/fpu64\libc.a(ctypef.o)
 .text.isalnum  0x00000000       0x18 c:/program files (x86)/microchip/xc32/v2.30/bin/bin/../../lib/gcc/pic32mx/4.8.3/../../../../pic32mx/lib/fpu64\libc.a(ctypef.o)
 .text.isalpha  0x00000000       0x18 c:/program files (x86)/microchip/xc32/v2.30/bin/bin/../../lib/gcc/pic32mx/4.8.3/../../../../pic32mx/lib/fpu64\libc.a(ctypef.o)
 .text.isascii  0x00000000        0x8 c:/program files (x86)/microchip/xc32/v2.30/bin/bin/../../lib/gcc/pic32mx/4.8.3/../../../../pic32mx/lib/fpu64\libc.a(ctypef.o)
 .text.iscntrl  0x00000000       0x18 c:/program files (x86)/microchip/xc32/v2.30/bin/bin/../../lib/gcc/pic32mx/4.8.3/../../../../pic32mx/lib/fpu64\libc.a(ctypef.o)
 .text.isdigit  0x00000000       0x18 c:/program files (x86)/microchip/xc32/v2.30/bin/bin/../../lib/gcc/pic32mx/4.8.3/../../../../pic32mx/lib/fpu64\libc.a(ctypef.o)
 .text.isgraph  0x00000000       0x18 c:/program files (x86)/microchip/xc32/v2.30/bin/bin/../../lib/gcc/pic32mx/4.8.3/../../../../pic32mx/lib/fpu64\libc.a(ctypef.o)
 .text.islower  0x00000000       0x18 c:/program files (x86)/microchip/xc32/v2.30/bin/bin/../../lib/gcc/pic32mx/4.8.3/../../../../pic32mx/lib/fpu64\libc.a(ctypef.o)
 .text.isprint  0x00000000       0x18 c:/program files (x86)/microchip/xc32/v2.30/bin/bin/../../lib/gcc/pic32mx/4.8.3/../../../../pic32mx/lib/fpu64\libc.a(ctypef.o)
 .text.ispunct  0x00000000       0x18 c:/program files (x86)/microchip/xc32/v2.30/bin/bin/../../lib/gcc/pic32mx/4.8.3/../../../../pic32mx/lib/fpu64\libc.a(ctypef.o)
 .text.isspace  0x00000000       0x18 c:/program files (x86)/microchip/xc32/v2.30/bin/bin/../../lib/gcc/pic32mx/4.8.3/../../../../pic32mx/lib/fpu64\libc.a(ctypef.o)
 .text.isupper  0x00000000       0x18 c:/program files (x86)/microchip/xc32/v2.30/bin/bin/../../lib/gcc/pic32mx/4.8.3/../../../../pic32mx/lib/fpu64\libc.a(ctypef.o)
 .text.isxdigit
                0x00000000       0x18 c:/program files (x86)/microchip/xc32/v2.30/bin/bin/../../lib/gcc/pic32mx/4.8.3/../../../../pic32mx/lib/fpu64\libc.a(ctypef.o)
 .text.toascii  0x00000000        0x8 c:/program files (x86)/microchip/xc32/v2.30/bin/bin/../../lib/gcc/pic32mx/4.8.3/../../../../pic32mx/lib/fpu64\libc.a(ctypef.o)
 .text._tolower
                0x00000000        0x8 c:/program files (x86)/microchip/xc32/v2.30/bin/bin/../../lib/gcc/pic32mx/4.8.3/../../../../pic32mx/lib/fpu64\libc.a(ctypef.o)
 .text._toupper
                0x00000000        0x8 c:/program files (x86)/microchip/xc32/v2.30/bin/bin/../../lib/gcc/pic32mx/4.8.3/../../../../pic32mx/lib/fpu64\libc.a(ctypef.o)
 .text          0x00000000        0x0 c:/program files (x86)/microchip/xc32/v2.30/bin/bin/../../lib/gcc/pic32mx/4.8.3/../../../../pic32mx/lib/fpu64\libc.a(malloc.o)
 .data          0x00000000        0x0 c:/program files (x86)/microchip/xc32/v2.30/bin/bin/../../lib/gcc/pic32mx/4.8.3/../../../../pic32mx/lib/fpu64\libc.a(malloc.o)
 .reginfo       0x00000000       0x18 c:/program files (x86)/microchip/xc32/v2.30/bin/bin/../../lib/gcc/pic32mx/4.8.3/../../../../pic32mx/lib/fpu64\libc.a(malloc.o)
 .text.realloc  0x00000000      0x148 c:/program files (x86)/microchip/xc32/v2.30/bin/bin/../../lib/gcc/pic32mx/4.8.3/../../../../pic32mx/lib/fpu64\libc.a(malloc.o)
 .text          0x00000000        0x0 c:/program files (x86)/microchip/xc32/v2.30/bin/bin/../../lib/gcc/pic32mx/4.8.3/../../../../pic32mx/lib/fpu64\libc.a(rand.o)
 .data          0x00000000        0x0 c:/program files (x86)/microchip/xc32/v2.30/bin/bin/../../lib/gcc/pic32mx/4.8.3/../../../../pic32mx/lib/fpu64\libc.a(rand.o)
 .reginfo       0x00000000       0x18 c:/program files (x86)/microchip/xc32/v2.30/bin/bin/../../lib/gcc/pic32mx/4.8.3/../../../../pic32mx/lib/fpu64\libc.a(rand.o)
 .text.srand    0x00000000       0x1c c:/program files (x86)/microchip/xc32/v2.30/bin/bin/../../lib/gcc/pic32mx/4.8.3/../../../../pic32mx/lib/fpu64\libc.a(rand.o)
 .text          0x00000000        0x0 c:/program files (x86)/microchip/xc32/v2.30/bin/bin/../../lib/gcc/pic32mx/4.8.3/../../../../pic32mx/lib/fpu64\libc.a(strncmp.o)
 .data          0x00000000        0x0 c:/program files (x86)/microchip/xc32/v2.30/bin/bin/../../lib/gcc/pic32mx/4.8.3/../../../../pic32mx/lib/fpu64\libc.a(strncmp.o)
 .bss           0x00000000        0x0 c:/program files (x86)/microchip/xc32/v2.30/bin/bin/../../lib/gcc/pic32mx/4.8.3/../../../../pic32mx/lib/fpu64\libc.a(strncmp.o)
 .reginfo       0x00000000       0x18 c:/program files (x86)/microchip/xc32/v2.30/bin/bin/../../lib/gcc/pic32mx/4.8.3/../../../../pic32mx/lib/fpu64\libc.a(strncmp.o)
 .text          0x00000000        0x0 c:/program files (x86)/microchip/xc32/v2.30/bin/bin/../../lib/gcc/pic32mx/4.8.3/../../../../pic32mx/lib/fpu64\libc.a(strncpy.o)
 .data          0x00000000        0x0 c:/program files (x86)/microchip/xc32/v2.30/bin/bin/../../lib/gcc/pic32mx/4.8.3/../../../../pic32mx/lib/fpu64\libc.a(strncpy.o)
 .bss           0x00000000        0x0 c:/program files (x86)/microchip/xc32/v2.30/bin/bin/../../lib/gcc/pic32mx/4.8.3/../../../../pic32mx/lib/fpu64\libc.a(strncpy.o)
 .reginfo       0x00000000       0x18 c:/program files (x86)/microchip/xc32/v2.30/bin/bin/../../lib/gcc/pic32mx/4.8.3/../../../../pic32mx/lib/fpu64\libc.a(strncpy.o)
 .text          0x00000000        0x0 c:/program files (x86)/microchip/xc32/v2.30/bin/bin/../../lib/gcc/pic32mx/4.8.3/../../../../pic32mx/lib/fpu64\libc.a(strtol.o)
 .data          0x00000000        0x0 c:/program files (x86)/microchip/xc32/v2.30/bin/bin/../../lib/gcc/pic32mx/4.8.3/../../../../pic32mx/lib/fpu64\libc.a(strtol.o)
 .bss           0x00000000        0x0 c:/program files (x86)/microchip/xc32/v2.30/bin/bin/../../lib/gcc/pic32mx/4.8.3/../../../../pic32mx/lib/fpu64\libc.a(strtol.o)
 .reginfo       0x00000000       0x18 c:/program files (x86)/microchip/xc32/v2.30/bin/bin/../../lib/gcc/pic32mx/4.8.3/../../../../pic32mx/lib/fpu64\libc.a(strtol.o)
 .text          0x00000000        0x0 c:/program files (x86)/microchip/xc32/v2.30/bin/bin/../../lib/gcc/pic32mx/4.8.3/../../../../pic32mx/lib/fpu64\libc.a(printf_cdnopsuxX.eo)
 .data          0x00000000        0x0 c:/program files (x86)/microchip/xc32/v2.30/bin/bin/../../lib/gcc/pic32mx/4.8.3/../../../../pic32mx/lib/fpu64\libc.a(printf_cdnopsuxX.eo)
 .bss           0x00000000        0x0 c:/program files (x86)/microchip/xc32/v2.30/bin/bin/../../lib/gcc/pic32mx/4.8.3/../../../../pic32mx/lib/fpu64\libc.a(printf_cdnopsuxX.eo)
 .reginfo       0x00000000       0x18 c:/program files (x86)/microchip/xc32/v2.30/bin/bin/../../lib/gcc/pic32mx/4.8.3/../../../../pic32mx/lib/fpu64\libc.a(printf_cdnopsuxX.eo)
 .text          0x00000000        0x0 c:/program files (x86)/microchip/xc32/v2.30/bin/bin/../../lib/gcc/pic32mx/4.8.3/../../../../pic32mx/lib/fpu64\libc.a(snprintf_cdnopsuxX.eo)
 .data          0x00000000        0x0 c:/program files (x86)/microchip/xc32/v2.30/bin/bin/../../lib/gcc/pic32mx/4.8.3/../../../../pic32mx/lib/fpu64\libc.a(snprintf_cdnopsuxX.eo)
 .bss           0x00000000        0x0 c:/program files (x86)/microchip/xc32/v2.30/bin/bin/../../lib/gcc/pic32mx/4.8.3/../../../../pic32mx/lib/fpu64\libc.a(snprintf_cdnopsuxX.eo)
 .reginfo       0x00000000       0x18 c:/program files (x86)/microchip/xc32/v2.30/bin/bin/../../lib/gcc/pic32mx/4.8.3/../../../../pic32mx/lib/fpu64\libc.a(snprintf_cdnopsuxX.eo)
 .text          0x00000000        0x0 c:/program files (x86)/microchip/xc32/v2.30/bin/bin/../../lib/gcc/pic32mx/4.8.3/../../../../pic32mx/lib/fpu64\libc.a(sprintf_cdnopsuxX.eo)
 .data          0x00000000        0x0 c:/program files (x86)/microchip/xc32/v2.30/bin/bin/../../lib/gcc/pic32mx/4.8.3/../../../../pic32mx/lib/fpu64\libc.a(sprintf_cdnopsuxX.eo)
 .bss           0x00000000        0x0 c:/program files (x86)/microchip/xc32/v2.30/bin/bin/../../lib/gcc/pic32mx/4.8.3/../../../../pic32mx/lib/fpu64\libc.a(sprintf_cdnopsuxX.eo)
 .reginfo       0x00000000       0x18 c:/program files (x86)/microchip/xc32/v2.30/bin/bin/../../lib/gcc/pic32mx/4.8.3/../../../../pic32mx/lib/fpu64\libc.a(sprintf_cdnopsuxX.eo)
 .text          0x00000000        0x0 c:/program files (x86)/microchip/xc32/v2.30/bin/bin/../../lib/gcc/pic32mx/4.8.3/../../../../pic32mx/lib/fpu64\libc.a(vsnprintf_cdnopsuxX.eo)
 .data          0x00000000        0x0 c:/program files (x86)/microchip/xc32/v2.30/bin/bin/../../lib/gcc/pic32mx/4.8.3/../../../../pic32mx/lib/fpu64\libc.a(vsnprintf_cdnopsuxX.eo)
 .bss           0x00000000        0x0 c:/program files (x86)/microchip/xc32/v2.30/bin/bin/../../lib/gcc/pic32mx/4.8.3/../../../../pic32mx/lib/fpu64\libc.a(vsnprintf_cdnopsuxX.eo)
 .reginfo       0x00000000       0x18 c:/program files (x86)/microchip/xc32/v2.30/bin/bin/../../lib/gcc/pic32mx/4.8.3/../../../../pic32mx/lib/fpu64\libc.a(vsnprintf_cdnopsuxX.eo)
 .text          0x00000000        0x0 c:/program files (x86)/microchip/xc32/v2.30/bin/bin/../../lib/gcc/pic32mx/4.8.3/../../../../pic32mx/lib/fpu64\libc.a(vsnprintf.o)
 .data          0x00000000        0x0 c:/program files (x86)/microchip/xc32/v2.30/bin/bin/../../lib/gcc/pic32mx/4.8.3/../../../../pic32mx/lib/fpu64\libc.a(vsnprintf.o)
 .bss           0x00000000        0x0 c:/program files (x86)/microchip/xc32/v2.30/bin/bin/../../lib/gcc/pic32mx/4.8.3/../../../../pic32mx/lib/fpu64\libc.a(vsnprintf.o)
 .reginfo       0x00000000       0x18 c:/program files (x86)/microchip/xc32/v2.30/bin/bin/../../lib/gcc/pic32mx/4.8.3/../../../../pic32mx/lib/fpu64\libc.a(vsnprintf.o)
 .text          0x00000000        0x0 c:/program files (x86)/microchip/xc32/v2.30/bin/bin/../../lib/gcc/pic32mx/4.8.3/../../../../pic32mx/lib/fpu64\libc.a(_iob.o)
 .reginfo       0x00000000       0x18 c:/program files (x86)/microchip/xc32/v2.30/bin/bin/../../lib/gcc/pic32mx/4.8.3/../../../../pic32mx/lib/fpu64\libc.a(_iob.o)
 .text          0x00000000        0x0 c:/program files (x86)/microchip/xc32/v2.30/bin/bin/../../lib/gcc/pic32mx/4.8.3/../../../../pic32mx/lib/fpu64\libc.a(errno.o)
 .data          0x00000000        0x0 c:/program files (x86)/microchip/xc32/v2.30/bin/bin/../../lib/gcc/pic32mx/4.8.3/../../../../pic32mx/lib/fpu64\libc.a(errno.o)
 .bss           0x00000000        0x0 c:/program files (x86)/microchip/xc32/v2.30/bin/bin/../../lib/gcc/pic32mx/4.8.3/../../../../pic32mx/lib/fpu64\libc.a(errno.o)
 .reginfo       0x00000000       0x18 c:/program files (x86)/microchip/xc32/v2.30/bin/bin/../../lib/gcc/pic32mx/4.8.3/../../../../pic32mx/lib/fpu64\libc.a(errno.o)
 .text          0x00000000        0x0 c:/program files (x86)/microchip/xc32/v2.30/bin/bin/../../lib/gcc/pic32mx/4.8.3/../../../../pic32mx/lib/fpu64\libc.a(doprnt_cdnopsuxX.eo)
 .data          0x00000000        0x0 c:/program files (x86)/microchip/xc32/v2.30/bin/bin/../../lib/gcc/pic32mx/4.8.3/../../../../pic32mx/lib/fpu64\libc.a(doprnt_cdnopsuxX.eo)
 .bss           0x00000000        0x0 c:/program files (x86)/microchip/xc32/v2.30/bin/bin/../../lib/gcc/pic32mx/4.8.3/../../../../pic32mx/lib/fpu64\libc.a(doprnt_cdnopsuxX.eo)
 .reginfo       0x00000000       0x18 c:/program files (x86)/microchip/xc32/v2.30/bin/bin/../../lib/gcc/pic32mx/4.8.3/../../../../pic32mx/lib/fpu64\libc.a(doprnt_cdnopsuxX.eo)
 .text          0x00000000        0x0 c:/program files (x86)/microchip/xc32/v2.30/bin/bin/../../lib/gcc/pic32mx/4.8.3/../../../../pic32mx/lib/fpu64\libc.a(doprnt.o)
 .data          0x00000000        0x0 c:/program files (x86)/microchip/xc32/v2.30/bin/bin/../../lib/gcc/pic32mx/4.8.3/../../../../pic32mx/lib/fpu64\libc.a(doprnt.o)
 .bss           0x00000000        0x0 c:/program files (x86)/microchip/xc32/v2.30/bin/bin/../../lib/gcc/pic32mx/4.8.3/../../../../pic32mx/lib/fpu64\libc.a(doprnt.o)
 .reginfo       0x00000000       0x18 c:/program files (x86)/microchip/xc32/v2.30/bin/bin/../../lib/gcc/pic32mx/4.8.3/../../../../pic32mx/lib/fpu64\libc.a(doprnt.o)
 .text          0x00000000        0x0 c:/program files (x86)/microchip/xc32/v2.30/bin/bin/../../lib/gcc/pic32mx/4.8.3/../../../../pic32mx/lib/fpu64\libc.a(_fputc_simple.o)
 .data          0x00000000        0x0 c:/program files (x86)/microchip/xc32/v2.30/bin/bin/../../lib/gcc/pic32mx/4.8.3/../../../../pic32mx/lib/fpu64\libc.a(_fputc_simple.o)
 .bss           0x00000000        0x0 c:/program files (x86)/microchip/xc32/v2.30/bin/bin/../../lib/gcc/pic32mx/4.8.3/../../../../pic32mx/lib/fpu64\libc.a(_fputc_simple.o)
 .reginfo       0x00000000       0x18 c:/program files (x86)/microchip/xc32/v2.30/bin/bin/../../lib/gcc/pic32mx/4.8.3/../../../../pic32mx/lib/fpu64\libc.a(_fputc_simple.o)
 .text          0x00000000        0x0 c:/program files (x86)/microchip/xc32/v2.30/bin/bin/../../lib/gcc/pic32mx/4.8.3/../../../../pic32mx/lib/fpu64\libc.a(ldpowers.o)
 .data          0x00000000        0x0 c:/program files (x86)/microchip/xc32/v2.30/bin/bin/../../lib/gcc/pic32mx/4.8.3/../../../../pic32mx/lib/fpu64\libc.a(ldpowers.o)
 .bss           0x00000000        0x0 c:/program files (x86)/microchip/xc32/v2.30/bin/bin/../../lib/gcc/pic32mx/4.8.3/../../../../pic32mx/lib/fpu64\libc.a(ldpowers.o)
 .reginfo       0x00000000       0x18 c:/program files (x86)/microchip/xc32/v2.30/bin/bin/../../lib/gcc/pic32mx/4.8.3/../../../../pic32mx/lib/fpu64\libc.a(ldpowers.o)
 .text          0x00000000        0x0 c:/program files (x86)/microchip/xc32/v2.30/bin/bin/../../lib/gcc/pic32mx/4.8.3/../../../../pic32mx/lib/fpu64\libc.a(_flsbuf_simple.o)
 .data          0x00000000        0x0 c:/program files (x86)/microchip/xc32/v2.30/bin/bin/../../lib/gcc/pic32mx/4.8.3/../../../../pic32mx/lib/fpu64\libc.a(_flsbuf_simple.o)
 .bss           0x00000000        0x0 c:/program files (x86)/microchip/xc32/v2.30/bin/bin/../../lib/gcc/pic32mx/4.8.3/../../../../pic32mx/lib/fpu64\libc.a(_flsbuf_simple.o)
 .reginfo       0x00000000       0x18 c:/program files (x86)/microchip/xc32/v2.30/bin/bin/../../lib/gcc/pic32mx/4.8.3/../../../../pic32mx/lib/fpu64\libc.a(_flsbuf_simple.o)
 .text          0x00000000        0x0 c:/program files (x86)/microchip/xc32/v2.30/bin/bin/../../lib/gcc/pic32mx/4.8.3/../../../../pic32mx/lib/fpu64\libmfd.a(s_frexp.o)
 .data          0x00000000        0x0 c:/program files (x86)/microchip/xc32/v2.30/bin/bin/../../lib/gcc/pic32mx/4.8.3/../../../../pic32mx/lib/fpu64\libmfd.a(s_frexp.o)
 .bss           0x00000000        0x0 c:/program files (x86)/microchip/xc32/v2.30/bin/bin/../../lib/gcc/pic32mx/4.8.3/../../../../pic32mx/lib/fpu64\libmfd.a(s_frexp.o)
 .reginfo       0x00000000       0x18 c:/program files (x86)/microchip/xc32/v2.30/bin/bin/../../lib/gcc/pic32mx/4.8.3/../../../../pic32mx/lib/fpu64\libmfd.a(s_frexp.o)
 .data          0x00000000        0x0 c:/program files (x86)/microchip/xc32/v2.30/bin/bin/../../lib/gcc/pic32mx/4.8.3/fpu64\libgcc.a(_cmpdi2.o)
 .bss           0x00000000        0x0 c:/program files (x86)/microchip/xc32/v2.30/bin/bin/../../lib/gcc/pic32mx/4.8.3/fpu64\libgcc.a(_cmpdi2.o)
 .reginfo       0x00000000       0x18 c:/program files (x86)/microchip/xc32/v2.30/bin/bin/../../lib/gcc/pic32mx/4.8.3/fpu64\libgcc.a(_cmpdi2.o)
 .data          0x00000000        0x0 c:/program files (x86)/microchip/xc32/v2.30/bin/bin/../../lib/gcc/pic32mx/4.8.3/fpu64\libgcc.a(_umoddi3.o)
 .bss           0x00000000        0x0 c:/program files (x86)/microchip/xc32/v2.30/bin/bin/../../lib/gcc/pic32mx/4.8.3/fpu64\libgcc.a(_umoddi3.o)
 .reginfo       0x00000000       0x18 c:/program files (x86)/microchip/xc32/v2.30/bin/bin/../../lib/gcc/pic32mx/4.8.3/fpu64\libgcc.a(_umoddi3.o)
 .text          0x00000000        0x0 c:/program files (x86)/microchip/xc32/v2.30/bin/bin/../../lib/gcc/pic32mx/4.8.3/../../../../pic32mx/lib/fpu64\libpic32.a(sbrk.o)
 .data          0x00000000        0x0 c:/program files (x86)/microchip/xc32/v2.30/bin/bin/../../lib/gcc/pic32mx/4.8.3/../../../../pic32mx/lib/fpu64\libpic32.a(sbrk.o)
 .reginfo       0x00000000       0x18 c:/program files (x86)/microchip/xc32/v2.30/bin/bin/../../lib/gcc/pic32mx/4.8.3/../../../../pic32mx/lib/fpu64\libpic32.a(sbrk.o)
 .text.getpagesize
                0x00000000        0x8 c:/program files (x86)/microchip/xc32/v2.30/bin/bin/../../lib/gcc/pic32mx/4.8.3/../../../../pic32mx/lib/fpu64\libpic32.a(sbrk.o)
 .text          0x00000000        0x0 c:/program files (x86)/microchip/xc32/v2.30/bin/bin/../../lib/gcc/pic32mx/4.8.3/../../../../pic32mx/lib/fpu64\libpic32.a(write.o)
 .data          0x00000000        0x0 c:/program files (x86)/microchip/xc32/v2.30/bin/bin/../../lib/gcc/pic32mx/4.8.3/../../../../pic32mx/lib/fpu64\libpic32.a(write.o)
 .bss           0x00000000        0x0 c:/program files (x86)/microchip/xc32/v2.30/bin/bin/../../lib/gcc/pic32mx/4.8.3/../../../../pic32mx/lib/fpu64\libpic32.a(write.o)
 .reginfo       0x00000000       0x18 c:/program files (x86)/microchip/xc32/v2.30/bin/bin/../../lib/gcc/pic32mx/4.8.3/../../../../pic32mx/lib/fpu64\libpic32.a(write.o)

Memory Configuration

Name             Origin             Length             Attributes
kseg0_program_mem 0x9d000000         0x00200000         xr
kseg0_boot_mem   0x9fc004b0         0x00000000
kseg1_boot_mem   0xbfc00000         0x00000480
kseg1_boot_mem_4B0 0xbfc004b0         0x0000fa50
config_BFC0FF40  0xbfc0ff40         0x00000004
config_BFC0FF44  0xbfc0ff44         0x00000004
config_BFC0FF48  0xbfc0ff48         0x00000004
config_BFC0FF4C  0xbfc0ff4c         0x00000004
config_BFC0FF50  0xbfc0ff50         0x00000004
config_BFC0FF54  0xbfc0ff54         0x00000004
config_BFC0FF58  0xbfc0ff58         0x00000004
config_BFC0FF5C  0xbfc0ff5c         0x00000004
config_BFC0FF60  0xbfc0ff60         0x00000004
config_BFC0FF64  0xbfc0ff64         0x00000004
config_BFC0FF68  0xbfc0ff68         0x00000004
config_BFC0FF6C  0xbfc0ff6c         0x00000004
config_BFC0FF70  0xbfc0ff70         0x00000004
config_BFC0FF74  0xbfc0ff74         0x00000004
config_BFC0FF78  0xbfc0ff78         0x00000004
config_BFC0FF7C  0xbfc0ff7c         0x00000004
config_BFC0FFC0  0xbfc0ffc0         0x00000004
config_BFC0FFC4  0xbfc0ffc4         0x00000004
config_BFC0FFC8  0xbfc0ffc8         0x00000004
config_BFC0FFCC  0xbfc0ffcc         0x00000004
config_BFC0FFD0  0xbfc0ffd0         0x00000004
config_BFC0FFD4  0xbfc0ffd4         0x00000004
config_BFC0FFD8  0xbfc0ffd8         0x00000004
config_BFC0FFDC  0xbfc0ffdc         0x00000004
config_BFC0FFE0  0xbfc0ffe0         0x00000004
config_BFC0FFE4  0xbfc0ffe4         0x00000004
config_BFC0FFE8  0xbfc0ffe8         0x00000004
config_BFC0FFEC  0xbfc0ffec         0x00000004
config_BFC0FFF0  0xbfc0fff0         0x00000004
config_BFC0FFF4  0xbfc0fff4         0x00000004
config_BFC0FFF8  0xbfc0fff8         0x00000004
config_BFC0FFFC  0xbfc0fffc         0x00000004
lowerbootaliaslastpage 0xbfc10000         0x00004000
upperbootalias   0xbfc20000         0x0000ff00
config_BFC2FF40  0xbfc2ff40         0x00000004
config_BFC2FF44  0xbfc2ff44         0x00000004
config_BFC2FF48  0xbfc2ff48         0x00000004
config_BFC2FF4C  0xbfc2ff4c         0x00000004
config_BFC2FF50  0xbfc2ff50         0x00000004
config_BFC2FF54  0xbfc2ff54         0x00000004
config_BFC2FF58  0xbfc2ff58         0x00000004
config_BFC2FF5C  0xbfc2ff5c         0x00000004
config_BFC2FF60  0xbfc2ff60         0x00000004
config_BFC2FF64  0xbfc2ff64         0x00000004
config_BFC2FF68  0xbfc2ff68         0x00000004
config_BFC2FF6C  0xbfc2ff6c         0x00000004
config_BFC2FF70  0xbfc2ff70         0x00000004
config_BFC2FF74  0xbfc2ff74         0x00000004
config_BFC2FF78  0xbfc2ff78         0x00000004
config_BFC2FF7C  0xbfc2ff7c         0x00000004
config_BFC2FFC0  0xbfc2ffc0         0x00000004
config_BFC2FFC4  0xbfc2ffc4         0x00000004
config_BFC2FFC8  0xbfc2ffc8         0x00000004
config_BFC2FFCC  0xbfc2ffcc         0x00000004
config_BFC2FFD0  0xbfc2ffd0         0x00000004
config_BFC2FFD4  0xbfc2ffd4         0x00000004
config_BFC2FFD8  0xbfc2ffd8         0x00000004
config_BFC2FFDC  0xbfc2ffdc         0x00000004
config_BFC2FFE0  0xbfc2ffe0         0x00000004
config_BFC2FFE4  0xbfc2ffe4         0x00000004
config_BFC2FFE8  0xbfc2ffe8         0x00000004
config_BFC2FFEC  0xbfc2ffec         0x00000004
config_BFC2FFF0  0xbfc2fff0         0x00000004
config_BFC2FFF4  0xbfc2fff4         0x00000004
config_BFC2FFF8  0xbfc2fff8         0x00000004
config_BFC2FFFC  0xbfc2fffc         0x00000004
upperbootaliaslastpage 0xbfc30000         0x00004000
boot1            0xbfc40000         0x0000ff00
config_BFC4FF40  0xbfc4ff40         0x00000004
config_BFC4FF44  0xbfc4ff44         0x00000004
config_BFC4FF48  0xbfc4ff48         0x00000004
config_BFC4FF4C  0xbfc4ff4c         0x00000004
config_BFC4FF50  0xbfc4ff50         0x00000004
config_BFC4FF54  0xbfc4ff54         0x00000004
config_BFC4FF58  0xbfc4ff58         0x00000004
config_BFC4FF5C  0xbfc4ff5c         0x00000004
config_BFC4FF60  0xbfc4ff60         0x00000004
config_BFC4FF64  0xbfc4ff64         0x00000004
config_BFC4FF68  0xbfc4ff68         0x00000004
config_BFC4FF6C  0xbfc4ff6c         0x00000004
config_BFC4FF70  0xbfc4ff70         0x00000004
config_BFC4FF74  0xbfc4ff74         0x00000004
config_BFC4FF78  0xbfc4ff78         0x00000004
config_BFC4FF7C  0xbfc4ff7c         0x00000004
config_BFC4FFC0  0xbfc4ffc0         0x00000004
config_BFC4FFC4  0xbfc4ffc4         0x00000004
config_BFC4FFC8  0xbfc4ffc8         0x00000004
config_BFC4FFCC  0xbfc4ffcc         0x00000004
config_BFC4FFD0  0xbfc4ffd0         0x00000004
config_BFC4FFD4  0xbfc4ffd4         0x00000004
config_BFC4FFD8  0xbfc4ffd8         0x00000004
config_BFC4FFDC  0xbfc4ffdc         0x00000004
config_BFC4FFE0  0xbfc4ffe0         0x00000004
config_BFC4FFE4  0xbfc4ffe4         0x00000004
config_BFC4FFE8  0xbfc4ffe8         0x00000004
config_BFC4FFEC  0xbfc4ffec         0x00000004
config_BFC4FFF0  0xbfc4fff0         0x00000004
config_BFC4FFF4  0xbfc4fff4         0x00000004
config_BFC4FFF8  0xbfc4fff8         0x00000004
config_BFC4FFFC  0xbfc4fffc         0x00000004
boot1lastpage    0xbfc50000         0x00004000
config_BFC54000  0xbfc54000         0x00000004
config_BFC54004  0xbfc54004         0x00000004
config_BFC54008  0xbfc54008         0x00000004
config_BFC5400C  0xbfc5400c         0x00000004
config_BFC54010  0xbfc54010         0x00000004
config_BFC5401C  0xbfc5401c         0x00000004
config_BFC54020  0xbfc54020         0x00000004
config_BFC54024  0xbfc54024         0x00000004
boot2            0xbfc60000         0x0000ff00
config_BFC6FF40  0xbfc6ff40         0x00000004
config_BFC6FF44  0xbfc6ff44         0x00000004
config_BFC6FF48  0xbfc6ff48         0x00000004
config_BFC6FF4C  0xbfc6ff4c         0x00000004
config_BFC6FF50  0xbfc6ff50         0x00000004
config_BFC6FF54  0xbfc6ff54         0x00000004
config_BFC6FF58  0xbfc6ff58         0x00000004
config_BFC6FF5C  0xbfc6ff5c         0x00000004
config_BFC6FF60  0xbfc6ff60         0x00000004
config_BFC6FF64  0xbfc6ff64         0x00000004
config_BFC6FF68  0xbfc6ff68         0x00000004
config_BFC6FF6C  0xbfc6ff6c         0x00000004
config_BFC6FF70  0xbfc6ff70         0x00000004
config_BFC6FF74  0xbfc6ff74         0x00000004
config_BFC6FF78  0xbfc6ff78         0x00000004
config_BFC6FF7C  0xbfc6ff7c         0x00000004
config_BFC6FFC0  0xbfc6ffc0         0x00000004
config_BFC6FFC4  0xbfc6ffc4         0x00000004
config_BFC6FFC8  0xbfc6ffc8         0x00000004
config_BFC6FFCC  0xbfc6ffcc         0x00000004
config_BFC6FFD0  0xbfc6ffd0         0x00000004
config_BFC6FFD4  0xbfc6ffd4         0x00000004
config_BFC6FFD8  0xbfc6ffd8         0x00000004
config_BFC6FFDC  0xbfc6ffdc         0x00000004
config_BFC6FFE0  0xbfc6ffe0         0x00000004
config_BFC6FFE4  0xbfc6ffe4         0x00000004
config_BFC6FFE8  0xbfc6ffe8         0x00000004
config_BFC6FFEC  0xbfc6ffec         0x00000004
config_BFC6FFF0  0xbfc6fff0         0x00000004
config_BFC6FFF4  0xbfc6fff4         0x00000004
config_BFC6FFF8  0xbfc6fff8         0x00000004
config_BFC6FFFC  0xbfc6fffc         0x00000004
boot2lastpage    0xbfc70000         0x00004000
kseg0_data_mem   0x80000000         0x00080000         w !x
sfrs             0xbf800000         0x00100000
configsfrs_BFC0FF40 0xbfc0ff40         0x00000040
configsfrs_BFC0FFC0 0xbfc0ffc0         0x00000040
configsfrs_BFC2FF40 0xbfc2ff40         0x00000040
configsfrs_BFC2FFC0 0xbfc2ffc0         0x00000040
configsfrs_BFC4FF40 0xbfc4ff40         0x00000040
configsfrs_BFC4FFC0 0xbfc4ffc0         0x00000040
configsfrs_BFC54000 0xbfc54000         0x00000020
configsfrs_BFC6FF40 0xbfc6ff40         0x00000040
configsfrs_BFC6FFC0 0xbfc6ffc0         0x00000040
kseg2_ebi_data_mem 0xc0000000         0x04000000
kseg2_sqi_data_mem 0xd0000000         0x04000000
kseg3_ebi_data_mem 0xe0000000         0x04000000
kseg3_sqi_data_mem 0xf0000000         0x04000000
*default*        0x00000000         0xffffffff

Linker script and memory map

LOAD c:/program files (x86)/microchip/xc32/v2.30/bin/bin/../../lib/gcc/pic32mx/4.8.3/../../../../pic32mx/lib/fpu64\debug-exception-return.o
LOAD build/pic32mz_ef_sk/production/_ext/978308758/bsp.o
LOAD build/pic32mz_ef_sk/production/_ext/1314174413/drv_ethmac.o
LOAD build/pic32mz_ef_sk/production/_ext/1314174413/drv_ethmac_lib.o
LOAD build/pic32mz_ef_sk/production/_ext/1314174413/drv_eth_pic32_lib.o
LOAD build/pic32mz_ef_sk/production/_ext/138020607/drv_ethphy.o
LOAD build/pic32mz_ef_sk/production/_ext/138020607/drv_extphy_smsc8740.o
LOAD build/pic32mz_ef_sk/production/_ext/1761147401/drv_miim.o
LOAD build/pic32mz_ef_sk/production/_ext/2027382860/helpers.o
LOAD build/pic32mz_ef_sk/production/_ext/2027382860/dns.o
LOAD build/pic32mz_ef_sk/production/_ext/2027382860/icmp.o
LOAD build/pic32mz_ef_sk/production/_ext/2027382860/tcp.o
LOAD build/pic32mz_ef_sk/production/_ext/2027382860/dhcp.o
LOAD build/pic32mz_ef_sk/production/_ext/2027382860/arp.o
LOAD build/pic32mz_ef_sk/production/_ext/2027382860/tcpip_commands.o
LOAD build/pic32mz_ef_sk/production/_ext/2027382860/ipv4.o
LOAD build/pic32mz_ef_sk/production/_ext/2027382860/tcpip_heap_alloc.o
LOAD build/pic32mz_ef_sk/production/_ext/2027382860/tcpip_heap_internal.o
LOAD build/pic32mz_ef_sk/production/_ext/2027382860/hash_fnv.o
LOAD build/pic32mz_ef_sk/production/_ext/2027382860/oahash.o
LOAD build/pic32mz_ef_sk/production/_ext/2027382860/tcpip_helpers.o
LOAD build/pic32mz_ef_sk/production/_ext/2027382860/tcpip_helper_c32.o
LOAD build/pic32mz_ef_sk/production/_ext/2027382860/tcpip_manager.o
LOAD build/pic32mz_ef_sk/production/_ext/2027382860/tcpip_notify.o
LOAD build/pic32mz_ef_sk/production/_ext/2027382860/tcpip_packet.o
LOAD build/pic32mz_ef_sk/production/_ext/2027382860/udp.o
LOAD build/pic32mz_ef_sk/production/_ext/1098417660/plib_clk.o
LOAD build/pic32mz_ef_sk/production/_ext/1710852712/plib_coretimer.o
LOAD build/pic32mz_ef_sk/production/_ext/308860137/plib_evic.o
LOAD build/pic32mz_ef_sk/production/_ext/308913965/plib_gpio.o
LOAD build/pic32mz_ef_sk/production/_ext/309316908/plib_uart2.o
LOAD build/pic32mz_ef_sk/production/_ext/458842868/xc32_monitor.o
LOAD build/pic32mz_ef_sk/production/_ext/2135388491/sys_command.o
LOAD build/pic32mz_ef_sk/production/_ext/1702866625/sys_console.o
LOAD build/pic32mz_ef_sk/production/_ext/1702866625/sys_console_uart.o
LOAD build/pic32mz_ef_sk/production/_ext/57023747/sys_debug.o
LOAD build/pic32mz_ef_sk/production/_ext/723085273/sys_int.o
LOAD build/pic32mz_ef_sk/production/_ext/1658225107/sys_time.o
LOAD build/pic32mz_ef_sk/production/_ext/1344301860/sys_time_h2_adapter.o
LOAD build/pic32mz_ef_sk/production/_ext/942849350/tasks.o
LOAD build/pic32mz_ef_sk/production/_ext/942849350/initialization.o
LOAD build/pic32mz_ef_sk/production/_ext/942849350/interrupts.o
LOAD build/pic32mz_ef_sk/production/_ext/942849350/exceptions.o
LOAD build/pic32mz_ef_sk/production/_ext/1360937237/app.o
LOAD build/pic32mz_ef_sk/production/_ext/1360937237/main.o
LOAD build/pic32mz_ef_sk/production/_ext/108032392/dialtek_modbus.o
LOAD build/pic32mz_ef_sk/production/_ext/1360937237/tcp_app.o
LOAD build/pic32mz_ef_sk/production/_ext/1360937237/modbus_buf.o
                0x00000001                __MPLAB_BUILD = 0x1
                0x0000fdc0                _min_heap_size = 0xfdc0
LOAD C:\Users\Reg\AppData\Local\Temp\ccyBwbgZ.o
LOAD C:\Users\Reg\AppData\Local\Temp\ccuKqiWj.o
LOAD C:\Users\Reg\AppData\Local\Temp\ccyzeYAh.o
LOAD c:/program files (x86)/microchip/xc32/v2.30/bin/bin/../../lib/gcc/pic32mx/4.8.3/../../../../pic32mx/lib/fpu64\pic32_software_reset.o
                0x00000400                PROVIDE (_min_stack_size, 0x400)
START GROUP
LOAD c:/program files (x86)/microchip/xc32/v2.30/bin/bin/../../lib/gcc/pic32mx/4.8.3/../../../../pic32mx/lib/./proc/32MZ2048EFH144\processor.o
END GROUP
START GROUP
LOAD c:/program files (x86)/microchip/xc32/v2.30/bin/bin/../../lib/gcc/pic32mx/4.8.3/../../../../pic32mx/lib/./proc/32MZ2048EFH144\vector_offset_init.o
END GROUP
                0x00000001                PROVIDE (_vector_spacing, 0x1)
                0x9d000000                PROVIDE (_ebase_address, 0x9d000000)
                0xbfc00000                _RESET_ADDR = 0xbfc00000
                0xbfc00380                _BEV_EXCPT_ADDR = 0xbfc00380
                0xbfc00480                _DBG_EXCPT_ADDR = 0xbfc00480
                0x9d000000                _SIMPLE_TLB_REFILL_EXCPT_ADDR = (_ebase_address + 0x0)
                0x9d000100                _CACHE_ERR_EXCPT_ADDR = (_ebase_address + 0x100)
                0x9d000180                _GEN_EXCPT_ADDR = (_ebase_address + 0x180)

.config_BFC0FF40
 *(.config_BFC0FF40)

.config_BFC0FF44
 *(.config_BFC0FF44)

.config_BFC0FF48
 *(.config_BFC0FF48)

.config_BFC0FF4C
 *(.config_BFC0FF4C)

.config_BFC0FF50
 *(.config_BFC0FF50)

.config_BFC0FF54
 *(.config_BFC0FF54)

.config_BFC0FF58
 *(.config_BFC0FF58)

.config_BFC0FF5C
 *(.config_BFC0FF5C)

.config_BFC0FF60
 *(.config_BFC0FF60)

.config_BFC0FF64
 *(.config_BFC0FF64)

.config_BFC0FF68
 *(.config_BFC0FF68)

.config_BFC0FF6C
 *(.config_BFC0FF6C)

.config_BFC0FF70
 *(.config_BFC0FF70)

.config_BFC0FF74
 *(.config_BFC0FF74)

.config_BFC0FF78
 *(.config_BFC0FF78)

.config_BFC0FF7C
 *(.config_BFC0FF7C)

.config_BFC0FFC0
                0xbfc0ffc0        0x4
 *(.config_BFC0FFC0)
 .config_BFC0FFC0
                0xbfc0ffc0        0x4 build/pic32mz_ef_sk/production/_ext/942849350/initialization.o

.config_BFC0FFC4
                0xbfc0ffc4        0x4
 *(.config_BFC0FFC4)
 .config_BFC0FFC4
                0xbfc0ffc4        0x4 build/pic32mz_ef_sk/production/_ext/942849350/initialization.o

.config_BFC0FFC8
                0xbfc0ffc8        0x4
 *(.config_BFC0FFC8)
 .config_BFC0FFC8
                0xbfc0ffc8        0x4 build/pic32mz_ef_sk/production/_ext/942849350/initialization.o

.config_BFC0FFCC
                0xbfc0ffcc        0x4
 *(.config_BFC0FFCC)
 .config_BFC0FFCC
                0xbfc0ffcc        0x4 build/pic32mz_ef_sk/production/_ext/942849350/initialization.o

.config_BFC0FFD0
 *(.config_BFC0FFD0)

.config_BFC0FFD4
 *(.config_BFC0FFD4)

.config_BFC0FFD8
 *(.config_BFC0FFD8)

.config_BFC0FFDC
                0xbfc0ffdc        0x4
 *(.config_BFC0FFDC)
 .config_BFC0FFDC
                0xbfc0ffdc        0x4 build/pic32mz_ef_sk/production/_ext/942849350/initialization.o

.config_BFC0FFE0
 *(.config_BFC0FFE0)

.config_BFC0FFE4
 *(.config_BFC0FFE4)

.config_BFC0FFE8
 *(.config_BFC0FFE8)

.config_BFC0FFEC
 *(.config_BFC0FFEC)

.config_BFC0FFF0
                0xbfc0fff0        0x4
 *(.config_BFC0FFF0)
 .config_BFC0FFF0
                0xbfc0fff0        0x4 build/pic32mz_ef_sk/production/_ext/942849350/initialization.o

.config_BFC0FFF4
 *(.config_BFC0FFF4)

.config_BFC0FFF8
 *(.config_BFC0FFF8)

.config_BFC0FFFC
 *(.config_BFC0FFFC)

.config_BFC2FF40
 *(.config_BFC2FF40)

.config_BFC2FF44
 *(.config_BFC2FF44)

.config_BFC2FF48
 *(.config_BFC2FF48)

.config_BFC2FF4C
 *(.config_BFC2FF4C)

.config_BFC2FF50
 *(.config_BFC2FF50)

.config_BFC2FF54
 *(.config_BFC2FF54)

.config_BFC2FF58
 *(.config_BFC2FF58)

.config_BFC2FF5C
 *(.config_BFC2FF5C)

.config_BFC2FF60
 *(.config_BFC2FF60)

.config_BFC2FF64
 *(.config_BFC2FF64)

.config_BFC2FF68
 *(.config_BFC2FF68)

.config_BFC2FF6C
 *(.config_BFC2FF6C)

.config_BFC2FF70
 *(.config_BFC2FF70)

.config_BFC2FF74
 *(.config_BFC2FF74)

.config_BFC2FF78
 *(.config_BFC2FF78)

.config_BFC2FF7C
 *(.config_BFC2FF7C)

.config_BFC2FFC0
 *(.config_BFC2FFC0)

.config_BFC2FFC4
 *(.config_BFC2FFC4)

.config_BFC2FFC8
 *(.config_BFC2FFC8)

.config_BFC2FFCC
 *(.config_BFC2FFCC)

.config_BFC2FFD0
 *(.config_BFC2FFD0)

.config_BFC2FFD4
 *(.config_BFC2FFD4)

.config_BFC2FFD8
 *(.config_BFC2FFD8)

.config_BFC2FFDC
 *(.config_BFC2FFDC)

.config_BFC2FFE0
 *(.config_BFC2FFE0)

.config_BFC2FFE4
 *(.config_BFC2FFE4)

.config_BFC2FFE8
 *(.config_BFC2FFE8)

.config_BFC2FFEC
 *(.config_BFC2FFEC)

.config_BFC2FFF0
 *(.config_BFC2FFF0)

.config_BFC2FFF4
 *(.config_BFC2FFF4)

.config_BFC2FFF8
 *(.config_BFC2FFF8)

.config_BFC2FFFC
 *(.config_BFC2FFFC)

.config_BFC4FF40
 *(.config_BFC4FF40)

.config_BFC4FF44
 *(.config_BFC4FF44)

.config_BFC4FF48
 *(.config_BFC4FF48)

.config_BFC4FF4C
 *(.config_BFC4FF4C)

.config_BFC4FF50
 *(.config_BFC4FF50)

.config_BFC4FF54
 *(.config_BFC4FF54)

.config_BFC4FF58
 *(.config_BFC4FF58)

.config_BFC4FF5C
 *(.config_BFC4FF5C)

.config_BFC4FF60
 *(.config_BFC4FF60)

.config_BFC4FF64
 *(.config_BFC4FF64)

.config_BFC4FF68
 *(.config_BFC4FF68)

.config_BFC4FF6C
 *(.config_BFC4FF6C)

.config_BFC4FF70
 *(.config_BFC4FF70)

.config_BFC4FF74
 *(.config_BFC4FF74)

.config_BFC4FF78
 *(.config_BFC4FF78)

.config_BFC4FF7C
 *(.config_BFC4FF7C)

.config_BFC4FFC0
 *(.config_BFC4FFC0)

.config_BFC4FFC4
 *(.config_BFC4FFC4)

.config_BFC4FFC8
 *(.config_BFC4FFC8)

.config_BFC4FFCC
 *(.config_BFC4FFCC)

.config_BFC4FFD0
 *(.config_BFC4FFD0)

.config_BFC4FFD4
 *(.config_BFC4FFD4)

.config_BFC4FFD8
 *(.config_BFC4FFD8)

.config_BFC4FFDC
 *(.config_BFC4FFDC)

.config_BFC4FFE0
 *(.config_BFC4FFE0)

.config_BFC4FFE4
 *(.config_BFC4FFE4)

.config_BFC4FFE8
 *(.config_BFC4FFE8)

.config_BFC4FFEC
 *(.config_BFC4FFEC)

.config_BFC4FFF0
 *(.config_BFC4FFF0)

.config_BFC4FFF4
 *(.config_BFC4FFF4)

.config_BFC4FFF8
 *(.config_BFC4FFF8)

.config_BFC4FFFC
 *(.config_BFC4FFFC)

.config_BFC54000
 *(.config_BFC54000)

.config_BFC54004
 *(.config_BFC54004)

.config_BFC54008
 *(.config_BFC54008)

.config_BFC5400C
 *(.config_BFC5400C)

.config_BFC54010
 *(.config_BFC54010)

.config_BFC5401C
 *(.config_BFC5401C)

.config_BFC54020
 *(.config_BFC54020)

.config_BFC54024
 *(.config_BFC54024)

.config_BFC6FF40
 *(.config_BFC6FF40)

.config_BFC6FF44
 *(.config_BFC6FF44)

.config_BFC6FF48
 *(.config_BFC6FF48)

.config_BFC6FF4C
 *(.config_BFC6FF4C)

.config_BFC6FF50
 *(.config_BFC6FF50)

.config_BFC6FF54
 *(.config_BFC6FF54)

.config_BFC6FF58
 *(.config_BFC6FF58)

.config_BFC6FF5C
 *(.config_BFC6FF5C)

.config_BFC6FF60
 *(.config_BFC6FF60)

.config_BFC6FF64
 *(.config_BFC6FF64)

.config_BFC6FF68
 *(.config_BFC6FF68)

.config_BFC6FF6C
 *(.config_BFC6FF6C)

.config_BFC6FF70
 *(.config_BFC6FF70)

.config_BFC6FF74
 *(.config_BFC6FF74)

.config_BFC6FF78
 *(.config_BFC6FF78)

.config_BFC6FF7C
 *(.config_BFC6FF7C)

.config_BFC6FFC0
 *(.config_BFC6FFC0)

.config_BFC6FFC4
 *(.config_BFC6FFC4)

.config_BFC6FFC8
 *(.config_BFC6FFC8)

.config_BFC6FFCC
 *(.config_BFC6FFCC)

.config_BFC6FFD0
 *(.config_BFC6FFD0)

.config_BFC6FFD4
 *(.config_BFC6FFD4)

.config_BFC6FFD8
 *(.config_BFC6FFD8)

.config_BFC6FFDC
 *(.config_BFC6FFDC)

.config_BFC6FFE0
 *(.config_BFC6FFE0)

.config_BFC6FFE4
 *(.config_BFC6FFE4)

.config_BFC6FFE8
 *(.config_BFC6FFE8)

.config_BFC6FFEC
 *(.config_BFC6FFEC)

.config_BFC6FFF0
 *(.config_BFC6FFF0)

.config_BFC6FFF4
 *(.config_BFC6FFF4)

.config_BFC6FFF8
 *(.config_BFC6FFF8)

.config_BFC6FFFC
 *(.config_BFC6FFFC)

.reset          0xbfc00000      0x1b4
 *(.reset)
 .reset         0xbfc00000       0x18 C:\Users\Reg\AppData\Local\Temp\ccyBwbgZ.o
                0xbfc00000                _reset
 *(.reset.startup)
 .reset.startup
                0xbfc00018      0x19c C:\Users\Reg\AppData\Local\Temp\ccyBwbgZ.o
                0xbfc00018                _startup

.bev_excpt      0xbfc00380       0x10
 *(.bev_handler)
 .bev_handler   0xbfc00380       0x10 C:\Users\Reg\AppData\Local\Temp\ccyBwbgZ.o

.cache_init     0xbfc004b0      0x1c0
 *(.cache_init)
 *(.cache_init.*)
 .cache_init.cache
                0xbfc004b0       0xc0 c:/program files (x86)/microchip/xc32/v2.30/bin/bin/../../lib/gcc/pic32mx/4.8.3/../../../../pic32mx/lib/fpu64\libpic32.a(pic32_init_cache.o)
 .cache_init.pic32_init_cache
                0xbfc00570      0x100 c:/program files (x86)/microchip/xc32/v2.30/bin/bin/../../lib/gcc/pic32mx/4.8.3/../../../../pic32mx/lib/fpu64\libpic32.a(pic32_init_cache.o)
                0xbfc00570                __pic32_init_cache

.simple_tlb_refill_excpt
                0x9d000000       0x10
 *(.simple_tlb_refill_vector)
 .simple_tlb_refill_vector
                0x9d000000       0x10 C:\Users\Reg\AppData\Local\Temp\ccyBwbgZ.o

.cache_err_excpt
                0x9d000100       0x10
 *(.cache_err_vector)
 .cache_err_vector
                0x9d000100       0x10 C:\Users\Reg\AppData\Local\Temp\ccyBwbgZ.o

.app_excpt      0x9d000180       0x10
 *(.gen_handler)
 .gen_handler   0x9d000180       0x10 C:\Users\Reg\AppData\Local\Temp\ccyBwbgZ.o

.vectors        0x9d000200       0x70
                0x9d000200                . = ALIGN (0x4)
                0x00000200                __vector_offset_0 = DEFINED (__vector_dispatch_0)?(. - _ebase_address):__vector_offset_default
 *(.vector_0)
 .vector_0      0x9d000200        0x8 build/pic32mz_ef_sk/production/_ext/942849350/interrupts.o
                0x9d000200                __vector_dispatch_0
                0x9d000208                . = ALIGN (0x4)
                0x00000228                __vector_offset_1 = DEFINED (__vector_dispatch_1)?(. - _ebase_address):__vector_offset_default
 *(.vector_1)
                0x9d000208                . = ALIGN (0x4)
                0x00000228                __vector_offset_2 = DEFINED (__vector_dispatch_2)?(. - _ebase_address):__vector_offset_default
 *(.vector_2)
                0x9d000208                . = ALIGN (0x4)
                0x00000228                __vector_offset_3 = DEFINED (__vector_dispatch_3)?(. - _ebase_address):__vector_offset_default
 *(.vector_3)
                0x9d000208                . = ALIGN (0x4)
                0x00000228                __vector_offset_4 = DEFINED (__vector_dispatch_4)?(. - _ebase_address):__vector_offset_default
 *(.vector_4)
                0x9d000208                . = ALIGN (0x4)
                0x00000228                __vector_offset_5 = DEFINED (__vector_dispatch_5)?(. - _ebase_address):__vector_offset_default
 *(.vector_5)
                0x9d000208                . = ALIGN (0x4)
                0x00000228                __vector_offset_6 = DEFINED (__vector_dispatch_6)?(. - _ebase_address):__vector_offset_default
 *(.vector_6)
                0x9d000208                . = ALIGN (0x4)
                0x00000228                __vector_offset_7 = DEFINED (__vector_dispatch_7)?(. - _ebase_address):__vector_offset_default
 *(.vector_7)
                0x9d000208                . = ALIGN (0x4)
                0x00000228                __vector_offset_8 = DEFINED (__vector_dispatch_8)?(. - _ebase_address):__vector_offset_default
 *(.vector_8)
                0x9d000208                . = ALIGN (0x4)
                0x00000228                __vector_offset_9 = DEFINED (__vector_dispatch_9)?(. - _ebase_address):__vector_offset_default
 *(.vector_9)
                0x9d000208                . = ALIGN (0x4)
                0x00000228                __vector_offset_10 = DEFINED (__vector_dispatch_10)?(. - _ebase_address):__vector_offset_default
 *(.vector_10)
                0x9d000208                . = ALIGN (0x4)
                0x00000228                __vector_offset_11 = DEFINED (__vector_dispatch_11)?(. - _ebase_address):__vector_offset_default
 *(.vector_11)
                0x9d000208                . = ALIGN (0x4)
                0x00000228                __vector_offset_12 = DEFINED (__vector_dispatch_12)?(. - _ebase_address):__vector_offset_default
 *(.vector_12)
                0x9d000208                . = ALIGN (0x4)
                0x00000228                __vector_offset_13 = DEFINED (__vector_dispatch_13)?(. - _ebase_address):__vector_offset_default
 *(.vector_13)
                0x9d000208                . = ALIGN (0x4)
                0x00000228                __vector_offset_14 = DEFINED (__vector_dispatch_14)?(. - _ebase_address):__vector_offset_default
 *(.vector_14)
                0x9d000208                . = ALIGN (0x4)
                0x00000228                __vector_offset_15 = DEFINED (__vector_dispatch_15)?(. - _ebase_address):__vector_offset_default
 *(.vector_15)
                0x9d000208                . = ALIGN (0x4)
                0x00000228                __vector_offset_16 = DEFINED (__vector_dispatch_16)?(. - _ebase_address):__vector_offset_default
 *(.vector_16)
                0x9d000208                . = ALIGN (0x4)
                0x00000228                __vector_offset_17 = DEFINED (__vector_dispatch_17)?(. - _ebase_address):__vector_offset_default
 *(.vector_17)
                0x9d000208                . = ALIGN (0x4)
                0x00000228                __vector_offset_18 = DEFINED (__vector_dispatch_18)?(. - _ebase_address):__vector_offset_default
 *(.vector_18)
                0x9d000208                . = ALIGN (0x4)
                0x00000228                __vector_offset_19 = DEFINED (__vector_dispatch_19)?(. - _ebase_address):__vector_offset_default
 *(.vector_19)
                0x9d000208                . = ALIGN (0x4)
                0x00000228                __vector_offset_20 = DEFINED (__vector_dispatch_20)?(. - _ebase_address):__vector_offset_default
 *(.vector_20)
                0x9d000208                . = ALIGN (0x4)
                0x00000228                __vector_offset_21 = DEFINED (__vector_dispatch_21)?(. - _ebase_address):__vector_offset_default
 *(.vector_21)
                0x9d000208                . = ALIGN (0x4)
                0x00000228                __vector_offset_22 = DEFINED (__vector_dispatch_22)?(. - _ebase_address):__vector_offset_default
 *(.vector_22)
                0x9d000208                . = ALIGN (0x4)
                0x00000228                __vector_offset_23 = DEFINED (__vector_dispatch_23)?(. - _ebase_address):__vector_offset_default
 *(.vector_23)
                0x9d000208                . = ALIGN (0x4)
                0x00000228                __vector_offset_24 = DEFINED (__vector_dispatch_24)?(. - _ebase_address):__vector_offset_default
 *(.vector_24)
                0x9d000208                . = ALIGN (0x4)
                0x00000228                __vector_offset_25 = DEFINED (__vector_dispatch_25)?(. - _ebase_address):__vector_offset_default
 *(.vector_25)
                0x9d000208                . = ALIGN (0x4)
                0x00000228                __vector_offset_26 = DEFINED (__vector_dispatch_26)?(. - _ebase_address):__vector_offset_default
 *(.vector_26)
                0x9d000208                . = ALIGN (0x4)
                0x00000228                __vector_offset_27 = DEFINED (__vector_dispatch_27)?(. - _ebase_address):__vector_offset_default
 *(.vector_27)
                0x9d000208                . = ALIGN (0x4)
                0x00000228                __vector_offset_28 = DEFINED (__vector_dispatch_28)?(. - _ebase_address):__vector_offset_default
 *(.vector_28)
                0x9d000208                . = ALIGN (0x4)
                0x00000228                __vector_offset_29 = DEFINED (__vector_dispatch_29)?(. - _ebase_address):__vector_offset_default
 *(.vector_29)
                0x9d000208                . = ALIGN (0x4)
                0x00000228                __vector_offset_30 = DEFINED (__vector_dispatch_30)?(. - _ebase_address):__vector_offset_default
 *(.vector_30)
                0x9d000208                . = ALIGN (0x4)
                0x00000228                __vector_offset_31 = DEFINED (__vector_dispatch_31)?(. - _ebase_address):__vector_offset_default
 *(.vector_31)
                0x9d000208                . = ALIGN (0x4)
                0x00000228                __vector_offset_32 = DEFINED (__vector_dispatch_32)?(. - _ebase_address):__vector_offset_default
 *(.vector_32)
                0x9d000208                . = ALIGN (0x4)
                0x00000228                __vector_offset_33 = DEFINED (__vector_dispatch_33)?(. - _ebase_address):__vector_offset_default
 *(.vector_33)
                0x9d000208                . = ALIGN (0x4)
                0x00000228                __vector_offset_34 = DEFINED (__vector_dispatch_34)?(. - _ebase_address):__vector_offset_default
 *(.vector_34)
                0x9d000208                . = ALIGN (0x4)
                0x00000228                __vector_offset_35 = DEFINED (__vector_dispatch_35)?(. - _ebase_address):__vector_offset_default
 *(.vector_35)
                0x9d000208                . = ALIGN (0x4)
                0x00000228                __vector_offset_36 = DEFINED (__vector_dispatch_36)?(. - _ebase_address):__vector_offset_default
 *(.vector_36)
                0x9d000208                . = ALIGN (0x4)
                0x00000228                __vector_offset_37 = DEFINED (__vector_dispatch_37)?(. - _ebase_address):__vector_offset_default
 *(.vector_37)
                0x9d000208                . = ALIGN (0x4)
                0x00000228                __vector_offset_38 = DEFINED (__vector_dispatch_38)?(. - _ebase_address):__vector_offset_default
 *(.vector_38)
                0x9d000208                . = ALIGN (0x4)
                0x00000228                __vector_offset_39 = DEFINED (__vector_dispatch_39)?(. - _ebase_address):__vector_offset_default
 *(.vector_39)
                0x9d000208                . = ALIGN (0x4)
                0x00000228                __vector_offset_40 = DEFINED (__vector_dispatch_40)?(. - _ebase_address):__vector_offset_default
 *(.vector_40)
                0x9d000208                . = ALIGN (0x4)
                0x00000228                __vector_offset_41 = DEFINED (__vector_dispatch_41)?(. - _ebase_address):__vector_offset_default
 *(.vector_41)
                0x9d000208                . = ALIGN (0x4)
                0x00000228                __vector_offset_42 = DEFINED (__vector_dispatch_42)?(. - _ebase_address):__vector_offset_default
 *(.vector_42)
                0x9d000208                . = ALIGN (0x4)
                0x00000228                __vector_offset_43 = DEFINED (__vector_dispatch_43)?(. - _ebase_address):__vector_offset_default
 *(.vector_43)
                0x9d000208                . = ALIGN (0x4)
                0x00000228                __vector_offset_44 = DEFINED (__vector_dispatch_44)?(. - _ebase_address):__vector_offset_default
 *(.vector_44)
                0x9d000208                . = ALIGN (0x4)
                0x00000228                __vector_offset_45 = DEFINED (__vector_dispatch_45)?(. - _ebase_address):__vector_offset_default
 *(.vector_45)
                0x9d000208                . = ALIGN (0x4)
                0x00000228                __vector_offset_46 = DEFINED (__vector_dispatch_46)?(. - _ebase_address):__vector_offset_default
 *(.vector_46)
                0x9d000208                . = ALIGN (0x4)
                0x00000228                __vector_offset_47 = DEFINED (__vector_dispatch_47)?(. - _ebase_address):__vector_offset_default
 *(.vector_47)
                0x9d000208                . = ALIGN (0x4)
                0x00000228                __vector_offset_48 = DEFINED (__vector_dispatch_48)?(. - _ebase_address):__vector_offset_default
 *(.vector_48)
                0x9d000208                . = ALIGN (0x4)
                0x00000228                __vector_offset_49 = DEFINED (__vector_dispatch_49)?(. - _ebase_address):__vector_offset_default
 *(.vector_49)
                0x9d000208                . = ALIGN (0x4)
                0x00000228                __vector_offset_50 = DEFINED (__vector_dispatch_50)?(. - _ebase_address):__vector_offset_default
 *(.vector_50)
                0x9d000208                . = ALIGN (0x4)
                0x00000228                __vector_offset_51 = DEFINED (__vector_dispatch_51)?(. - _ebase_address):__vector_offset_default
 *(.vector_51)
                0x9d000208                . = ALIGN (0x4)
                0x00000228                __vector_offset_52 = DEFINED (__vector_dispatch_52)?(. - _ebase_address):__vector_offset_default
 *(.vector_52)
                0x9d000208                . = ALIGN (0x4)
                0x00000228                __vector_offset_53 = DEFINED (__vector_dispatch_53)?(. - _ebase_address):__vector_offset_default
 *(.vector_53)
                0x9d000208                . = ALIGN (0x4)
                0x00000228                __vector_offset_54 = DEFINED (__vector_dispatch_54)?(. - _ebase_address):__vector_offset_default
 *(.vector_54)
                0x9d000208                . = ALIGN (0x4)
                0x00000228                __vector_offset_55 = DEFINED (__vector_dispatch_55)?(. - _ebase_address):__vector_offset_default
 *(.vector_55)
                0x9d000208                . = ALIGN (0x4)
                0x00000228                __vector_offset_56 = DEFINED (__vector_dispatch_56)?(. - _ebase_address):__vector_offset_default
 *(.vector_56)
                0x9d000208                . = ALIGN (0x4)
                0x00000228                __vector_offset_57 = DEFINED (__vector_dispatch_57)?(. - _ebase_address):__vector_offset_default
 *(.vector_57)
                0x9d000208                . = ALIGN (0x4)
                0x00000228                __vector_offset_58 = DEFINED (__vector_dispatch_58)?(. - _ebase_address):__vector_offset_default
 *(.vector_58)
                0x9d000208                . = ALIGN (0x4)
                0x00000228                __vector_offset_59 = DEFINED (__vector_dispatch_59)?(. - _ebase_address):__vector_offset_default
 *(.vector_59)
                0x9d000208                . = ALIGN (0x4)
                0x00000228                __vector_offset_60 = DEFINED (__vector_dispatch_60)?(. - _ebase_address):__vector_offset_default
 *(.vector_60)
                0x9d000208                . = ALIGN (0x4)
                0x00000228                __vector_offset_61 = DEFINED (__vector_dispatch_61)?(. - _ebase_address):__vector_offset_default
 *(.vector_61)
                0x9d000208                . = ALIGN (0x4)
                0x00000228                __vector_offset_62 = DEFINED (__vector_dispatch_62)?(. - _ebase_address):__vector_offset_default
 *(.vector_62)
                0x9d000208                . = ALIGN (0x4)
                0x00000228                __vector_offset_63 = DEFINED (__vector_dispatch_63)?(. - _ebase_address):__vector_offset_default
 *(.vector_63)
                0x9d000208                . = ALIGN (0x4)
                0x00000228                __vector_offset_64 = DEFINED (__vector_dispatch_64)?(. - _ebase_address):__vector_offset_default
 *(.vector_64)
                0x9d000208                . = ALIGN (0x4)
                0x00000228                __vector_offset_65 = DEFINED (__vector_dispatch_65)?(. - _ebase_address):__vector_offset_default
 *(.vector_65)
                0x9d000208                . = ALIGN (0x4)
                0x00000228                __vector_offset_66 = DEFINED (__vector_dispatch_66)?(. - _ebase_address):__vector_offset_default
 *(.vector_66)
                0x9d000208                . = ALIGN (0x4)
                0x00000228                __vector_offset_67 = DEFINED (__vector_dispatch_67)?(. - _ebase_address):__vector_offset_default
 *(.vector_67)
                0x9d000208                . = ALIGN (0x4)
                0x00000228                __vector_offset_68 = DEFINED (__vector_dispatch_68)?(. - _ebase_address):__vector_offset_default
 *(.vector_68)
                0x9d000208                . = ALIGN (0x4)
                0x00000228                __vector_offset_69 = DEFINED (__vector_dispatch_69)?(. - _ebase_address):__vector_offset_default
 *(.vector_69)
                0x9d000208                . = ALIGN (0x4)
                0x00000228                __vector_offset_70 = DEFINED (__vector_dispatch_70)?(. - _ebase_address):__vector_offset_default
 *(.vector_70)
                0x9d000208                . = ALIGN (0x4)
                0x00000228                __vector_offset_71 = DEFINED (__vector_dispatch_71)?(. - _ebase_address):__vector_offset_default
 *(.vector_71)
                0x9d000208                . = ALIGN (0x4)
                0x00000228                __vector_offset_72 = DEFINED (__vector_dispatch_72)?(. - _ebase_address):__vector_offset_default
 *(.vector_72)
                0x9d000208                . = ALIGN (0x4)
                0x00000228                __vector_offset_73 = DEFINED (__vector_dispatch_73)?(. - _ebase_address):__vector_offset_default
 *(.vector_73)
                0x9d000208                . = ALIGN (0x4)
                0x00000228                __vector_offset_74 = DEFINED (__vector_dispatch_74)?(. - _ebase_address):__vector_offset_default
 *(.vector_74)
                0x9d000208                . = ALIGN (0x4)
                0x00000228                __vector_offset_75 = DEFINED (__vector_dispatch_75)?(. - _ebase_address):__vector_offset_default
 *(.vector_75)
                0x9d000208                . = ALIGN (0x4)
                0x00000228                __vector_offset_76 = DEFINED (__vector_dispatch_76)?(. - _ebase_address):__vector_offset_default
 *(.vector_76)
                0x9d000208                . = ALIGN (0x4)
                0x00000228                __vector_offset_77 = DEFINED (__vector_dispatch_77)?(. - _ebase_address):__vector_offset_default
 *(.vector_77)
                0x9d000208                . = ALIGN (0x4)
                0x00000228                __vector_offset_78 = DEFINED (__vector_dispatch_78)?(. - _ebase_address):__vector_offset_default
 *(.vector_78)
                0x9d000208                . = ALIGN (0x4)
                0x00000228                __vector_offset_79 = DEFINED (__vector_dispatch_79)?(. - _ebase_address):__vector_offset_default
 *(.vector_79)
                0x9d000208                . = ALIGN (0x4)
                0x00000228                __vector_offset_80 = DEFINED (__vector_dispatch_80)?(. - _ebase_address):__vector_offset_default
 *(.vector_80)
                0x9d000208                . = ALIGN (0x4)
                0x00000228                __vector_offset_81 = DEFINED (__vector_dispatch_81)?(. - _ebase_address):__vector_offset_default
 *(.vector_81)
                0x9d000208                . = ALIGN (0x4)
                0x00000228                __vector_offset_82 = DEFINED (__vector_dispatch_82)?(. - _ebase_address):__vector_offset_default
 *(.vector_82)
                0x9d000208                . = ALIGN (0x4)
                0x00000228                __vector_offset_83 = DEFINED (__vector_dispatch_83)?(. - _ebase_address):__vector_offset_default
 *(.vector_83)
                0x9d000208                . = ALIGN (0x4)
                0x00000228                __vector_offset_84 = DEFINED (__vector_dispatch_84)?(. - _ebase_address):__vector_offset_default
 *(.vector_84)
                0x9d000208                . = ALIGN (0x4)
                0x00000228                __vector_offset_85 = DEFINED (__vector_dispatch_85)?(. - _ebase_address):__vector_offset_default
 *(.vector_85)
                0x9d000208                . = ALIGN (0x4)
                0x00000228                __vector_offset_86 = DEFINED (__vector_dispatch_86)?(. - _ebase_address):__vector_offset_default
 *(.vector_86)
                0x9d000208                . = ALIGN (0x4)
                0x00000228                __vector_offset_87 = DEFINED (__vector_dispatch_87)?(. - _ebase_address):__vector_offset_default
 *(.vector_87)
                0x9d000208                . = ALIGN (0x4)
                0x00000228                __vector_offset_88 = DEFINED (__vector_dispatch_88)?(. - _ebase_address):__vector_offset_default
 *(.vector_88)
                0x9d000208                . = ALIGN (0x4)
                0x00000228                __vector_offset_89 = DEFINED (__vector_dispatch_89)?(. - _ebase_address):__vector_offset_default
 *(.vector_89)
                0x9d000208                . = ALIGN (0x4)
                0x00000228                __vector_offset_90 = DEFINED (__vector_dispatch_90)?(. - _ebase_address):__vector_offset_default
 *(.vector_90)
                0x9d000208                . = ALIGN (0x4)
                0x00000228                __vector_offset_91 = DEFINED (__vector_dispatch_91)?(. - _ebase_address):__vector_offset_default
 *(.vector_91)
                0x9d000208                . = ALIGN (0x4)
                0x00000228                __vector_offset_92 = DEFINED (__vector_dispatch_92)?(. - _ebase_address):__vector_offset_default
 *(.vector_92)
                0x9d000208                . = ALIGN (0x4)
                0x00000228                __vector_offset_93 = DEFINED (__vector_dispatch_93)?(. - _ebase_address):__vector_offset_default
 *(.vector_93)
                0x9d000208                . = ALIGN (0x4)
                0x00000228                __vector_offset_94 = DEFINED (__vector_dispatch_94)?(. - _ebase_address):__vector_offset_default
 *(.vector_94)
                0x9d000208                . = ALIGN (0x4)
                0x00000228                __vector_offset_95 = DEFINED (__vector_dispatch_95)?(. - _ebase_address):__vector_offset_default
 *(.vector_95)
                0x9d000208                . = ALIGN (0x4)
                0x00000228                __vector_offset_96 = DEFINED (__vector_dispatch_96)?(. - _ebase_address):__vector_offset_default
 *(.vector_96)
                0x9d000208                . = ALIGN (0x4)
                0x00000228                __vector_offset_97 = DEFINED (__vector_dispatch_97)?(. - _ebase_address):__vector_offset_default
 *(.vector_97)
                0x9d000208                . = ALIGN (0x4)
                0x00000228                __vector_offset_98 = DEFINED (__vector_dispatch_98)?(. - _ebase_address):__vector_offset_default
 *(.vector_98)
                0x9d000208                . = ALIGN (0x4)
                0x00000228                __vector_offset_99 = DEFINED (__vector_dispatch_99)?(. - _ebase_address):__vector_offset_default
 *(.vector_99)
                0x9d000208                . = ALIGN (0x4)
                0x00000228                __vector_offset_100 = DEFINED (__vector_dispatch_100)?(. - _ebase_address):__vector_offset_default
 *(.vector_100)
                0x9d000208                . = ALIGN (0x4)
                0x00000228                __vector_offset_101 = DEFINED (__vector_dispatch_101)?(. - _ebase_address):__vector_offset_default
 *(.vector_101)
                0x9d000208                . = ALIGN (0x4)
                0x00000228                __vector_offset_102 = DEFINED (__vector_dispatch_102)?(. - _ebase_address):__vector_offset_default
 *(.vector_102)
                0x9d000208                . = ALIGN (0x4)
                0x00000228                __vector_offset_103 = DEFINED (__vector_dispatch_103)?(. - _ebase_address):__vector_offset_default
 *(.vector_103)
                0x9d000208                . = ALIGN (0x4)
                0x00000228                __vector_offset_104 = DEFINED (__vector_dispatch_104)?(. - _ebase_address):__vector_offset_default
 *(.vector_104)
                0x9d000208                . = ALIGN (0x4)
                0x00000228                __vector_offset_105 = DEFINED (__vector_dispatch_105)?(. - _ebase_address):__vector_offset_default
 *(.vector_105)
                0x9d000208                . = ALIGN (0x4)
                0x00000228                __vector_offset_106 = DEFINED (__vector_dispatch_106)?(. - _ebase_address):__vector_offset_default
 *(.vector_106)
                0x9d000208                . = ALIGN (0x4)
                0x00000228                __vector_offset_107 = DEFINED (__vector_dispatch_107)?(. - _ebase_address):__vector_offset_default
 *(.vector_107)
                0x9d000208                . = ALIGN (0x4)
                0x00000228                __vector_offset_108 = DEFINED (__vector_dispatch_108)?(. - _ebase_address):__vector_offset_default
 *(.vector_108)
                0x9d000208                . = ALIGN (0x4)
                0x00000228                __vector_offset_109 = DEFINED (__vector_dispatch_109)?(. - _ebase_address):__vector_offset_default
 *(.vector_109)
                0x9d000208                . = ALIGN (0x4)
                0x00000228                __vector_offset_110 = DEFINED (__vector_dispatch_110)?(. - _ebase_address):__vector_offset_default
 *(.vector_110)
                0x9d000208                . = ALIGN (0x4)
                0x00000228                __vector_offset_111 = DEFINED (__vector_dispatch_111)?(. - _ebase_address):__vector_offset_default
 *(.vector_111)
                0x9d000208                . = ALIGN (0x4)
                0x00000228                __vector_offset_112 = DEFINED (__vector_dispatch_112)?(. - _ebase_address):__vector_offset_default
 *(.vector_112)
                0x9d000208                . = ALIGN (0x4)
                0x00000228                __vector_offset_113 = DEFINED (__vector_dispatch_113)?(. - _ebase_address):__vector_offset_default
 *(.vector_113)
                0x9d000208                . = ALIGN (0x4)
                0x00000228                __vector_offset_114 = DEFINED (__vector_dispatch_114)?(. - _ebase_address):__vector_offset_default
 *(.vector_114)
                0x9d000208                . = ALIGN (0x4)
                0x00000228                __vector_offset_115 = DEFINED (__vector_dispatch_115)?(. - _ebase_address):__vector_offset_default
 *(.vector_115)
                0x9d000208                . = ALIGN (0x4)
                0x00000228                __vector_offset_116 = DEFINED (__vector_dispatch_116)?(. - _ebase_address):__vector_offset_default
 *(.vector_116)
                0x9d000208                . = ALIGN (0x4)
                0x00000228                __vector_offset_117 = DEFINED (__vector_dispatch_117)?(. - _ebase_address):__vector_offset_default
 *(.vector_117)
                0x9d000208                . = ALIGN (0x4)
                0x00000228                __vector_offset_118 = DEFINED (__vector_dispatch_118)?(. - _ebase_address):__vector_offset_default
 *(.vector_118)
                0x9d000208                . = ALIGN (0x4)
                0x00000228                __vector_offset_119 = DEFINED (__vector_dispatch_119)?(. - _ebase_address):__vector_offset_default
 *(.vector_119)
                0x9d000208                . = ALIGN (0x4)
                0x00000228                __vector_offset_120 = DEFINED (__vector_dispatch_120)?(. - _ebase_address):__vector_offset_default
 *(.vector_120)
                0x9d000208                . = ALIGN (0x4)
                0x00000228                __vector_offset_121 = DEFINED (__vector_dispatch_121)?(. - _ebase_address):__vector_offset_default
 *(.vector_121)
                0x9d000208                . = ALIGN (0x4)
                0x00000228                __vector_offset_122 = DEFINED (__vector_dispatch_122)?(. - _ebase_address):__vector_offset_default
 *(.vector_122)
                0x9d000208                . = ALIGN (0x4)
                0x00000228                __vector_offset_123 = DEFINED (__vector_dispatch_123)?(. - _ebase_address):__vector_offset_default
 *(.vector_123)
                0x9d000208                . = ALIGN (0x4)
                0x00000228                __vector_offset_124 = DEFINED (__vector_dispatch_124)?(. - _ebase_address):__vector_offset_default
 *(.vector_124)
                0x9d000208                . = ALIGN (0x4)
                0x00000228                __vector_offset_125 = DEFINED (__vector_dispatch_125)?(. - _ebase_address):__vector_offset_default
 *(.vector_125)
                0x9d000208                . = ALIGN (0x4)
                0x00000228                __vector_offset_126 = DEFINED (__vector_dispatch_126)?(. - _ebase_address):__vector_offset_default
 *(.vector_126)
                0x9d000208                . = ALIGN (0x4)
                0x00000228                __vector_offset_127 = DEFINED (__vector_dispatch_127)?(. - _ebase_address):__vector_offset_default
 *(.vector_127)
                0x9d000208                . = ALIGN (0x4)
                0x00000228                __vector_offset_128 = DEFINED (__vector_dispatch_128)?(. - _ebase_address):__vector_offset_default
 *(.vector_128)
                0x9d000208                . = ALIGN (0x4)
                0x00000228                __vector_offset_129 = DEFINED (__vector_dispatch_129)?(. - _ebase_address):__vector_offset_default
 *(.vector_129)
                0x9d000208                . = ALIGN (0x4)
                0x00000228                __vector_offset_130 = DEFINED (__vector_dispatch_130)?(. - _ebase_address):__vector_offset_default
 *(.vector_130)
                0x9d000208                . = ALIGN (0x4)
                0x00000228                __vector_offset_131 = DEFINED (__vector_dispatch_131)?(. - _ebase_address):__vector_offset_default
 *(.vector_131)
                0x9d000208                . = ALIGN (0x4)
                0x00000228                __vector_offset_132 = DEFINED (__vector_dispatch_132)?(. - _ebase_address):__vector_offset_default
 *(.vector_132)
                0x9d000208                . = ALIGN (0x4)
                0x00000228                __vector_offset_133 = DEFINED (__vector_dispatch_133)?(. - _ebase_address):__vector_offset_default
 *(.vector_133)
                0x9d000208                . = ALIGN (0x4)
                0x00000228                __vector_offset_134 = DEFINED (__vector_dispatch_134)?(. - _ebase_address):__vector_offset_default
 *(.vector_134)
                0x9d000208                . = ALIGN (0x4)
                0x00000228                __vector_offset_135 = DEFINED (__vector_dispatch_135)?(. - _ebase_address):__vector_offset_default
 *(.vector_135)
                0x9d000208                . = ALIGN (0x4)
                0x00000228                __vector_offset_136 = DEFINED (__vector_dispatch_136)?(. - _ebase_address):__vector_offset_default
 *(.vector_136)
                0x9d000208                . = ALIGN (0x4)
                0x00000228                __vector_offset_137 = DEFINED (__vector_dispatch_137)?(. - _ebase_address):__vector_offset_default
 *(.vector_137)
                0x9d000208                . = ALIGN (0x4)
                0x00000228                __vector_offset_138 = DEFINED (__vector_dispatch_138)?(. - _ebase_address):__vector_offset_default
 *(.vector_138)
                0x9d000208                . = ALIGN (0x4)
                0x00000228                __vector_offset_139 = DEFINED (__vector_dispatch_139)?(. - _ebase_address):__vector_offset_default
 *(.vector_139)
                0x9d000208                . = ALIGN (0x4)
                0x00000228                __vector_offset_140 = DEFINED (__vector_dispatch_140)?(. - _ebase_address):__vector_offset_default
 *(.vector_140)
                0x9d000208                . = ALIGN (0x4)
                0x00000228                __vector_offset_141 = DEFINED (__vector_dispatch_141)?(. - _ebase_address):__vector_offset_default
 *(.vector_141)
                0x9d000208                . = ALIGN (0x4)
                0x00000228                __vector_offset_142 = DEFINED (__vector_dispatch_142)?(. - _ebase_address):__vector_offset_default
 *(.vector_142)
                0x9d000208                . = ALIGN (0x4)
                0x00000228                __vector_offset_143 = DEFINED (__vector_dispatch_143)?(. - _ebase_address):__vector_offset_default
 *(.vector_143)
                0x9d000208                . = ALIGN (0x4)
                0x00000228                __vector_offset_144 = DEFINED (__vector_dispatch_144)?(. - _ebase_address):__vector_offset_default
 *(.vector_144)
                0x9d000208                . = ALIGN (0x4)
                0x00000208                __vector_offset_145 = DEFINED (__vector_dispatch_145)?(. - _ebase_address):__vector_offset_default
 *(.vector_145)
 .vector_145    0x9d000208        0x8 build/pic32mz_ef_sk/production/_ext/942849350/interrupts.o
                0x9d000208                __vector_dispatch_145
                0x9d000210                . = ALIGN (0x4)
                0x00000210                __vector_offset_146 = DEFINED (__vector_dispatch_146)?(. - _ebase_address):__vector_offset_default
 *(.vector_146)
 .vector_146    0x9d000210        0x8 build/pic32mz_ef_sk/production/_ext/942849350/interrupts.o
                0x9d000210                __vector_dispatch_146
                0x9d000218                . = ALIGN (0x4)
                0x00000218                __vector_offset_147 = DEFINED (__vector_dispatch_147)?(. - _ebase_address):__vector_offset_default
 *(.vector_147)
 .vector_147    0x9d000218        0x8 build/pic32mz_ef_sk/production/_ext/942849350/interrupts.o
                0x9d000218                __vector_dispatch_147
                0x9d000220                . = ALIGN (0x4)
                0x00000228                __vector_offset_148 = DEFINED (__vector_dispatch_148)?(. - _ebase_address):__vector_offset_default
 *(.vector_148)
                0x9d000220                . = ALIGN (0x4)
                0x00000228                __vector_offset_149 = DEFINED (__vector_dispatch_149)?(. - _ebase_address):__vector_offset_default
 *(.vector_149)
                0x9d000220                . = ALIGN (0x4)
                0x00000228                __vector_offset_150 = DEFINED (__vector_dispatch_150)?(. - _ebase_address):__vector_offset_default
 *(.vector_150)
                0x9d000220                . = ALIGN (0x4)
                0x00000228                __vector_offset_151 = DEFINED (__vector_dispatch_151)?(. - _ebase_address):__vector_offset_default
 *(.vector_151)
                0x9d000220                . = ALIGN (0x4)
                0x00000228                __vector_offset_152 = DEFINED (__vector_dispatch_152)?(. - _ebase_address):__vector_offset_default
 *(.vector_152)
                0x9d000220                . = ALIGN (0x4)
                0x00000220                __vector_offset_153 = DEFINED (__vector_dispatch_153)?(. - _ebase_address):__vector_offset_default
 *(.vector_153)
 .vector_153    0x9d000220        0x8 build/pic32mz_ef_sk/production/_ext/942849350/interrupts.o
                0x9d000220                __vector_dispatch_153
                0x9d000228                . = ALIGN (0x4)
                0x00000228                __vector_offset_154 = DEFINED (__vector_dispatch_154)?(. - _ebase_address):__vector_offset_default
 *(.vector_154)
                0x9d000228                . = ALIGN (0x4)
                0x00000228                __vector_offset_155 = DEFINED (__vector_dispatch_155)?(. - _ebase_address):__vector_offset_default
 *(.vector_155)
                0x9d000228                . = ALIGN (0x4)
                0x00000228                __vector_offset_156 = DEFINED (__vector_dispatch_156)?(. - _ebase_address):__vector_offset_default
 *(.vector_156)
                0x9d000228                . = ALIGN (0x4)
                0x00000228                __vector_offset_157 = DEFINED (__vector_dispatch_157)?(. - _ebase_address):__vector_offset_default
 *(.vector_157)
                0x9d000228                . = ALIGN (0x4)
                0x00000228                __vector_offset_158 = DEFINED (__vector_dispatch_158)?(. - _ebase_address):__vector_offset_default
 *(.vector_158)
                0x9d000228                . = ALIGN (0x4)
                0x00000228                __vector_offset_159 = DEFINED (__vector_dispatch_159)?(. - _ebase_address):__vector_offset_default
 *(.vector_159)
                0x9d000228                . = ALIGN (0x4)
                0x00000228                __vector_offset_160 = DEFINED (__vector_dispatch_160)?(. - _ebase_address):__vector_offset_default
 *(.vector_160)
                0x9d000228                . = ALIGN (0x4)
                0x00000228                __vector_offset_161 = DEFINED (__vector_dispatch_161)?(. - _ebase_address):__vector_offset_default
 *(.vector_161)
                0x9d000228                . = ALIGN (0x4)
                0x00000228                __vector_offset_162 = DEFINED (__vector_dispatch_162)?(. - _ebase_address):__vector_offset_default
 *(.vector_162)
                0x9d000228                . = ALIGN (0x4)
                0x00000228                __vector_offset_163 = DEFINED (__vector_dispatch_163)?(. - _ebase_address):__vector_offset_default
 *(.vector_163)
                0x9d000228                . = ALIGN (0x4)
                0x00000228                __vector_offset_164 = DEFINED (__vector_dispatch_164)?(. - _ebase_address):__vector_offset_default
 *(.vector_164)
                0x9d000228                . = ALIGN (0x4)
                0x00000228                __vector_offset_165 = DEFINED (__vector_dispatch_165)?(. - _ebase_address):__vector_offset_default
 *(.vector_165)
                0x9d000228                . = ALIGN (0x4)
                0x00000228                __vector_offset_166 = DEFINED (__vector_dispatch_166)?(. - _ebase_address):__vector_offset_default
 *(.vector_166)
                0x9d000228                . = ALIGN (0x4)
                0x00000228                __vector_offset_167 = DEFINED (__vector_dispatch_167)?(. - _ebase_address):__vector_offset_default
 *(.vector_167)
                0x9d000228                . = ALIGN (0x4)
                0x00000228                __vector_offset_168 = DEFINED (__vector_dispatch_168)?(. - _ebase_address):__vector_offset_default
 *(.vector_168)
                0x9d000228                . = ALIGN (0x4)
                0x00000228                __vector_offset_169 = DEFINED (__vector_dispatch_169)?(. - _ebase_address):__vector_offset_default
 *(.vector_169)
                0x9d000228                . = ALIGN (0x4)
                0x00000228                __vector_offset_170 = DEFINED (__vector_dispatch_170)?(. - _ebase_address):__vector_offset_default
 *(.vector_170)
                0x9d000228                . = ALIGN (0x4)
                0x00000228                __vector_offset_171 = DEFINED (__vector_dispatch_171)?(. - _ebase_address):__vector_offset_default
 *(.vector_171)
                0x9d000228                . = ALIGN (0x4)
                0x00000228                __vector_offset_172 = DEFINED (__vector_dispatch_172)?(. - _ebase_address):__vector_offset_default
 *(.vector_172)
                0x9d000228                . = ALIGN (0x4)
                0x00000228                __vector_offset_173 = DEFINED (__vector_dispatch_173)?(. - _ebase_address):__vector_offset_default
 *(.vector_173)
                0x9d000228                . = ALIGN (0x4)
                0x00000228                __vector_offset_174 = DEFINED (__vector_dispatch_174)?(. - _ebase_address):__vector_offset_default
 *(.vector_174)
                0x9d000228                . = ALIGN (0x4)
                0x00000228                __vector_offset_175 = DEFINED (__vector_dispatch_175)?(. - _ebase_address):__vector_offset_default
 *(.vector_175)
                0x9d000228                . = ALIGN (0x4)
                0x00000228                __vector_offset_176 = DEFINED (__vector_dispatch_176)?(. - _ebase_address):__vector_offset_default
 *(.vector_176)
                0x9d000228                . = ALIGN (0x4)
                0x00000228                __vector_offset_177 = DEFINED (__vector_dispatch_177)?(. - _ebase_address):__vector_offset_default
 *(.vector_177)
                0x9d000228                . = ALIGN (0x4)
                0x00000228                __vector_offset_178 = DEFINED (__vector_dispatch_178)?(. - _ebase_address):__vector_offset_default
 *(.vector_178)
                0x9d000228                . = ALIGN (0x4)
                0x00000228                __vector_offset_179 = DEFINED (__vector_dispatch_179)?(. - _ebase_address):__vector_offset_default
 *(.vector_179)
                0x9d000228                . = ALIGN (0x4)
                0x00000228                __vector_offset_180 = DEFINED (__vector_dispatch_180)?(. - _ebase_address):__vector_offset_default
 *(.vector_180)
                0x9d000228                . = ALIGN (0x4)
                0x00000228                __vector_offset_181 = DEFINED (__vector_dispatch_181)?(. - _ebase_address):__vector_offset_default
 *(.vector_181)
                0x9d000228                . = ALIGN (0x4)
                0x00000228                __vector_offset_182 = DEFINED (__vector_dispatch_182)?(. - _ebase_address):__vector_offset_default
 *(.vector_182)
                0x9d000228                . = ALIGN (0x4)
                0x00000228                __vector_offset_183 = DEFINED (__vector_dispatch_183)?(. - _ebase_address):__vector_offset_default
 *(.vector_183)
                0x9d000228                . = ALIGN (0x4)
                0x00000228                __vector_offset_184 = DEFINED (__vector_dispatch_184)?(. - _ebase_address):__vector_offset_default
 *(.vector_184)
                0x9d000228                . = ALIGN (0x4)
                0x00000228                __vector_offset_185 = DEFINED (__vector_dispatch_185)?(. - _ebase_address):__vector_offset_default
 *(.vector_185)
                0x9d000228                . = ALIGN (0x4)
                0x00000228                __vector_offset_186 = DEFINED (__vector_dispatch_186)?(. - _ebase_address):__vector_offset_default
 *(.vector_186)
                0x9d000228                . = ALIGN (0x4)
                0x00000228                __vector_offset_187 = DEFINED (__vector_dispatch_187)?(. - _ebase_address):__vector_offset_default
 *(.vector_187)
                0x9d000228                . = ALIGN (0x4)
                0x00000228                __vector_offset_188 = DEFINED (__vector_dispatch_188)?(. - _ebase_address):__vector_offset_default
 *(.vector_188)
                0x9d000228                . = ALIGN (0x4)
                0x00000228                __vector_offset_189 = DEFINED (__vector_dispatch_189)?(. - _ebase_address):__vector_offset_default
 *(.vector_189)
                0x9d000228                . = ALIGN (0x4)
                0x00000228                __vector_offset_190 = DEFINED (__vector_dispatch_190)?(. - _ebase_address):__vector_offset_default
 *(.vector_190)
                0x9d000228                . = ALIGN (0x4)
                0x00000228                __vector_offset_191 = DEFINED (__vector_dispatch_191)?(. - _ebase_address):__vector_offset_default
 *(.vector_191)
                0x9d000228                . = ALIGN (0x4)
                0x00000228                __vector_offset_192 = DEFINED (__vector_dispatch_192)?(. - _ebase_address):__vector_offset_default
 *(.vector_192)
                0x9d000228                . = ALIGN (0x4)
                0x00000228                __vector_offset_193 = DEFINED (__vector_dispatch_193)?(. - _ebase_address):__vector_offset_default
 *(.vector_193)
                0x9d000228                . = ALIGN (0x4)
                0x00000228                __vector_offset_194 = DEFINED (__vector_dispatch_194)?(. - _ebase_address):__vector_offset_default
 *(.vector_194)
                0x9d000228                . = ALIGN (0x4)
                0x00000228                __vector_offset_195 = DEFINED (__vector_dispatch_195)?(. - _ebase_address):__vector_offset_default
 *(.vector_195)
                0x9d000228                . = ALIGN (0x4)
                0x00000228                __vector_offset_196 = DEFINED (__vector_dispatch_196)?(. - _ebase_address):__vector_offset_default
 *(.vector_196)
                0x9d000228                . = ALIGN (0x4)
                0x00000228                __vector_offset_197 = DEFINED (__vector_dispatch_197)?(. - _ebase_address):__vector_offset_default
 *(.vector_197)
                0x9d000228                . = ALIGN (0x4)
                0x00000228                __vector_offset_198 = DEFINED (__vector_dispatch_198)?(. - _ebase_address):__vector_offset_default
 *(.vector_198)
                0x9d000228                . = ALIGN (0x4)
                0x00000228                __vector_offset_199 = DEFINED (__vector_dispatch_199)?(. - _ebase_address):__vector_offset_default
 *(.vector_199)
                0x9d000228                . = ALIGN (0x4)
                0x00000228                __vector_offset_200 = DEFINED (__vector_dispatch_200)?(. - _ebase_address):__vector_offset_default
 *(.vector_200)
                0x9d000228                . = ALIGN (0x4)
                0x00000228                __vector_offset_201 = DEFINED (__vector_dispatch_201)?(. - _ebase_address):__vector_offset_default
 *(.vector_201)
                0x9d000228                . = ALIGN (0x4)
                0x00000228                __vector_offset_202 = DEFINED (__vector_dispatch_202)?(. - _ebase_address):__vector_offset_default
 *(.vector_202)
                0x9d000228                . = ALIGN (0x4)
                0x00000228                __vector_offset_203 = DEFINED (__vector_dispatch_203)?(. - _ebase_address):__vector_offset_default
 *(.vector_203)
                0x9d000228                . = ALIGN (0x4)
                0x00000228                __vector_offset_204 = DEFINED (__vector_dispatch_204)?(. - _ebase_address):__vector_offset_default
 *(.vector_204)
                0x9d000228                . = ALIGN (0x4)
                0x00000228                __vector_offset_205 = DEFINED (__vector_dispatch_205)?(. - _ebase_address):__vector_offset_default
 *(.vector_205)
                0x9d000228                . = ALIGN (0x4)
                0x00000228                __vector_offset_206 = DEFINED (__vector_dispatch_206)?(. - _ebase_address):__vector_offset_default
 *(.vector_206)
                0x9d000228                . = ALIGN (0x4)
                0x00000228                __vector_offset_207 = DEFINED (__vector_dispatch_207)?(. - _ebase_address):__vector_offset_default
 *(.vector_207)
                0x9d000228                . = ALIGN (0x4)
                0x00000228                __vector_offset_208 = DEFINED (__vector_dispatch_208)?(. - _ebase_address):__vector_offset_default
 *(.vector_208)
                0x9d000228                . = ALIGN (0x4)
                0x00000228                __vector_offset_209 = DEFINED (__vector_dispatch_209)?(. - _ebase_address):__vector_offset_default
 *(.vector_209)
                0x9d000228                . = ALIGN (0x4)
                0x00000228                __vector_offset_210 = DEFINED (__vector_dispatch_210)?(. - _ebase_address):__vector_offset_default
 *(.vector_210)
                0x9d000228                . = ALIGN (0x4)
                0x00000228                __vector_offset_211 = DEFINED (__vector_dispatch_211)?(. - _ebase_address):__vector_offset_default
 *(.vector_211)
                0x9d000228                . = ALIGN (0x4)
                0x00000228                __vector_offset_212 = DEFINED (__vector_dispatch_212)?(. - _ebase_address):__vector_offset_default
 *(.vector_212)
                0x9d000228                . = ALIGN (0x4)
                0x00000228                __vector_offset_213 = DEFINED (__vector_dispatch_213)?(. - _ebase_address):__vector_offset_default
 *(.vector_213)
                0x9d000228                . = ALIGN (0x4)
                0x00000228                __vector_offset_214 = DEFINED (__vector_dispatch_214)?(. - _ebase_address):__vector_offset_default
 *(.vector_214)
                0x9d000228                . = ALIGN (0x4)
                0x00000228                __vector_offset_215 = DEFINED (__vector_dispatch_215)?(. - _ebase_address):__vector_offset_default
 *(.vector_215)
                0x9d000228                . = ALIGN (0x4)
                0x00000228                __vector_offset_216 = DEFINED (__vector_dispatch_216)?(. - _ebase_address):__vector_offset_default
 *(.vector_216)
                0x9d000228                . = ALIGN (0x4)
                0x00000228                __vector_offset_217 = DEFINED (__vector_dispatch_217)?(. - _ebase_address):__vector_offset_default
 *(.vector_217)
                0x9d000228                . = ALIGN (0x4)
                0x00000228                __vector_offset_218 = DEFINED (__vector_dispatch_218)?(. - _ebase_address):__vector_offset_default
 *(.vector_218)
                0x9d000228                . = ALIGN (0x4)
                0x00000228                __vector_offset_219 = DEFINED (__vector_dispatch_219)?(. - _ebase_address):__vector_offset_default
 *(.vector_219)
                0x9d000228                . = ALIGN (0x4)
                0x00000228                __vector_offset_220 = DEFINED (__vector_dispatch_220)?(. - _ebase_address):__vector_offset_default
 *(.vector_220)
                0x9d000228                . = ALIGN (0x4)
                0x00000228                __vector_offset_221 = DEFINED (__vector_dispatch_221)?(. - _ebase_address):__vector_offset_default
 *(.vector_221)
                0x9d000228                . = ALIGN (0x4)
                0x00000228                __vector_offset_222 = DEFINED (__vector_dispatch_222)?(. - _ebase_address):__vector_offset_default
 *(.vector_222)
                0x9d000228                . = ALIGN (0x4)
                0x00000228                __vector_offset_223 = DEFINED (__vector_dispatch_223)?(. - _ebase_address):__vector_offset_default
 *(.vector_223)
                0x9d000228                . = ALIGN (0x4)
                0x00000228                __vector_offset_224 = DEFINED (__vector_dispatch_224)?(. - _ebase_address):__vector_offset_default
 *(.vector_224)
                0x9d000228                . = ALIGN (0x4)
                0x00000228                __vector_offset_225 = DEFINED (__vector_dispatch_225)?(. - _ebase_address):__vector_offset_default
 *(.vector_225)
                0x9d000228                . = ALIGN (0x4)
                0x00000228                __vector_offset_226 = DEFINED (__vector_dispatch_226)?(. - _ebase_address):__vector_offset_default
 *(.vector_226)
                0x9d000228                . = ALIGN (0x4)
                0x00000228                __vector_offset_227 = DEFINED (__vector_dispatch_227)?(. - _ebase_address):__vector_offset_default
 *(.vector_227)
                0x9d000228                . = ALIGN (0x4)
                0x00000228                __vector_offset_228 = DEFINED (__vector_dispatch_228)?(. - _ebase_address):__vector_offset_default
 *(.vector_228)
                0x9d000228                . = ALIGN (0x4)
                0x00000228                __vector_offset_229 = DEFINED (__vector_dispatch_229)?(. - _ebase_address):__vector_offset_default
 *(.vector_229)
                0x9d000228                . = ALIGN (0x4)
                0x00000228                __vector_offset_230 = DEFINED (__vector_dispatch_230)?(. - _ebase_address):__vector_offset_default
 *(.vector_230)
                0x9d000228                . = ALIGN (0x4)
                0x00000228                __vector_offset_231 = DEFINED (__vector_dispatch_231)?(. - _ebase_address):__vector_offset_default
 *(.vector_231)
                0x9d000228                . = ALIGN (0x4)
                0x00000228                __vector_offset_232 = DEFINED (__vector_dispatch_232)?(. - _ebase_address):__vector_offset_default
 *(.vector_232)
                0x9d000228                . = ALIGN (0x4)
                0x00000228                __vector_offset_233 = DEFINED (__vector_dispatch_233)?(. - _ebase_address):__vector_offset_default
 *(.vector_233)
                0x9d000228                . = ALIGN (0x4)
                0x00000228                __vector_offset_234 = DEFINED (__vector_dispatch_234)?(. - _ebase_address):__vector_offset_default
 *(.vector_234)
                0x9d000228                . = ALIGN (0x4)
                0x00000228                __vector_offset_235 = DEFINED (__vector_dispatch_235)?(. - _ebase_address):__vector_offset_default
 *(.vector_235)
                0x9d000228                . = ALIGN (0x4)
                0x00000228                __vector_offset_236 = DEFINED (__vector_dispatch_236)?(. - _ebase_address):__vector_offset_default
 *(.vector_236)
                0x9d000228                . = ALIGN (0x4)
                0x00000228                __vector_offset_237 = DEFINED (__vector_dispatch_237)?(. - _ebase_address):__vector_offset_default
 *(.vector_237)
                0x9d000228                . = ALIGN (0x4)
                0x00000228                __vector_offset_238 = DEFINED (__vector_dispatch_238)?(. - _ebase_address):__vector_offset_default
 *(.vector_238)
                0x9d000228                . = ALIGN (0x4)
                0x00000228                __vector_offset_239 = DEFINED (__vector_dispatch_239)?(. - _ebase_address):__vector_offset_default
 *(.vector_239)
                0x9d000228                . = ALIGN (0x4)
                0x00000228                __vector_offset_240 = DEFINED (__vector_dispatch_240)?(. - _ebase_address):__vector_offset_default
 *(.vector_240)
                0x9d000228                . = ALIGN (0x4)
                0x00000228                __vector_offset_241 = DEFINED (__vector_dispatch_241)?(. - _ebase_address):__vector_offset_default
 *(.vector_241)
                0x9d000228                . = ALIGN (0x4)
                0x00000228                __vector_offset_242 = DEFINED (__vector_dispatch_242)?(. - _ebase_address):__vector_offset_default
 *(.vector_242)
                0x9d000228                . = ALIGN (0x4)
                0x00000228                __vector_offset_243 = DEFINED (__vector_dispatch_243)?(. - _ebase_address):__vector_offset_default
 *(.vector_243)
                0x9d000228                . = ALIGN (0x4)
                0x00000228                __vector_offset_244 = DEFINED (__vector_dispatch_244)?(. - _ebase_address):__vector_offset_default
 *(.vector_244)
                0x9d000228                . = ALIGN (0x4)
                0x00000228                __vector_offset_245 = DEFINED (__vector_dispatch_245)?(. - _ebase_address):__vector_offset_default
 *(.vector_245)
                0x9d000228                . = ALIGN (0x4)
                0x00000228                __vector_offset_246 = DEFINED (__vector_dispatch_246)?(. - _ebase_address):__vector_offset_default
 *(.vector_246)
                0x9d000228                . = ALIGN (0x4)
                0x00000228                __vector_offset_247 = DEFINED (__vector_dispatch_247)?(. - _ebase_address):__vector_offset_default
 *(.vector_247)
                0x9d000228                . = ALIGN (0x4)
                0x00000228                __vector_offset_248 = DEFINED (__vector_dispatch_248)?(. - _ebase_address):__vector_offset_default
 *(.vector_248)
                0x9d000228                . = ALIGN (0x4)
                0x00000228                __vector_offset_249 = DEFINED (__vector_dispatch_249)?(. - _ebase_address):__vector_offset_default
 *(.vector_249)
                0x9d000228                . = ALIGN (0x4)
                0x00000228                __vector_offset_250 = DEFINED (__vector_dispatch_250)?(. - _ebase_address):__vector_offset_default
 *(.vector_250)
                0x9d000228                . = ALIGN (0x4)
                0x00000228                __vector_offset_251 = DEFINED (__vector_dispatch_251)?(. - _ebase_address):__vector_offset_default
 *(.vector_251)
                0x9d000228                . = ALIGN (0x4)
                0x00000228                __vector_offset_252 = DEFINED (__vector_dispatch_252)?(. - _ebase_address):__vector_offset_default
 *(.vector_252)
                0x9d000228                . = ALIGN (0x4)
                0x00000228                __vector_offset_253 = DEFINED (__vector_dispatch_253)?(. - _ebase_address):__vector_offset_default
 *(.vector_253)
                0x9d000228                . = ALIGN (0x4)
                0x00000228                __vector_offset_254 = DEFINED (__vector_dispatch_254)?(. - _ebase_address):__vector_offset_default
 *(.vector_254)
                0x9d000228                . = ALIGN (0x4)
                0x00000228                __vector_offset_255 = DEFINED (__vector_dispatch_255)?(. - _ebase_address):__vector_offset_default
 *(.vector_255)
                0x9d000228                . = ALIGN (0x4)
                0x00000228                __vector_offset_default = (. - _ebase_address)
 *(.vector_default)
 .vector_default
                0x9d000228       0x48 c:/program files (x86)/microchip/xc32/v2.30/bin/bin/../../lib/gcc/pic32mx/4.8.3/../../../../pic32mx/lib/fpu64\libpic32.a(defaultinterrupt.o)
                0x9d000228                _DefaultInterrupt

.startup
 *(.startup)

.text           0x9d000270        0x0
 *(.stub .gnu.linkonce.t.*)
 *(.text.*personality*)
 *(.mips16.fn.*)
 *(.mips16.call.*)
 *(.gnu.warning)
                0x9d000270                . = ALIGN (0x4)

.init           0x9d000270        0x0
 *crti.o(.init)
 *crtbegin.o(.init)
 *(EXCLUDE_FILE(*crtn.o *crtend?.o *crtend.o) .init)
 *crtend.o(.init)
 *crtn.o(.init)
                0x9d000270                . = ALIGN (0x4)

.fini           0x9d000270        0x0
 *(.fini)
                0x9d000270                . = ALIGN (0x4)

.preinit_array  0x9d000270        0x0
                0x9d000270                PROVIDE (__preinit_array_start, .)
 *(.preinit_array)
                0x9d000270                PROVIDE (__preinit_array_end, .)
                0x9d000270                . = ALIGN (0x4)

.init_array     0x9d000270        0x0
                0x9d000270                PROVIDE (__init_array_start, .)
 *(SORT(.init_array.*))
 *(.init_array)
                0x9d000270                PROVIDE (__init_array_end, .)
                0x9d000270                . = ALIGN (0x4)

.fini_array     0x9d000270        0x0
                0x9d000270                PROVIDE (__fini_array_start, .)
 *(SORT(.fini_array.*))
 *(.fini_array)
                0x9d000270                PROVIDE (__fini_array_end, .)
                0x9d000270                . = ALIGN (0x4)

.ctors          0x9d000270        0x0
 *crtbegin.o(.ctors)
 *crtbegin?.o(.ctors)
 *(EXCLUDE_FILE(*crtend?.o *crtend.o) .ctors)
 *(SORT(.ctors.*))
 *(.ctors)
                0x9d000270                . = ALIGN (0x4)

.dtors          0x9d000270        0x0
 *crtbegin.o(.dtors)
 *crtbegin?.o(.dtors)
 *(EXCLUDE_FILE(*crtend?.o *crtend.o) .dtors)
 *(SORT(.dtors.*))
 *(.dtors)
                0x9d000270                . = ALIGN (0x4)

.rodata         0x9d000270        0x0
 *(.gnu.linkonce.r.*)
 *(.rodata1)
                0x9d000270                . = ALIGN (0x4)

.sdata2         0x9fc004b0        0x0
 *(.sdata2 .sdata2.* .gnu.linkonce.s2.*)
                0x9fc004b0                . = ALIGN (0x4)

.sbss2          0x9fc004b0        0x0
 *(.sbss2 .sbss2.* .gnu.linkonce.sb2.*)
                0x9fc004b0                . = ALIGN (0x4)

.eh_frame_hdr
 *(.eh_frame_hdr)
                0x9fc004b0                . = ALIGN (0x4)

.eh_frame
 *(.eh_frame)
                0x9fc004b0                . = ALIGN (0x4)

.gcc_except_table
 *(.gcc_except_table .gcc_except_table.*)
                0x9fc004b0                . = ALIGN (0x4)

.dbg_data       0x80000000        0x0
                0x80000000                . = (. + DEFINED (_DEBUGGER)?0x200:0x0)
                0x80000000                . = (. + DEFINED (_DEBUGGER)?0x80:0x0)
                0x80000000                . = (. + DEFINED (_DEBUGGER)?0x100:0x0)

.jcr            0x80000000        0x0
 *(.jcr)
                0x80000000                . = ALIGN (0x4)

.eh_frame
 *(.eh_frame)
                0x80000000                . = ALIGN (0x4)

.gcc_except_table
 *(.gcc_except_table .gcc_except_table.*)
                0x80000000                . = ALIGN (0x4)

.persist        0x80000000        0x0
                0x80000000                _persist_begin = .
 *(.persist .persist.*)
                0x80000000                . = ALIGN (0x4)
                0x80000000                _persist_end = .

.data           0x80000000        0x0
 *(.gnu.linkonce.d.*)
 *(.data1)
                0x80000000                . = ALIGN (0x4)
                0x80000000                . = .
                0x80007ff0                _gp = (ALIGN (0x10) + 0x7ff0)

.got            0x80000000        0x0
 *(.got.plt)
 *(.got)
                0x80000000                . = ALIGN (0x4)

.sdata          0x80000000       0x48
                0x80000000                _sdata_begin = .
 *(.sdata .sdata.* .gnu.linkonce.s.*)
 .sdata         0x80000000        0x8 build/pic32mz_ef_sk/production/_ext/2027382860/arp.o
 .sdata         0x80000008        0x4 build/pic32mz_ef_sk/production/_ext/2027382860/tcpip_commands.o
 .sdata         0x8000000c        0x4 build/pic32mz_ef_sk/production/_ext/2027382860/tcpip_manager.o
 .sdata         0x80000010        0x2 build/pic32mz_ef_sk/production/_ext/1658225107/sys_time.o
 *fill*         0x80000012        0x2 
 .sdata         0x80000014        0x4 build/pic32mz_ef_sk/production/_ext/1360937237/app.o
 .sdata         0x80000018        0x1 build/pic32mz_ef_sk/production/_ext/108032392/dialtek_modbus.o
 *fill*         0x80000019        0x3 
 .sdata         0x8000001c        0x8 build/pic32mz_ef_sk/production/_ext/1360937237/tcp_app.o
 .sdata         0x80000024       0x24 c:/program files (x86)/microchip/xc32/v2.30/bin/bin/../../lib/gcc/pic32mx/4.8.3/../../../../pic32mx/lib/fpu64\libpic32.a(pic32_init_cache.o)
                0x80000024                __pic32_icache_size
                0x80000028                __pic32_icache_linesize
                0x8000002c                __pic32_icache_ways
                0x80000030                __pic32_dcache_size
                0x80000034                __pic32_dcache_linesize
                0x80000038                __pic32_dcache_ways
                0x8000003c                __pic32_scache_size
                0x80000040                __pic32_scache_linesize
                0x80000044                __pic32_scache_ways
                0x80000048                . = ALIGN (0x4)
                0x80000048                _sdata_end = .

.lit8
 *(.lit8)

.lit4
 *(.lit4)
                0x80000048                . = ALIGN (0x4)
                0x80000048                _data_end = .
                0x80000048                _bss_begin = .

.sbss           0x80000048      0x178
                0x80000048                _sbss_begin = .
 *(.dynsbss)
 *(.sbss .sbss.* .gnu.linkonce.sb.*)
 .sbss          0x80000048        0x4 build/pic32mz_ef_sk/production/_ext/1314174413/drv_ethmac.o
 .sbss          0x8000004c        0x8 build/pic32mz_ef_sk/production/_ext/138020607/drv_ethphy.o
                0x8000004c                _PhyStayCondLoop
                0x80000050                _PhyStayAssertLoop
 .sbss          0x80000054        0x8 build/pic32mz_ef_sk/production/_ext/1761147401/drv_miim.o
                0x80000054                _MIIMStayCondLoop
                0x80000058                _MIIMStayAssertLoop
 .sbss          0x8000005c       0x10 build/pic32mz_ef_sk/production/_ext/2027382860/dns.o
                0x8000005c                _DNSStayCondLoop
                0x80000060                _DNSStayAssertLoop
 .sbss          0x8000006c        0xc build/pic32mz_ef_sk/production/_ext/2027382860/icmp.o
 .sbss          0x80000078       0x20 build/pic32mz_ef_sk/production/_ext/2027382860/tcp.o
 .sbss          0x80000098       0x24 build/pic32mz_ef_sk/production/_ext/2027382860/dhcp.o
 .sbss          0x800000bc       0x1c build/pic32mz_ef_sk/production/_ext/2027382860/tcpip_commands.o
 .sbss          0x800000d8       0x1c build/pic32mz_ef_sk/production/_ext/2027382860/ipv4.o
                0x800000d8                _IPv4StayAssertLoop
 .sbss          0x800000f4       0x24 build/pic32mz_ef_sk/production/_ext/2027382860/tcpip_manager.o
 .sbss          0x80000118        0x8 build/pic32mz_ef_sk/production/_ext/2027382860/tcpip_packet.o
 .sbss          0x80000120       0x1c build/pic32mz_ef_sk/production/_ext/2027382860/udp.o
 .sbss          0x8000013c       0x10 build/pic32mz_ef_sk/production/_ext/2135388491/sys_command.o
 .sbss          0x8000014c        0x4 build/pic32mz_ef_sk/production/_ext/1344301860/sys_time_h2_adapter.o
 .sbss          0x80000150        0xc build/pic32mz_ef_sk/production/_ext/942849350/exceptions.o
 .sbss          0x8000015c       0x1c build/pic32mz_ef_sk/production/_ext/108032392/dialtek_modbus.o
 .sbss          0x80000178       0x24 build/pic32mz_ef_sk/production/_ext/1360937237/tcp_app.o
 *(.scommon)
 .scommon       0x8000019c        0x8 build/pic32mz_ef_sk/production/_ext/1710852712/plib_coretimer.o
                0x8000019c                coreTmr
 .scommon       0x800001a4        0x4 build/pic32mz_ef_sk/production/_ext/57023747/sys_debug.o
                0x800001a4                gblErrLvl
 .scommon       0x800001a8       0x15 build/pic32mz_ef_sk/production/_ext/1360937237/modbus_buf.o
                0x800001a8                modbus_rx_buf
                0x800001b0                modbus_rx_buf_ptr
                0x800001b4                modbus_rx_flag
                0x800001b8                modbus_tx_buf_ptr
                0x800001bc                modbus_tx_flag
                0x800001bd                _sbss_end = .
                0x800001c0                . = ALIGN (0x4)
 *fill*         0x800001bd        0x3 

.bss            0x800001c0      0x348
 *(.dynbss)
 *(COMMON)
 COMMON         0x800001c0       0x30 build/pic32mz_ef_sk/production/_ext/309316908/plib_uart2.o
                0x800001c0                uart2Obj
 COMMON         0x800001f0       0x10 build/pic32mz_ef_sk/production/_ext/57023747/sys_debug.o
                0x800001f0                sysDebugInstance
 COMMON         0x80000200       0x14 build/pic32mz_ef_sk/production/_ext/942849350/initialization.o
                0x80000200                sysObj
 COMMON         0x80000214      0x1f4 build/pic32mz_ef_sk/production/_ext/108032392/dialtek_modbus.o
                0x80000214                input_register
 COMMON         0x80000408      0x100 build/pic32mz_ef_sk/production/_ext/1360937237/modbus_buf.o
                0x80000408                modbus_tx_buf
                0x80000508                . = ALIGN ((. != 0x0)?0x4:0x1)
                0x80000508                . = ALIGN (0x4)
                0x80000508                _end = .
                0x80000508                _bss_end = .
                0x00080000                _bmxdudba_address = 0x80000
                0x00080000                _bmxdupba_address = 0x80000

/DISCARD/
 *(.pdr)
 *(.rel.dyn)
 *(.note.GNU-stack)
 *(.note.GNU-stack)
 *(.gnu_debuglink)
 *(.gnu.lto_*)
 *(.discard)

.gptab.sdata
 *(.gptab.data)
 *(.gptab.sdata)

.gptab.sbss
 *(.gptab.bss)
 *(.gptab.sbss)

.mdebug.abi32   0x00000000        0x0
 *(.mdebug.abi32)
 .mdebug.abi32  0x00000000        0x0 build/pic32mz_ef_sk/production/_ext/978308758/bsp.o
 .mdebug.abi32  0x00000000        0x0 build/pic32mz_ef_sk/production/_ext/1314174413/drv_ethmac.o
 .mdebug.abi32  0x00000000        0x0 build/pic32mz_ef_sk/production/_ext/1314174413/drv_ethmac_lib.o
 .mdebug.abi32  0x00000000        0x0 build/pic32mz_ef_sk/production/_ext/1314174413/drv_eth_pic32_lib.o
 .mdebug.abi32  0x00000000        0x0 build/pic32mz_ef_sk/production/_ext/138020607/drv_ethphy.o
 .mdebug.abi32  0x00000000        0x0 build/pic32mz_ef_sk/production/_ext/138020607/drv_extphy_smsc8740.o
 .mdebug.abi32  0x00000000        0x0 build/pic32mz_ef_sk/production/_ext/1761147401/drv_miim.o
 .mdebug.abi32  0x00000000        0x0 build/pic32mz_ef_sk/production/_ext/2027382860/helpers.o
 .mdebug.abi32  0x00000000        0x0 build/pic32mz_ef_sk/production/_ext/2027382860/dns.o
 .mdebug.abi32  0x00000000        0x0 build/pic32mz_ef_sk/production/_ext/2027382860/icmp.o
 .mdebug.abi32  0x00000000        0x0 build/pic32mz_ef_sk/production/_ext/2027382860/tcp.o
 .mdebug.abi32  0x00000000        0x0 build/pic32mz_ef_sk/production/_ext/2027382860/dhcp.o
 .mdebug.abi32  0x00000000        0x0 build/pic32mz_ef_sk/production/_ext/2027382860/arp.o
 .mdebug.abi32  0x00000000        0x0 build/pic32mz_ef_sk/production/_ext/2027382860/tcpip_commands.o
 .mdebug.abi32  0x00000000        0x0 build/pic32mz_ef_sk/production/_ext/2027382860/ipv4.o
 .mdebug.abi32  0x00000000        0x0 build/pic32mz_ef_sk/production/_ext/2027382860/tcpip_heap_alloc.o
 .mdebug.abi32  0x00000000        0x0 build/pic32mz_ef_sk/production/_ext/2027382860/tcpip_heap_internal.o
 .mdebug.abi32  0x00000000        0x0 build/pic32mz_ef_sk/production/_ext/2027382860/hash_fnv.o
 .mdebug.abi32  0x00000000        0x0 build/pic32mz_ef_sk/production/_ext/2027382860/oahash.o
 .mdebug.abi32  0x00000000        0x0 build/pic32mz_ef_sk/production/_ext/2027382860/tcpip_helpers.o
 .mdebug.abi32  0x00000000        0x0 build/pic32mz_ef_sk/production/_ext/2027382860/tcpip_manager.o
 .mdebug.abi32  0x00000000        0x0 build/pic32mz_ef_sk/production/_ext/2027382860/tcpip_notify.o
 .mdebug.abi32  0x00000000        0x0 build/pic32mz_ef_sk/production/_ext/2027382860/tcpip_packet.o
 .mdebug.abi32  0x00000000        0x0 build/pic32mz_ef_sk/production/_ext/2027382860/udp.o
 .mdebug.abi32  0x00000000        0x0 build/pic32mz_ef_sk/production/_ext/1098417660/plib_clk.o
 .mdebug.abi32  0x00000000        0x0 build/pic32mz_ef_sk/production/_ext/1710852712/plib_coretimer.o
 .mdebug.abi32  0x00000000        0x0 build/pic32mz_ef_sk/production/_ext/308860137/plib_evic.o
 .mdebug.abi32  0x00000000        0x0 build/pic32mz_ef_sk/production/_ext/308913965/plib_gpio.o
 .mdebug.abi32  0x00000000        0x0 build/pic32mz_ef_sk/production/_ext/309316908/plib_uart2.o
 .mdebug.abi32  0x00000000        0x0 build/pic32mz_ef_sk/production/_ext/458842868/xc32_monitor.o
 .mdebug.abi32  0x00000000        0x0 build/pic32mz_ef_sk/production/_ext/2135388491/sys_command.o
 .mdebug.abi32  0x00000000        0x0 build/pic32mz_ef_sk/production/_ext/1702866625/sys_console.o
 .mdebug.abi32  0x00000000        0x0 build/pic32mz_ef_sk/production/_ext/1702866625/sys_console_uart.o
 .mdebug.abi32  0x00000000        0x0 build/pic32mz_ef_sk/production/_ext/57023747/sys_debug.o
 .mdebug.abi32  0x00000000        0x0 build/pic32mz_ef_sk/production/_ext/723085273/sys_int.o
 .mdebug.abi32  0x00000000        0x0 build/pic32mz_ef_sk/production/_ext/1658225107/sys_time.o
 .mdebug.abi32  0x00000000        0x0 build/pic32mz_ef_sk/production/_ext/1344301860/sys_time_h2_adapter.o
 .mdebug.abi32  0x00000000        0x0 build/pic32mz_ef_sk/production/_ext/942849350/tasks.o
 .mdebug.abi32  0x00000000        0x0 build/pic32mz_ef_sk/production/_ext/942849350/initialization.o
 .mdebug.abi32  0x00000000        0x0 build/pic32mz_ef_sk/production/_ext/942849350/interrupts.o
 .mdebug.abi32  0x00000000        0x0 build/pic32mz_ef_sk/production/_ext/942849350/exceptions.o
 .mdebug.abi32  0x00000000        0x0 build/pic32mz_ef_sk/production/_ext/1360937237/app.o
 .mdebug.abi32  0x00000000        0x0 build/pic32mz_ef_sk/production/_ext/1360937237/main.o
 .mdebug.abi32  0x00000000        0x0 build/pic32mz_ef_sk/production/_ext/108032392/dialtek_modbus.o
 .mdebug.abi32  0x00000000        0x0 build/pic32mz_ef_sk/production/_ext/1360937237/tcp_app.o
 .mdebug.abi32  0x00000000        0x0 build/pic32mz_ef_sk/production/_ext/1360937237/modbus_buf.o
 .mdebug.abi32  0x00000000        0x0 c:/program files (x86)/microchip/xc32/v2.30/bin/bin/../../lib/gcc/pic32mx/4.8.3/fpu64\libgcc.a(_udivdi3.o)
 .mdebug.abi32  0x00000000        0x0 c:/program files (x86)/microchip/xc32/v2.30/bin/bin/../../lib/gcc/pic32mx/4.8.3/../../../../pic32mx/lib/fpu64\libpic32.a(default-bootstrap-exception-handler.o)
 .mdebug.abi32  0x00000000        0x0 c:/program files (x86)/microchip/xc32/v2.30/bin/bin/../../lib/gcc/pic32mx/4.8.3/../../../../pic32mx/lib/fpu64\libpic32.a(default-on-reset.o)
 .mdebug.abi32  0x00000000        0x0 c:/program files (x86)/microchip/xc32/v2.30/bin/bin/../../lib/gcc/pic32mx/4.8.3/../../../../pic32mx/lib/fpu64\libpic32.a(default-on-bootstrap.o)
 .mdebug.abi32  0x00000000        0x0 c:/program files (x86)/microchip/xc32/v2.30/bin/bin/../../lib/gcc/pic32mx/4.8.3/../../../../pic32mx/lib/fpu64\libpic32.a(defaultinterrupt.o)
 .mdebug.abi32  0x00000000        0x0 c:/program files (x86)/microchip/xc32/v2.30/bin/bin/../../lib/gcc/pic32mx/4.8.3/../../../../pic32mx/lib/fpu64\libpic32.a(default-cache-err-exception-handler.o)
 .mdebug.abi32  0x00000000        0x0 c:/program files (x86)/microchip/xc32/v2.30/bin/bin/../../lib/gcc/pic32mx/4.8.3/../../../../pic32mx/lib/fpu64\libpic32.a(default-simple-tlb-refill-exception-handler.o)
 .mdebug.abi32  0x00000000        0x0 c:/program files (x86)/microchip/xc32/v2.30/bin/bin/../../lib/gcc/pic32mx/4.8.3/../../../../pic32mx/lib/fpu64\libc.a(atoi.o)
 .mdebug.abi32  0x00000000        0x0 c:/program files (x86)/microchip/xc32/v2.30/bin/bin/../../lib/gcc/pic32mx/4.8.3/../../../../pic32mx/lib/fpu64\libc.a(calloc.o)
 .mdebug.abi32  0x00000000        0x0 c:/program files (x86)/microchip/xc32/v2.30/bin/bin/../../lib/gcc/pic32mx/4.8.3/../../../../pic32mx/lib/fpu64\libc.a(ctype.o)
 .mdebug.abi32  0x00000000        0x0 c:/program files (x86)/microchip/xc32/v2.30/bin/bin/../../lib/gcc/pic32mx/4.8.3/../../../../pic32mx/lib/fpu64\libc.a(ctypef.o)
 .mdebug.abi32  0x00000000        0x0 c:/program files (x86)/microchip/xc32/v2.30/bin/bin/../../lib/gcc/pic32mx/4.8.3/../../../../pic32mx/lib/fpu64\libc.a(malloc.o)
 .mdebug.abi32  0x00000000        0x0 c:/program files (x86)/microchip/xc32/v2.30/bin/bin/../../lib/gcc/pic32mx/4.8.3/../../../../pic32mx/lib/fpu64\libc.a(rand.o)
 .mdebug.abi32  0x00000000        0x0 c:/program files (x86)/microchip/xc32/v2.30/bin/bin/../../lib/gcc/pic32mx/4.8.3/../../../../pic32mx/lib/fpu64\libc.a(strncmp.o)
 .mdebug.abi32  0x00000000        0x0 c:/program files (x86)/microchip/xc32/v2.30/bin/bin/../../lib/gcc/pic32mx/4.8.3/../../../../pic32mx/lib/fpu64\libc.a(strncpy.o)
 .mdebug.abi32  0x00000000        0x0 c:/program files (x86)/microchip/xc32/v2.30/bin/bin/../../lib/gcc/pic32mx/4.8.3/../../../../pic32mx/lib/fpu64\libc.a(strtol.o)
 .mdebug.abi32  0x00000000        0x0 c:/program files (x86)/microchip/xc32/v2.30/bin/bin/../../lib/gcc/pic32mx/4.8.3/../../../../pic32mx/lib/fpu64\libc.a(printf_cdnopsuxX.eo)
 .mdebug.abi32  0x00000000        0x0 c:/program files (x86)/microchip/xc32/v2.30/bin/bin/../../lib/gcc/pic32mx/4.8.3/../../../../pic32mx/lib/fpu64\libc.a(snprintf_cdnopsuxX.eo)
 .mdebug.abi32  0x00000000        0x0 c:/program files (x86)/microchip/xc32/v2.30/bin/bin/../../lib/gcc/pic32mx/4.8.3/../../../../pic32mx/lib/fpu64\libc.a(sprintf_cdnopsuxX.eo)
 .mdebug.abi32  0x00000000        0x0 c:/program files (x86)/microchip/xc32/v2.30/bin/bin/../../lib/gcc/pic32mx/4.8.3/../../../../pic32mx/lib/fpu64\libc.a(vsnprintf_cdnopsuxX.eo)
 .mdebug.abi32  0x00000000        0x0 c:/program files (x86)/microchip/xc32/v2.30/bin/bin/../../lib/gcc/pic32mx/4.8.3/../../../../pic32mx/lib/fpu64\libc.a(vsnprintf.o)
 .mdebug.abi32  0x00000000        0x0 c:/program files (x86)/microchip/xc32/v2.30/bin/bin/../../lib/gcc/pic32mx/4.8.3/../../../../pic32mx/lib/fpu64\libc.a(_iob.o)
 .mdebug.abi32  0x00000000        0x0 c:/program files (x86)/microchip/xc32/v2.30/bin/bin/../../lib/gcc/pic32mx/4.8.3/../../../../pic32mx/lib/fpu64\libc.a(errno.o)
 .mdebug.abi32  0x00000000        0x0 c:/program files (x86)/microchip/xc32/v2.30/bin/bin/../../lib/gcc/pic32mx/4.8.3/../../../../pic32mx/lib/fpu64\libc.a(doprnt_cdnopsuxX.eo)
 .mdebug.abi32  0x00000000        0x0 c:/program files (x86)/microchip/xc32/v2.30/bin/bin/../../lib/gcc/pic32mx/4.8.3/../../../../pic32mx/lib/fpu64\libc.a(doprnt.o)
 .mdebug.abi32  0x00000000        0x0 c:/program files (x86)/microchip/xc32/v2.30/bin/bin/../../lib/gcc/pic32mx/4.8.3/../../../../pic32mx/lib/fpu64\libc.a(_fputc_simple.o)
 .mdebug.abi32  0x00000000        0x0 c:/program files (x86)/microchip/xc32/v2.30/bin/bin/../../lib/gcc/pic32mx/4.8.3/../../../../pic32mx/lib/fpu64\libc.a(ldpowers.o)
 .mdebug.abi32  0x00000000        0x0 c:/program files (x86)/microchip/xc32/v2.30/bin/bin/../../lib/gcc/pic32mx/4.8.3/../../../../pic32mx/lib/fpu64\libc.a(_flsbuf_simple.o)
 .mdebug.abi32  0x00000000        0x0 c:/program files (x86)/microchip/xc32/v2.30/bin/bin/../../lib/gcc/pic32mx/4.8.3/../../../../pic32mx/lib/fpu64\libmfd.a(s_frexp.o)
 .mdebug.abi32  0x00000000        0x0 c:/program files (x86)/microchip/xc32/v2.30/bin/bin/../../lib/gcc/pic32mx/4.8.3/fpu64\libgcc.a(_cmpdi2.o)
 .mdebug.abi32  0x00000000        0x0 c:/program files (x86)/microchip/xc32/v2.30/bin/bin/../../lib/gcc/pic32mx/4.8.3/fpu64\libgcc.a(_umoddi3.o)
 .mdebug.abi32  0x00000000        0x0 c:/program files (x86)/microchip/xc32/v2.30/bin/bin/../../lib/gcc/pic32mx/4.8.3/../../../../pic32mx/lib/fpu64\libpic32.a(sbrk.o)
 .mdebug.abi32  0x00000000        0x0 c:/program files (x86)/microchip/xc32/v2.30/bin/bin/../../lib/gcc/pic32mx/4.8.3/../../../../pic32mx/lib/fpu64\libpic32.a(write.o)

.mdebug.abiN32
 *(.mdebug.abiN32)

.mdebug.abi64
 *(.mdebug.abi64)

.mdebug.abiO64
 *(.mdebug.abiO64)

.mdebug.eabi32
 *(.mdebug.eabi32)

.mdebug.eabi64
 *(.mdebug.eabi64)

.gcc_compiled_long32
 *(.gcc_compiled_long32)

.gcc_compiled_long64
 *(.gcc_compiled_long64)

.stab
 *(.stab)

.stabstr
 *(.stabstr)

.stab.excl
 *(.stab.excl)

.stab.exclstr
 *(.stab.exclstr)

.stab.index
 *(.stab.index)

.stab.indexstr
 *(.stab.indexstr)

.comment        0x00000000      0x19f
 *(.comment)
 .comment       0x00000000       0x3c build/pic32mz_ef_sk/production/_ext/978308758/bsp.o
                                 0x3d (size before relaxing)
 .comment       0x00000000       0x3d build/pic32mz_ef_sk/production/_ext/1314174413/drv_ethmac.o
 .comment       0x00000000       0x3d build/pic32mz_ef_sk/production/_ext/1314174413/drv_ethmac_lib.o
 .comment       0x00000000       0x3d build/pic32mz_ef_sk/production/_ext/1314174413/drv_eth_pic32_lib.o
 .comment       0x00000000       0x3d build/pic32mz_ef_sk/production/_ext/138020607/drv_ethphy.o
 .comment       0x00000000       0x3d build/pic32mz_ef_sk/production/_ext/138020607/drv_extphy_smsc8740.o
 .comment       0x00000000       0x3d build/pic32mz_ef_sk/production/_ext/1761147401/drv_miim.o
 .comment       0x00000000       0x3d build/pic32mz_ef_sk/production/_ext/2027382860/helpers.o
 .comment       0x00000000       0x3d build/pic32mz_ef_sk/production/_ext/2027382860/dns.o
 .comment       0x00000000       0x3d build/pic32mz_ef_sk/production/_ext/2027382860/icmp.o
 .comment       0x00000000       0x3d build/pic32mz_ef_sk/production/_ext/2027382860/tcp.o
 .comment       0x00000000       0x3d build/pic32mz_ef_sk/production/_ext/2027382860/dhcp.o
 .comment       0x00000000       0x3d build/pic32mz_ef_sk/production/_ext/2027382860/arp.o
 .comment       0x00000000       0x3d build/pic32mz_ef_sk/production/_ext/2027382860/tcpip_commands.o
 .comment       0x00000000       0x3d build/pic32mz_ef_sk/production/_ext/2027382860/ipv4.o
 .comment       0x00000000       0x3d build/pic32mz_ef_sk/production/_ext/2027382860/tcpip_heap_alloc.o
 .comment       0x00000000       0x3d build/pic32mz_ef_sk/production/_ext/2027382860/tcpip_heap_internal.o
 .comment       0x00000000       0x3d build/pic32mz_ef_sk/production/_ext/2027382860/hash_fnv.o
 .comment       0x00000000       0x3d build/pic32mz_ef_sk/production/_ext/2027382860/oahash.o
 .comment       0x00000000       0x3d build/pic32mz_ef_sk/production/_ext/2027382860/tcpip_helpers.o
 .comment       0x00000000       0x3d build/pic32mz_ef_sk/production/_ext/2027382860/tcpip_manager.o
 .comment       0x00000000       0x3d build/pic32mz_ef_sk/production/_ext/2027382860/tcpip_notify.o
 .comment       0x00000000       0x3d build/pic32mz_ef_sk/production/_ext/2027382860/tcpip_packet.o
 .comment       0x00000000       0x3d build/pic32mz_ef_sk/production/_ext/2027382860/udp.o
 .comment       0x00000000       0x3d build/pic32mz_ef_sk/production/_ext/1098417660/plib_clk.o
 .comment       0x00000000       0x3d build/pic32mz_ef_sk/production/_ext/1710852712/plib_coretimer.o
 .comment       0x00000000       0x3d build/pic32mz_ef_sk/production/_ext/308860137/plib_evic.o
 .comment       0x00000000       0x3d build/pic32mz_ef_sk/production/_ext/308913965/plib_gpio.o
 .comment       0x00000000       0x3d build/pic32mz_ef_sk/production/_ext/309316908/plib_uart2.o
 .comment       0x00000000       0x3d build/pic32mz_ef_sk/production/_ext/458842868/xc32_monitor.o
 .comment       0x00000000       0x3d build/pic32mz_ef_sk/production/_ext/2135388491/sys_command.o
 .comment       0x00000000       0x3d build/pic32mz_ef_sk/production/_ext/1702866625/sys_console.o
 .comment       0x00000000       0x3d build/pic32mz_ef_sk/production/_ext/1702866625/sys_console_uart.o
 .comment       0x00000000       0x3d build/pic32mz_ef_sk/production/_ext/57023747/sys_debug.o
 .comment       0x00000000       0x3d build/pic32mz_ef_sk/production/_ext/723085273/sys_int.o
 .comment       0x00000000       0x3d build/pic32mz_ef_sk/production/_ext/1658225107/sys_time.o
 .comment       0x00000000       0x3d build/pic32mz_ef_sk/production/_ext/1344301860/sys_time_h2_adapter.o
 .comment       0x00000000       0x3d build/pic32mz_ef_sk/production/_ext/942849350/tasks.o
 .comment       0x00000000       0x3d build/pic32mz_ef_sk/production/_ext/942849350/initialization.o
 .comment       0x00000000       0x3d build/pic32mz_ef_sk/production/_ext/942849350/interrupts.o
 .comment       0x00000000       0x3d build/pic32mz_ef_sk/production/_ext/942849350/exceptions.o
 .comment       0x00000000       0x3d build/pic32mz_ef_sk/production/_ext/1360937237/app.o
 .comment       0x00000000       0x3d build/pic32mz_ef_sk/production/_ext/1360937237/main.o
 .comment       0x00000000       0x3d build/pic32mz_ef_sk/production/_ext/108032392/dialtek_modbus.o
 .comment       0x00000000       0x3d build/pic32mz_ef_sk/production/_ext/1360937237/tcp_app.o
 .comment       0x00000000       0x3d build/pic32mz_ef_sk/production/_ext/1360937237/modbus_buf.o
 .comment       0x00000000       0x3d c:/program files (x86)/microchip/xc32/v2.30/bin/bin/../../lib/gcc/pic32mx/4.8.3/fpu64\libgcc.a(_udivdi3.o)
 .comment       0x0000003c       0x18 c:/program files (x86)/microchip/xc32/v2.30/bin/bin/../../lib/gcc/pic32mx/4.8.3/../../../../pic32mx/lib/fpu64\libpic32.a(memcmp.o)
                                 0x19 (size before relaxing)
 .comment       0x00000054       0x18 c:/program files (x86)/microchip/xc32/v2.30/bin/bin/../../lib/gcc/pic32mx/4.8.3/../../../../pic32mx/lib/fpu64\libpic32.a(memset.o)
                                 0x19 (size before relaxing)
 .comment       0x0000006c       0x19 c:/program files (x86)/microchip/xc32/v2.30/bin/bin/../../lib/gcc/pic32mx/4.8.3/../../../../pic32mx/lib/fpu64\libpic32.a(strcmp.o)
                                 0x1a (size before relaxing)
 .comment       0x00000085       0x19 c:/program files (x86)/microchip/xc32/v2.30/bin/bin/../../lib/gcc/pic32mx/4.8.3/../../../../pic32mx/lib/fpu64\libpic32.a(strcpy.o)
                                 0x1a (size before relaxing)
 .comment       0x0000009e       0x19 c:/program files (x86)/microchip/xc32/v2.30/bin/bin/../../lib/gcc/pic32mx/4.8.3/../../../../pic32mx/lib/fpu64\libpic32.a(strlen.o)
                                 0x1a (size before relaxing)
 .comment       0x00000000       0x3d c:/program files (x86)/microchip/xc32/v2.30/bin/bin/../../lib/gcc/pic32mx/4.8.3/../../../../pic32mx/lib/fpu64\libpic32.a(default-bootstrap-exception-handler.o)
 .comment       0x00000000       0x3d c:/program files (x86)/microchip/xc32/v2.30/bin/bin/../../lib/gcc/pic32mx/4.8.3/../../../../pic32mx/lib/fpu64\libpic32.a(default-on-reset.o)
 .comment       0x00000000       0x3d c:/program files (x86)/microchip/xc32/v2.30/bin/bin/../../lib/gcc/pic32mx/4.8.3/../../../../pic32mx/lib/fpu64\libpic32.a(default-on-bootstrap.o)
 .comment       0x00000000       0x3d c:/program files (x86)/microchip/xc32/v2.30/bin/bin/../../lib/gcc/pic32mx/4.8.3/../../../../pic32mx/lib/fpu64\libpic32.a(defaultinterrupt.o)
 .comment       0x00000000       0x3d c:/program files (x86)/microchip/xc32/v2.30/bin/bin/../../lib/gcc/pic32mx/4.8.3/../../../../pic32mx/lib/fpu64\libpic32.a(default-cache-err-exception-handler.o)
 .comment       0x00000000       0x3d c:/program files (x86)/microchip/xc32/v2.30/bin/bin/../../lib/gcc/pic32mx/4.8.3/../../../../pic32mx/lib/fpu64\libpic32.a(default-simple-tlb-refill-exception-handler.o)
 .comment       0x00000000       0x3d c:/program files (x86)/microchip/xc32/v2.30/bin/bin/../../lib/gcc/pic32mx/4.8.3/../../../../pic32mx/lib/fpu64\libc.a(atoi.o)
 .comment       0x00000000       0x3d c:/program files (x86)/microchip/xc32/v2.30/bin/bin/../../lib/gcc/pic32mx/4.8.3/../../../../pic32mx/lib/fpu64\libc.a(calloc.o)
 .comment       0x000000b7       0x4e c:/program files (x86)/microchip/xc32/v2.30/bin/bin/../../lib/gcc/pic32mx/4.8.3/../../../../pic32mx/lib/fpu64\libc.a(ctype.o)
                                 0x8b (size before relaxing)
 .comment       0x00000105       0x4f c:/program files (x86)/microchip/xc32/v2.30/bin/bin/../../lib/gcc/pic32mx/4.8.3/../../../../pic32mx/lib/fpu64\libc.a(ctypef.o)
                                 0x8c (size before relaxing)
 .comment       0x00000000       0x3d c:/program files (x86)/microchip/xc32/v2.30/bin/bin/../../lib/gcc/pic32mx/4.8.3/../../../../pic32mx/lib/fpu64\libc.a(malloc.o)
 .comment       0x00000000       0x3d c:/program files (x86)/microchip/xc32/v2.30/bin/bin/../../lib/gcc/pic32mx/4.8.3/../../../../pic32mx/lib/fpu64\libc.a(rand.o)
 .comment       0x00000000       0x3d c:/program files (x86)/microchip/xc32/v2.30/bin/bin/../../lib/gcc/pic32mx/4.8.3/../../../../pic32mx/lib/fpu64\libc.a(strncmp.o)
 .comment       0x00000000       0x3d c:/program files (x86)/microchip/xc32/v2.30/bin/bin/../../lib/gcc/pic32mx/4.8.3/../../../../pic32mx/lib/fpu64\libc.a(strncpy.o)
 .comment       0x00000000       0x3d c:/program files (x86)/microchip/xc32/v2.30/bin/bin/../../lib/gcc/pic32mx/4.8.3/../../../../pic32mx/lib/fpu64\libc.a(strtol.o)
 .comment       0x00000000       0x3d c:/program files (x86)/microchip/xc32/v2.30/bin/bin/../../lib/gcc/pic32mx/4.8.3/../../../../pic32mx/lib/fpu64\libc.a(printf_cdnopsuxX.eo)
 .comment       0x00000000       0x3d c:/program files (x86)/microchip/xc32/v2.30/bin/bin/../../lib/gcc/pic32mx/4.8.3/../../../../pic32mx/lib/fpu64\libc.a(snprintf_cdnopsuxX.eo)
 .comment       0x00000000       0x3d c:/program files (x86)/microchip/xc32/v2.30/bin/bin/../../lib/gcc/pic32mx/4.8.3/../../../../pic32mx/lib/fpu64\libc.a(sprintf_cdnopsuxX.eo)
 .comment       0x00000000       0x3d c:/program files (x86)/microchip/xc32/v2.30/bin/bin/../../lib/gcc/pic32mx/4.8.3/../../../../pic32mx/lib/fpu64\libc.a(vsnprintf_cdnopsuxX.eo)
 .comment       0x00000000       0x3d c:/program files (x86)/microchip/xc32/v2.30/bin/bin/../../lib/gcc/pic32mx/4.8.3/../../../../pic32mx/lib/fpu64\libc.a(vsnprintf.o)
 .comment       0x00000000       0x3d c:/program files (x86)/microchip/xc32/v2.30/bin/bin/../../lib/gcc/pic32mx/4.8.3/../../../../pic32mx/lib/fpu64\libc.a(_iob.o)
 .comment       0x00000000       0x3d c:/program files (x86)/microchip/xc32/v2.30/bin/bin/../../lib/gcc/pic32mx/4.8.3/../../../../pic32mx/lib/fpu64\libc.a(errno.o)
 .comment       0x00000000       0x3d c:/program files (x86)/microchip/xc32/v2.30/bin/bin/../../lib/gcc/pic32mx/4.8.3/../../../../pic32mx/lib/fpu64\libc.a(doprnt_cdnopsuxX.eo)
 .comment       0x00000000       0x3d c:/program files (x86)/microchip/xc32/v2.30/bin/bin/../../lib/gcc/pic32mx/4.8.3/../../../../pic32mx/lib/fpu64\libc.a(doprnt.o)
 .comment       0x00000000       0x3d c:/program files (x86)/microchip/xc32/v2.30/bin/bin/../../lib/gcc/pic32mx/4.8.3/../../../../pic32mx/lib/fpu64\libc.a(_fputc_simple.o)
 .comment       0x00000000       0x3d c:/program files (x86)/microchip/xc32/v2.30/bin/bin/../../lib/gcc/pic32mx/4.8.3/../../../../pic32mx/lib/fpu64\libc.a(ldpowers.o)
 .comment       0x00000000       0x3d c:/program files (x86)/microchip/xc32/v2.30/bin/bin/../../lib/gcc/pic32mx/4.8.3/../../../../pic32mx/lib/fpu64\libc.a(_flsbuf_simple.o)
 .comment       0x00000000       0x3d c:/program files (x86)/microchip/xc32/v2.30/bin/bin/../../lib/gcc/pic32mx/4.8.3/../../../../pic32mx/lib/fpu64\libmfd.a(s_frexp.o)
 .comment       0x00000000       0x3d c:/program files (x86)/microchip/xc32/v2.30/bin/bin/../../lib/gcc/pic32mx/4.8.3/fpu64\libgcc.a(_cmpdi2.o)
 .comment       0x00000000       0x3d c:/program files (x86)/microchip/xc32/v2.30/bin/bin/../../lib/gcc/pic32mx/4.8.3/fpu64\libgcc.a(_umoddi3.o)
 .comment       0x00000154       0x4b c:/program files (x86)/microchip/xc32/v2.30/bin/bin/../../lib/gcc/pic32mx/4.8.3/../../../../pic32mx/lib/fpu64\libpic32.a(sbrk.o)
                                 0x88 (size before relaxing)
 .comment       0x00000000       0x3d c:/program files (x86)/microchip/xc32/v2.30/bin/bin/../../lib/gcc/pic32mx/4.8.3/../../../../pic32mx/lib/fpu64\libpic32.a(write.o)

.debug
 *.elf(.debug)
 *(.debug)

.line
 *.elf(.line)
 *(.line)

.debug_srcinfo
 *.elf(.debug_srcinfo)
 *(.debug_srcinfo)

.debug_sfnames
 *.elf(.debug_sfnames)
 *(.debug_sfnames)

.debug_aranges  0x00000000     0x25c8
 *.elf(.debug_aranges)
 *(.debug_aranges)
 .debug_aranges
                0x00000000       0x20 build/pic32mz_ef_sk/production/_ext/978308758/bsp.o
 .debug_aranges
                0x00000020      0x188 build/pic32mz_ef_sk/production/_ext/1314174413/drv_ethmac.o
 .debug_aranges
                0x000001a8       0xe8 build/pic32mz_ef_sk/production/_ext/1314174413/drv_ethmac_lib.o
 .debug_aranges
                0x00000290      0x240 build/pic32mz_ef_sk/production/_ext/1314174413/drv_eth_pic32_lib.o
 .debug_aranges
                0x000004d0      0x278 build/pic32mz_ef_sk/production/_ext/138020607/drv_ethphy.o
 .debug_aranges
                0x00000748       0x30 build/pic32mz_ef_sk/production/_ext/138020607/drv_extphy_smsc8740.o
 .debug_aranges
                0x00000778       0xe8 build/pic32mz_ef_sk/production/_ext/1761147401/drv_miim.o
 .debug_aranges
                0x00000860       0x48 build/pic32mz_ef_sk/production/_ext/2027382860/helpers.o
 .debug_aranges
                0x000008a8      0x140 build/pic32mz_ef_sk/production/_ext/2027382860/dns.o
 .debug_aranges
                0x000009e8       0x38 build/pic32mz_ef_sk/production/_ext/2027382860/icmp.o
 .debug_aranges
                0x00000a20      0x220 build/pic32mz_ef_sk/production/_ext/2027382860/tcp.o
 .debug_aranges
                0x00000c40      0x188 build/pic32mz_ef_sk/production/_ext/2027382860/dhcp.o
 .debug_aranges
                0x00000dc8      0x110 build/pic32mz_ef_sk/production/_ext/2027382860/arp.o
 .debug_aranges
                0x00000ed8       0xb8 build/pic32mz_ef_sk/production/_ext/2027382860/tcpip_commands.o
 .debug_aranges
                0x00000f90       0xc0 build/pic32mz_ef_sk/production/_ext/2027382860/ipv4.o
 .debug_aranges
                0x00001050       0x48 build/pic32mz_ef_sk/production/_ext/2027382860/tcpip_heap_alloc.o
 .debug_aranges
                0x00001098       0x68 build/pic32mz_ef_sk/production/_ext/2027382860/tcpip_heap_internal.o
 .debug_aranges
                0x00001100       0x28 build/pic32mz_ef_sk/production/_ext/2027382860/hash_fnv.o
 .debug_aranges
                0x00001128       0x50 build/pic32mz_ef_sk/production/_ext/2027382860/oahash.o
 .debug_aranges
                0x00001178      0x210 build/pic32mz_ef_sk/production/_ext/2027382860/tcpip_helpers.o
 .debug_aranges
                0x00001388       0x20 build/pic32mz_ef_sk/production/_ext/2027382860/tcpip_helper_c32.o
 .debug_aranges
                0x000013a8      0x380 build/pic32mz_ef_sk/production/_ext/2027382860/tcpip_manager.o
 .debug_aranges
                0x00001728       0x40 build/pic32mz_ef_sk/production/_ext/2027382860/tcpip_notify.o
 .debug_aranges
                0x00001768       0x78 build/pic32mz_ef_sk/production/_ext/2027382860/tcpip_packet.o
 .debug_aranges
                0x000017e0      0x1b8 build/pic32mz_ef_sk/production/_ext/2027382860/udp.o
 .debug_aranges
                0x00001998       0x20 build/pic32mz_ef_sk/production/_ext/1098417660/plib_clk.o
 .debug_aranges
                0x000019b8       0x68 build/pic32mz_ef_sk/production/_ext/1710852712/plib_coretimer.o
 .debug_aranges
                0x00001a20       0x50 build/pic32mz_ef_sk/production/_ext/308860137/plib_evic.o
 .debug_aranges
                0x00001a70       0x60 build/pic32mz_ef_sk/production/_ext/308913965/plib_gpio.o
 .debug_aranges
                0x00001ad0       0x88 build/pic32mz_ef_sk/production/_ext/309316908/plib_uart2.o
 .debug_aranges
                0x00001b58       0x28 build/pic32mz_ef_sk/production/_ext/458842868/xc32_monitor.o
 .debug_aranges
                0x00001b80       0xe0 build/pic32mz_ef_sk/production/_ext/2135388491/sys_command.o
 .debug_aranges
                0x00001c60       0x50 build/pic32mz_ef_sk/production/_ext/1702866625/sys_console.o
 .debug_aranges
                0x00001cb0       0x78 build/pic32mz_ef_sk/production/_ext/1702866625/sys_console_uart.o
 .debug_aranges
                0x00001d28       0x50 build/pic32mz_ef_sk/production/_ext/57023747/sys_debug.o
 .debug_aranges
                0x00001d78       0x40 build/pic32mz_ef_sk/production/_ext/723085273/sys_int.o
 .debug_aranges
                0x00001db8      0x130 build/pic32mz_ef_sk/production/_ext/1658225107/sys_time.o
 .debug_aranges
                0x00001ee8       0x28 build/pic32mz_ef_sk/production/_ext/1344301860/sys_time_h2_adapter.o
 .debug_aranges
                0x00001f10       0x20 build/pic32mz_ef_sk/production/_ext/942849350/tasks.o
 .debug_aranges
                0x00001f30       0x28 build/pic32mz_ef_sk/production/_ext/942849350/initialization.o
 .debug_aranges
                0x00001f58       0x40 build/pic32mz_ef_sk/production/_ext/942849350/interrupts.o
 .debug_aranges
                0x00001f98       0x20 build/pic32mz_ef_sk/production/_ext/942849350/exceptions.o
 .debug_aranges
                0x00001fb8       0x28 build/pic32mz_ef_sk/production/_ext/1360937237/app.o
 .debug_aranges
                0x00001fe0       0x20 build/pic32mz_ef_sk/production/_ext/1360937237/main.o
 .debug_aranges
                0x00002000       0xa0 build/pic32mz_ef_sk/production/_ext/108032392/dialtek_modbus.o
 .debug_aranges
                0x000020a0       0x78 build/pic32mz_ef_sk/production/_ext/1360937237/tcp_app.o
 .debug_aranges
                0x00002118       0x40 build/pic32mz_ef_sk/production/_ext/1360937237/modbus_buf.o
 .debug_aranges
                0x00002158       0x20 c:/program files (x86)/microchip/xc32/v2.30/bin/bin/../../lib/gcc/pic32mx/4.8.3/fpu64\libgcc.a(_udivdi3.o)
 .debug_aranges
                0x00002178       0x20 c:/program files (x86)/microchip/xc32/v2.30/bin/bin/../../lib/gcc/pic32mx/4.8.3/../../../../pic32mx/lib/fpu64\libpic32.a(default-bootstrap-exception-handler.o)
 .debug_aranges
                0x00002198       0x20 c:/program files (x86)/microchip/xc32/v2.30/bin/bin/../../lib/gcc/pic32mx/4.8.3/../../../../pic32mx/lib/fpu64\libpic32.a(default-on-reset.o)
 .debug_aranges
                0x000021b8       0x20 c:/program files (x86)/microchip/xc32/v2.30/bin/bin/../../lib/gcc/pic32mx/4.8.3/../../../../pic32mx/lib/fpu64\libpic32.a(default-on-bootstrap.o)
 .debug_aranges
                0x000021d8       0x20 c:/program files (x86)/microchip/xc32/v2.30/bin/bin/../../lib/gcc/pic32mx/4.8.3/../../../../pic32mx/lib/fpu64\libpic32.a(defaultinterrupt.o)
 .debug_aranges
                0x000021f8       0x20 c:/program files (x86)/microchip/xc32/v2.30/bin/bin/../../lib/gcc/pic32mx/4.8.3/../../../../pic32mx/lib/fpu64\libpic32.a(default-cache-err-exception-handler.o)
 .debug_aranges
                0x00002218       0x20 c:/program files (x86)/microchip/xc32/v2.30/bin/bin/../../lib/gcc/pic32mx/4.8.3/../../../../pic32mx/lib/fpu64\libpic32.a(default-simple-tlb-refill-exception-handler.o)
 .debug_aranges
                0x00002238       0x20 c:/program files (x86)/microchip/xc32/v2.30/bin/bin/../../lib/gcc/pic32mx/4.8.3/../../../../pic32mx/lib/fpu64\libc.a(atoi.o)
 .debug_aranges
                0x00002258       0x20 c:/program files (x86)/microchip/xc32/v2.30/bin/bin/../../lib/gcc/pic32mx/4.8.3/../../../../pic32mx/lib/fpu64\libc.a(calloc.o)
 .debug_aranges
                0x00002278       0xa0 c:/program files (x86)/microchip/xc32/v2.30/bin/bin/../../lib/gcc/pic32mx/4.8.3/../../../../pic32mx/lib/fpu64\libc.a(ctypef.o)
 .debug_aranges
                0x00002318       0x30 c:/program files (x86)/microchip/xc32/v2.30/bin/bin/../../lib/gcc/pic32mx/4.8.3/../../../../pic32mx/lib/fpu64\libc.a(malloc.o)
 .debug_aranges
                0x00002348       0x28 c:/program files (x86)/microchip/xc32/v2.30/bin/bin/../../lib/gcc/pic32mx/4.8.3/../../../../pic32mx/lib/fpu64\libc.a(rand.o)
 .debug_aranges
                0x00002370       0x20 c:/program files (x86)/microchip/xc32/v2.30/bin/bin/../../lib/gcc/pic32mx/4.8.3/../../../../pic32mx/lib/fpu64\libc.a(strncmp.o)
 .debug_aranges
                0x00002390       0x20 c:/program files (x86)/microchip/xc32/v2.30/bin/bin/../../lib/gcc/pic32mx/4.8.3/../../../../pic32mx/lib/fpu64\libc.a(strncpy.o)
 .debug_aranges
                0x000023b0       0x28 c:/program files (x86)/microchip/xc32/v2.30/bin/bin/../../lib/gcc/pic32mx/4.8.3/../../../../pic32mx/lib/fpu64\libc.a(strtol.o)
 .debug_aranges
                0x000023d8       0x20 c:/program files (x86)/microchip/xc32/v2.30/bin/bin/../../lib/gcc/pic32mx/4.8.3/../../../../pic32mx/lib/fpu64\libc.a(printf_cdnopsuxX.eo)
 .debug_aranges
                0x000023f8       0x20 c:/program files (x86)/microchip/xc32/v2.30/bin/bin/../../lib/gcc/pic32mx/4.8.3/../../../../pic32mx/lib/fpu64\libc.a(snprintf_cdnopsuxX.eo)
 .debug_aranges
                0x00002418       0x20 c:/program files (x86)/microchip/xc32/v2.30/bin/bin/../../lib/gcc/pic32mx/4.8.3/../../../../pic32mx/lib/fpu64\libc.a(sprintf_cdnopsuxX.eo)
 .debug_aranges
                0x00002438       0x20 c:/program files (x86)/microchip/xc32/v2.30/bin/bin/../../lib/gcc/pic32mx/4.8.3/../../../../pic32mx/lib/fpu64\libc.a(vsnprintf_cdnopsuxX.eo)
 .debug_aranges
                0x00002458       0x20 c:/program files (x86)/microchip/xc32/v2.30/bin/bin/../../lib/gcc/pic32mx/4.8.3/../../../../pic32mx/lib/fpu64\libc.a(vsnprintf.o)
 .debug_aranges
                0x00002478       0x20 c:/program files (x86)/microchip/xc32/v2.30/bin/bin/../../lib/gcc/pic32mx/4.8.3/../../../../pic32mx/lib/fpu64\libc.a(doprnt_cdnopsuxX.eo)
 .debug_aranges
                0x00002498       0x30 c:/program files (x86)/microchip/xc32/v2.30/bin/bin/../../lib/gcc/pic32mx/4.8.3/../../../../pic32mx/lib/fpu64\libc.a(doprnt.o)
 .debug_aranges
                0x000024c8       0x20 c:/program files (x86)/microchip/xc32/v2.30/bin/bin/../../lib/gcc/pic32mx/4.8.3/../../../../pic32mx/lib/fpu64\libc.a(_fputc_simple.o)
 .debug_aranges
                0x000024e8       0x20 c:/program files (x86)/microchip/xc32/v2.30/bin/bin/../../lib/gcc/pic32mx/4.8.3/../../../../pic32mx/lib/fpu64\libc.a(_flsbuf_simple.o)
 .debug_aranges
                0x00002508       0x20 c:/program files (x86)/microchip/xc32/v2.30/bin/bin/../../lib/gcc/pic32mx/4.8.3/../../../../pic32mx/lib/fpu64\libmfd.a(s_frexp.o)
 .debug_aranges
                0x00002528       0x20 c:/program files (x86)/microchip/xc32/v2.30/bin/bin/../../lib/gcc/pic32mx/4.8.3/fpu64\libgcc.a(_cmpdi2.o)
 .debug_aranges
                0x00002548       0x20 c:/program files (x86)/microchip/xc32/v2.30/bin/bin/../../lib/gcc/pic32mx/4.8.3/fpu64\libgcc.a(_umoddi3.o)
 .debug_aranges
                0x00002568       0x40 c:/program files (x86)/microchip/xc32/v2.30/bin/bin/../../lib/gcc/pic32mx/4.8.3/../../../../pic32mx/lib/fpu64\libpic32.a(sbrk.o)
 .debug_aranges
                0x000025a8       0x20 c:/program files (x86)/microchip/xc32/v2.30/bin/bin/../../lib/gcc/pic32mx/4.8.3/../../../../pic32mx/lib/fpu64\libpic32.a(write.o)

.debug_pubnames
 *.elf(.debug_pubnames)
 *(.debug_pubnames)

.debug_info     0x00000000    0x97b2f
 *.elf(.debug_info .gnu.linkonce.wi.*)
 *(.debug_info .gnu.linkonce.wi.*)
 .debug_info    0x00000000      0x186 build/pic32mz_ef_sk/production/_ext/978308758/bsp.o
 .debug_info    0x00000186     0xc428 build/pic32mz_ef_sk/production/_ext/1314174413/drv_ethmac.o
 .debug_info    0x0000c5ae     0xa268 build/pic32mz_ef_sk/production/_ext/1314174413/drv_ethmac_lib.o
 .debug_info    0x00016816     0x3ced build/pic32mz_ef_sk/production/_ext/1314174413/drv_eth_pic32_lib.o
 .debug_info    0x0001a503     0x6766 build/pic32mz_ef_sk/production/_ext/138020607/drv_ethphy.o
 .debug_info    0x00020c69     0x1b4f build/pic32mz_ef_sk/production/_ext/138020607/drv_extphy_smsc8740.o
 .debug_info    0x000227b8     0x6bf0 build/pic32mz_ef_sk/production/_ext/1761147401/drv_miim.o
 .debug_info    0x000293a8      0x50e build/pic32mz_ef_sk/production/_ext/2027382860/helpers.o
 .debug_info    0x000298b6     0x746b build/pic32mz_ef_sk/production/_ext/2027382860/dns.o
 .debug_info    0x00030d21     0x33eb build/pic32mz_ef_sk/production/_ext/2027382860/icmp.o
 .debug_info    0x0003410c     0xa9b0 build/pic32mz_ef_sk/production/_ext/2027382860/tcp.o
 .debug_info    0x0003eabc     0x94db build/pic32mz_ef_sk/production/_ext/2027382860/dhcp.o
 .debug_info    0x00047f97     0x67c9 build/pic32mz_ef_sk/production/_ext/2027382860/arp.o
 .debug_info    0x0004e760     0x826a build/pic32mz_ef_sk/production/_ext/2027382860/tcpip_commands.o
 .debug_info    0x000569ca     0x6299 build/pic32mz_ef_sk/production/_ext/2027382860/ipv4.o
 .debug_info    0x0005cc63      0xcd1 build/pic32mz_ef_sk/production/_ext/2027382860/tcpip_heap_alloc.o
 .debug_info    0x0005d934     0x1b12 build/pic32mz_ef_sk/production/_ext/2027382860/tcpip_heap_internal.o
 .debug_info    0x0005f446      0x27e build/pic32mz_ef_sk/production/_ext/2027382860/hash_fnv.o
 .debug_info    0x0005f6c4      0x8a0 build/pic32mz_ef_sk/production/_ext/2027382860/oahash.o
 .debug_info    0x0005ff64     0x4d65 build/pic32mz_ef_sk/production/_ext/2027382860/tcpip_helpers.o
 .debug_info    0x00064cc9       0xad build/pic32mz_ef_sk/production/_ext/2027382860/tcpip_helper_c32.o
 .debug_info    0x00064d76     0xadbd build/pic32mz_ef_sk/production/_ext/2027382860/tcpip_manager.o
 .debug_info    0x0006fb33      0xad6 build/pic32mz_ef_sk/production/_ext/2027382860/tcpip_notify.o
 .debug_info    0x00070609     0x3194 build/pic32mz_ef_sk/production/_ext/2027382860/tcpip_packet.o
 .debug_info    0x0007379d     0x88dd build/pic32mz_ef_sk/production/_ext/2027382860/udp.o
 .debug_info    0x0007c07a      0x241 build/pic32mz_ef_sk/production/_ext/1098417660/plib_clk.o
 .debug_info    0x0007c2bb      0x794 build/pic32mz_ef_sk/production/_ext/1710852712/plib_coretimer.o
 .debug_info    0x0007ca4f     0x182e build/pic32mz_ef_sk/production/_ext/308860137/plib_evic.o
 .debug_info    0x0007e27d      0x70b build/pic32mz_ef_sk/production/_ext/308913965/plib_gpio.o
 .debug_info    0x0007e988      0xa30 build/pic32mz_ef_sk/production/_ext/309316908/plib_uart2.o
 .debug_info    0x0007f3b8      0x126 build/pic32mz_ef_sk/production/_ext/458842868/xc32_monitor.o
 .debug_info    0x0007f4de     0x24d4 build/pic32mz_ef_sk/production/_ext/2135388491/sys_command.o
 .debug_info    0x000819b2      0xc62 build/pic32mz_ef_sk/production/_ext/1702866625/sys_console.o
 .debug_info    0x00082614     0x30d8 build/pic32mz_ef_sk/production/_ext/1702866625/sys_console_uart.o
 .debug_info    0x000856ec      0x846 build/pic32mz_ef_sk/production/_ext/57023747/sys_debug.o
 .debug_info    0x00085f32     0x17ad build/pic32mz_ef_sk/production/_ext/723085273/sys_int.o
 .debug_info    0x000876df     0x3609 build/pic32mz_ef_sk/production/_ext/1658225107/sys_time.o
 .debug_info    0x0008ace8      0x3e5 build/pic32mz_ef_sk/production/_ext/1344301860/sys_time_h2_adapter.o
 .debug_info    0x0008b0cd      0x2d1 build/pic32mz_ef_sk/production/_ext/942849350/tasks.o
 .debug_info    0x0008b39e     0x7067 build/pic32mz_ef_sk/production/_ext/942849350/initialization.o
 .debug_info    0x00092405      0x308 build/pic32mz_ef_sk/production/_ext/942849350/interrupts.o
 .debug_info    0x0009270d      0x309 build/pic32mz_ef_sk/production/_ext/942849350/exceptions.o
 .debug_info    0x00092a16      0x61f build/pic32mz_ef_sk/production/_ext/1360937237/app.o
 .debug_info    0x00093035      0x1c3 build/pic32mz_ef_sk/production/_ext/1360937237/main.o
 .debug_info    0x000931f8      0xb47 build/pic32mz_ef_sk/production/_ext/108032392/dialtek_modbus.o
 .debug_info    0x00093d3f     0x1237 build/pic32mz_ef_sk/production/_ext/1360937237/tcp_app.o
 .debug_info    0x00094f76      0x270 build/pic32mz_ef_sk/production/_ext/1360937237/modbus_buf.o
 .debug_info    0x000951e6      0x751 c:/program files (x86)/microchip/xc32/v2.30/bin/bin/../../lib/gcc/pic32mx/4.8.3/fpu64\libgcc.a(_udivdi3.o)
 .debug_info    0x00095937       0xf4 c:/program files (x86)/microchip/xc32/v2.30/bin/bin/../../lib/gcc/pic32mx/4.8.3/../../../../pic32mx/lib/fpu64\libpic32.a(default-bootstrap-exception-handler.o)
 .debug_info    0x00095a2b       0xcd c:/program files (x86)/microchip/xc32/v2.30/bin/bin/../../lib/gcc/pic32mx/4.8.3/../../../../pic32mx/lib/fpu64\libpic32.a(default-on-reset.o)
 .debug_info    0x00095af8       0xd5 c:/program files (x86)/microchip/xc32/v2.30/bin/bin/../../lib/gcc/pic32mx/4.8.3/../../../../pic32mx/lib/fpu64\libpic32.a(default-on-bootstrap.o)
 .debug_info    0x00095bcd       0xe7 c:/program files (x86)/microchip/xc32/v2.30/bin/bin/../../lib/gcc/pic32mx/4.8.3/../../../../pic32mx/lib/fpu64\libpic32.a(defaultinterrupt.o)
 .debug_info    0x00095cb4       0xf4 c:/program files (x86)/microchip/xc32/v2.30/bin/bin/../../lib/gcc/pic32mx/4.8.3/../../../../pic32mx/lib/fpu64\libpic32.a(default-cache-err-exception-handler.o)
 .debug_info    0x00095da8      0x104 c:/program files (x86)/microchip/xc32/v2.30/bin/bin/../../lib/gcc/pic32mx/4.8.3/../../../../pic32mx/lib/fpu64\libpic32.a(default-simple-tlb-refill-exception-handler.o)
 .debug_info    0x00095eac       0xc0 c:/program files (x86)/microchip/xc32/v2.30/bin/bin/../../lib/gcc/pic32mx/4.8.3/../../../../pic32mx/lib/fpu64\libc.a(atoi.o)
 .debug_info    0x00095f6c       0xc4 c:/program files (x86)/microchip/xc32/v2.30/bin/bin/../../lib/gcc/pic32mx/4.8.3/../../../../pic32mx/lib/fpu64\libc.a(calloc.o)
 .debug_info    0x00096030      0x238 c:/program files (x86)/microchip/xc32/v2.30/bin/bin/../../lib/gcc/pic32mx/4.8.3/../../../../pic32mx/lib/fpu64\libc.a(ctypef.o)
 .debug_info    0x00096268       0xf5 c:/program files (x86)/microchip/xc32/v2.30/bin/bin/../../lib/gcc/pic32mx/4.8.3/../../../../pic32mx/lib/fpu64\libc.a(malloc.o)
 .debug_info    0x0009635d       0xdb c:/program files (x86)/microchip/xc32/v2.30/bin/bin/../../lib/gcc/pic32mx/4.8.3/../../../../pic32mx/lib/fpu64\libc.a(rand.o)
 .debug_info    0x00096438       0xc6 c:/program files (x86)/microchip/xc32/v2.30/bin/bin/../../lib/gcc/pic32mx/4.8.3/../../../../pic32mx/lib/fpu64\libc.a(strncmp.o)
 .debug_info    0x000964fe       0xc6 c:/program files (x86)/microchip/xc32/v2.30/bin/bin/../../lib/gcc/pic32mx/4.8.3/../../../../pic32mx/lib/fpu64\libc.a(strncpy.o)
 .debug_info    0x000965c4       0xdb c:/program files (x86)/microchip/xc32/v2.30/bin/bin/../../lib/gcc/pic32mx/4.8.3/../../../../pic32mx/lib/fpu64\libc.a(strtol.o)
 .debug_info    0x0009669f       0xcf c:/program files (x86)/microchip/xc32/v2.30/bin/bin/../../lib/gcc/pic32mx/4.8.3/../../../../pic32mx/lib/fpu64\libc.a(printf_cdnopsuxX.eo)
 .debug_info    0x0009676e       0xd3 c:/program files (x86)/microchip/xc32/v2.30/bin/bin/../../lib/gcc/pic32mx/4.8.3/../../../../pic32mx/lib/fpu64\libc.a(snprintf_cdnopsuxX.eo)
 .debug_info    0x00096841       0xd1 c:/program files (x86)/microchip/xc32/v2.30/bin/bin/../../lib/gcc/pic32mx/4.8.3/../../../../pic32mx/lib/fpu64\libc.a(sprintf_cdnopsuxX.eo)
 .debug_info    0x00096912       0xd5 c:/program files (x86)/microchip/xc32/v2.30/bin/bin/../../lib/gcc/pic32mx/4.8.3/../../../../pic32mx/lib/fpu64\libc.a(vsnprintf_cdnopsuxX.eo)
 .debug_info    0x000969e7       0xca c:/program files (x86)/microchip/xc32/v2.30/bin/bin/../../lib/gcc/pic32mx/4.8.3/../../../../pic32mx/lib/fpu64\libc.a(vsnprintf.o)
 .debug_info    0x00096ab1       0xd2 c:/program files (x86)/microchip/xc32/v2.30/bin/bin/../../lib/gcc/pic32mx/4.8.3/../../../../pic32mx/lib/fpu64\libc.a(doprnt_cdnopsuxX.eo)
 .debug_info    0x00096b83      0x108 c:/program files (x86)/microchip/xc32/v2.30/bin/bin/../../lib/gcc/pic32mx/4.8.3/../../../../pic32mx/lib/fpu64\libc.a(doprnt.o)
 .debug_info    0x00096c8b       0xc2 c:/program files (x86)/microchip/xc32/v2.30/bin/bin/../../lib/gcc/pic32mx/4.8.3/../../../../pic32mx/lib/fpu64\libc.a(_fputc_simple.o)
 .debug_info    0x00096d4d       0xc5 c:/program files (x86)/microchip/xc32/v2.30/bin/bin/../../lib/gcc/pic32mx/4.8.3/../../../../pic32mx/lib/fpu64\libc.a(_flsbuf_simple.o)
 .debug_info    0x00096e12       0xc0 c:/program files (x86)/microchip/xc32/v2.30/bin/bin/../../lib/gcc/pic32mx/4.8.3/../../../../pic32mx/lib/fpu64\libmfd.a(s_frexp.o)
 .debug_info    0x00096ed2      0x2df c:/program files (x86)/microchip/xc32/v2.30/bin/bin/../../lib/gcc/pic32mx/4.8.3/fpu64\libgcc.a(_cmpdi2.o)
 .debug_info    0x000971b1      0x78e c:/program files (x86)/microchip/xc32/v2.30/bin/bin/../../lib/gcc/pic32mx/4.8.3/fpu64\libgcc.a(_umoddi3.o)
 .debug_info    0x0009793f      0x131 c:/program files (x86)/microchip/xc32/v2.30/bin/bin/../../lib/gcc/pic32mx/4.8.3/../../../../pic32mx/lib/fpu64\libpic32.a(sbrk.o)
 .debug_info    0x00097a70       0xbf c:/program files (x86)/microchip/xc32/v2.30/bin/bin/../../lib/gcc/pic32mx/4.8.3/../../../../pic32mx/lib/fpu64\libpic32.a(write.o)

.debug_abbrev   0x00000000     0x8991
 *.elf(.debug_abbrev)
 *(.debug_abbrev)
 .debug_abbrev  0x00000000       0x39 build/pic32mz_ef_sk/production/_ext/978308758/bsp.o
 .debug_abbrev  0x00000039      0x57e build/pic32mz_ef_sk/production/_ext/1314174413/drv_ethmac.o
 .debug_abbrev  0x000005b7      0x4f9 build/pic32mz_ef_sk/production/_ext/1314174413/drv_ethmac_lib.o
 .debug_abbrev  0x00000ab0      0x1b2 build/pic32mz_ef_sk/production/_ext/1314174413/drv_eth_pic32_lib.o
 .debug_abbrev  0x00000c62      0x499 build/pic32mz_ef_sk/production/_ext/138020607/drv_ethphy.o
 .debug_abbrev  0x000010fb      0x1e3 build/pic32mz_ef_sk/production/_ext/138020607/drv_extphy_smsc8740.o
 .debug_abbrev  0x000012de      0x5f1 build/pic32mz_ef_sk/production/_ext/1761147401/drv_miim.o
 .debug_abbrev  0x000018cf      0x173 build/pic32mz_ef_sk/production/_ext/2027382860/helpers.o
 .debug_abbrev  0x00001a42      0x5b1 build/pic32mz_ef_sk/production/_ext/2027382860/dns.o
 .debug_abbrev  0x00001ff3      0x3e3 build/pic32mz_ef_sk/production/_ext/2027382860/icmp.o
 .debug_abbrev  0x000023d6      0x5d4 build/pic32mz_ef_sk/production/_ext/2027382860/tcp.o
 .debug_abbrev  0x000029aa      0x53a build/pic32mz_ef_sk/production/_ext/2027382860/dhcp.o
 .debug_abbrev  0x00002ee4      0x4d5 build/pic32mz_ef_sk/production/_ext/2027382860/arp.o
 .debug_abbrev  0x000033b9      0x44d build/pic32mz_ef_sk/production/_ext/2027382860/tcpip_commands.o
 .debug_abbrev  0x00003806      0x4fb build/pic32mz_ef_sk/production/_ext/2027382860/ipv4.o
 .debug_abbrev  0x00003d01      0x184 build/pic32mz_ef_sk/production/_ext/2027382860/tcpip_heap_alloc.o
 .debug_abbrev  0x00003e85      0x385 build/pic32mz_ef_sk/production/_ext/2027382860/tcpip_heap_internal.o
 .debug_abbrev  0x0000420a       0xb5 build/pic32mz_ef_sk/production/_ext/2027382860/hash_fnv.o
 .debug_abbrev  0x000042bf      0x277 build/pic32mz_ef_sk/production/_ext/2027382860/oahash.o
 .debug_abbrev  0x00004536      0x47b build/pic32mz_ef_sk/production/_ext/2027382860/tcpip_helpers.o
 .debug_abbrev  0x000049b1       0x14 build/pic32mz_ef_sk/production/_ext/2027382860/tcpip_helper_c32.o
 .debug_abbrev  0x000049c5      0x621 build/pic32mz_ef_sk/production/_ext/2027382860/tcpip_manager.o
 .debug_abbrev  0x00004fe6      0x1df build/pic32mz_ef_sk/production/_ext/2027382860/tcpip_notify.o
 .debug_abbrev  0x000051c5      0x3d7 build/pic32mz_ef_sk/production/_ext/2027382860/tcpip_packet.o
 .debug_abbrev  0x0000559c      0x60f build/pic32mz_ef_sk/production/_ext/2027382860/udp.o
 .debug_abbrev  0x00005bab       0x6f build/pic32mz_ef_sk/production/_ext/1098417660/plib_clk.o
 .debug_abbrev  0x00005c1a      0x1e4 build/pic32mz_ef_sk/production/_ext/1710852712/plib_coretimer.o
 .debug_abbrev  0x00005dfe       0xed build/pic32mz_ef_sk/production/_ext/308860137/plib_evic.o
 .debug_abbrev  0x00005eeb      0x132 build/pic32mz_ef_sk/production/_ext/308913965/plib_gpio.o
 .debug_abbrev  0x0000601d      0x21b build/pic32mz_ef_sk/production/_ext/309316908/plib_uart2.o
 .debug_abbrev  0x00006238       0x66 build/pic32mz_ef_sk/production/_ext/458842868/xc32_monitor.o
 .debug_abbrev  0x0000629e      0x3fa build/pic32mz_ef_sk/production/_ext/2135388491/sys_command.o
 .debug_abbrev  0x00006698      0x1dc build/pic32mz_ef_sk/production/_ext/1702866625/sys_console.o
 .debug_abbrev  0x00006874      0x41a build/pic32mz_ef_sk/production/_ext/1702866625/sys_console_uart.o
 .debug_abbrev  0x00006c8e      0x1d0 build/pic32mz_ef_sk/production/_ext/57023747/sys_debug.o
 .debug_abbrev  0x00006e5e      0x130 build/pic32mz_ef_sk/production/_ext/723085273/sys_int.o
 .debug_abbrev  0x00006f8e      0x4e0 build/pic32mz_ef_sk/production/_ext/1658225107/sys_time.o
 .debug_abbrev  0x0000746e      0x10f build/pic32mz_ef_sk/production/_ext/1344301860/sys_time_h2_adapter.o
 .debug_abbrev  0x0000757d       0xbe build/pic32mz_ef_sk/production/_ext/942849350/tasks.o
 .debug_abbrev  0x0000763b      0x356 build/pic32mz_ef_sk/production/_ext/942849350/initialization.o
 .debug_abbrev  0x00007991       0x57 build/pic32mz_ef_sk/production/_ext/942849350/interrupts.o
 .debug_abbrev  0x000079e8       0xb8 build/pic32mz_ef_sk/production/_ext/942849350/exceptions.o
 .debug_abbrev  0x00007aa0      0x17c build/pic32mz_ef_sk/production/_ext/1360937237/app.o
 .debug_abbrev  0x00007c1c       0x93 build/pic32mz_ef_sk/production/_ext/1360937237/main.o
 .debug_abbrev  0x00007caf      0x29d build/pic32mz_ef_sk/production/_ext/108032392/dialtek_modbus.o
 .debug_abbrev  0x00007f4c      0x1d7 build/pic32mz_ef_sk/production/_ext/1360937237/tcp_app.o
 .debug_abbrev  0x00008123       0x8c build/pic32mz_ef_sk/production/_ext/1360937237/modbus_buf.o
 .debug_abbrev  0x000081af      0x138 c:/program files (x86)/microchip/xc32/v2.30/bin/bin/../../lib/gcc/pic32mx/4.8.3/fpu64\libgcc.a(_udivdi3.o)
 .debug_abbrev  0x000082e7       0x28 c:/program files (x86)/microchip/xc32/v2.30/bin/bin/../../lib/gcc/pic32mx/4.8.3/../../../../pic32mx/lib/fpu64\libpic32.a(default-bootstrap-exception-handler.o)
 .debug_abbrev  0x0000830f       0x28 c:/program files (x86)/microchip/xc32/v2.30/bin/bin/../../lib/gcc/pic32mx/4.8.3/../../../../pic32mx/lib/fpu64\libpic32.a(default-on-reset.o)
 .debug_abbrev  0x00008337       0x28 c:/program files (x86)/microchip/xc32/v2.30/bin/bin/../../lib/gcc/pic32mx/4.8.3/../../../../pic32mx/lib/fpu64\libpic32.a(default-on-bootstrap.o)
 .debug_abbrev  0x0000835f       0x28 c:/program files (x86)/microchip/xc32/v2.30/bin/bin/../../lib/gcc/pic32mx/4.8.3/../../../../pic32mx/lib/fpu64\libpic32.a(defaultinterrupt.o)
 .debug_abbrev  0x00008387       0x28 c:/program files (x86)/microchip/xc32/v2.30/bin/bin/../../lib/gcc/pic32mx/4.8.3/../../../../pic32mx/lib/fpu64\libpic32.a(default-cache-err-exception-handler.o)
 .debug_abbrev  0x000083af       0x28 c:/program files (x86)/microchip/xc32/v2.30/bin/bin/../../lib/gcc/pic32mx/4.8.3/../../../../pic32mx/lib/fpu64\libpic32.a(default-simple-tlb-refill-exception-handler.o)
 .debug_abbrev  0x000083d7       0x28 c:/program files (x86)/microchip/xc32/v2.30/bin/bin/../../lib/gcc/pic32mx/4.8.3/../../../../pic32mx/lib/fpu64\libc.a(atoi.o)
 .debug_abbrev  0x000083ff       0x28 c:/program files (x86)/microchip/xc32/v2.30/bin/bin/../../lib/gcc/pic32mx/4.8.3/../../../../pic32mx/lib/fpu64\libc.a(calloc.o)
 .debug_abbrev  0x00008427       0x28 c:/program files (x86)/microchip/xc32/v2.30/bin/bin/../../lib/gcc/pic32mx/4.8.3/../../../../pic32mx/lib/fpu64\libc.a(ctypef.o)
 .debug_abbrev  0x0000844f       0x47 c:/program files (x86)/microchip/xc32/v2.30/bin/bin/../../lib/gcc/pic32mx/4.8.3/../../../../pic32mx/lib/fpu64\libc.a(malloc.o)
 .debug_abbrev  0x00008496       0x47 c:/program files (x86)/microchip/xc32/v2.30/bin/bin/../../lib/gcc/pic32mx/4.8.3/../../../../pic32mx/lib/fpu64\libc.a(rand.o)
 .debug_abbrev  0x000084dd       0x28 c:/program files (x86)/microchip/xc32/v2.30/bin/bin/../../lib/gcc/pic32mx/4.8.3/../../../../pic32mx/lib/fpu64\libc.a(strncmp.o)
 .debug_abbrev  0x00008505       0x28 c:/program files (x86)/microchip/xc32/v2.30/bin/bin/../../lib/gcc/pic32mx/4.8.3/../../../../pic32mx/lib/fpu64\libc.a(strncpy.o)
 .debug_abbrev  0x0000852d       0x28 c:/program files (x86)/microchip/xc32/v2.30/bin/bin/../../lib/gcc/pic32mx/4.8.3/../../../../pic32mx/lib/fpu64\libc.a(strtol.o)
 .debug_abbrev  0x00008555       0x28 c:/program files (x86)/microchip/xc32/v2.30/bin/bin/../../lib/gcc/pic32mx/4.8.3/../../../../pic32mx/lib/fpu64\libc.a(printf_cdnopsuxX.eo)
 .debug_abbrev  0x0000857d       0x28 c:/program files (x86)/microchip/xc32/v2.30/bin/bin/../../lib/gcc/pic32mx/4.8.3/../../../../pic32mx/lib/fpu64\libc.a(snprintf_cdnopsuxX.eo)
 .debug_abbrev  0x000085a5       0x28 c:/program files (x86)/microchip/xc32/v2.30/bin/bin/../../lib/gcc/pic32mx/4.8.3/../../../../pic32mx/lib/fpu64\libc.a(sprintf_cdnopsuxX.eo)
 .debug_abbrev  0x000085cd       0x28 c:/program files (x86)/microchip/xc32/v2.30/bin/bin/../../lib/gcc/pic32mx/4.8.3/../../../../pic32mx/lib/fpu64\libc.a(vsnprintf_cdnopsuxX.eo)
 .debug_abbrev  0x000085f5       0x28 c:/program files (x86)/microchip/xc32/v2.30/bin/bin/../../lib/gcc/pic32mx/4.8.3/../../../../pic32mx/lib/fpu64\libc.a(vsnprintf.o)
 .debug_abbrev  0x0000861d       0x28 c:/program files (x86)/microchip/xc32/v2.30/bin/bin/../../lib/gcc/pic32mx/4.8.3/../../../../pic32mx/lib/fpu64\libc.a(doprnt_cdnopsuxX.eo)
 .debug_abbrev  0x00008645       0x52 c:/program files (x86)/microchip/xc32/v2.30/bin/bin/../../lib/gcc/pic32mx/4.8.3/../../../../pic32mx/lib/fpu64\libc.a(doprnt.o)
 .debug_abbrev  0x00008697       0x28 c:/program files (x86)/microchip/xc32/v2.30/bin/bin/../../lib/gcc/pic32mx/4.8.3/../../../../pic32mx/lib/fpu64\libc.a(_fputc_simple.o)
 .debug_abbrev  0x000086bf       0x28 c:/program files (x86)/microchip/xc32/v2.30/bin/bin/../../lib/gcc/pic32mx/4.8.3/../../../../pic32mx/lib/fpu64\libc.a(_flsbuf_simple.o)
 .debug_abbrev  0x000086e7       0x28 c:/program files (x86)/microchip/xc32/v2.30/bin/bin/../../lib/gcc/pic32mx/4.8.3/../../../../pic32mx/lib/fpu64\libmfd.a(s_frexp.o)
 .debug_abbrev  0x0000870f       0xbf c:/program files (x86)/microchip/xc32/v2.30/bin/bin/../../lib/gcc/pic32mx/4.8.3/fpu64\libgcc.a(_cmpdi2.o)
 .debug_abbrev  0x000087ce      0x147 c:/program files (x86)/microchip/xc32/v2.30/bin/bin/../../lib/gcc/pic32mx/4.8.3/fpu64\libgcc.a(_umoddi3.o)
 .debug_abbrev  0x00008915       0x54 c:/program files (x86)/microchip/xc32/v2.30/bin/bin/../../lib/gcc/pic32mx/4.8.3/../../../../pic32mx/lib/fpu64\libpic32.a(sbrk.o)
 .debug_abbrev  0x00008969       0x28 c:/program files (x86)/microchip/xc32/v2.30/bin/bin/../../lib/gcc/pic32mx/4.8.3/../../../../pic32mx/lib/fpu64\libpic32.a(write.o)

.debug_line     0x00000000    0x1260d
 *.elf(.debug_line)
 *(.debug_line)
 .debug_line    0x00000000       0x86 build/pic32mz_ef_sk/production/_ext/978308758/bsp.o
 .debug_line    0x00000086      0xcfc build/pic32mz_ef_sk/production/_ext/1314174413/drv_ethmac.o
 .debug_line    0x00000d82      0xa26 build/pic32mz_ef_sk/production/_ext/1314174413/drv_ethmac_lib.o
 .debug_line    0x000017a8      0x625 build/pic32mz_ef_sk/production/_ext/1314174413/drv_eth_pic32_lib.o
 .debug_line    0x00001dcd      0xf8c build/pic32mz_ef_sk/production/_ext/138020607/drv_ethphy.o
 .debug_line    0x00002d59      0x345 build/pic32mz_ef_sk/production/_ext/138020607/drv_extphy_smsc8740.o
 .debug_line    0x0000309e      0xa27 build/pic32mz_ef_sk/production/_ext/1761147401/drv_miim.o
 .debug_line    0x00003ac5      0x1f1 build/pic32mz_ef_sk/production/_ext/2027382860/helpers.o
 .debug_line    0x00003cb6      0xac9 build/pic32mz_ef_sk/production/_ext/2027382860/dns.o
 .debug_line    0x0000477f      0x3ac build/pic32mz_ef_sk/production/_ext/2027382860/icmp.o
 .debug_line    0x00004b2b     0x163b build/pic32mz_ef_sk/production/_ext/2027382860/tcp.o
 .debug_line    0x00006166      0xde9 build/pic32mz_ef_sk/production/_ext/2027382860/dhcp.o
 .debug_line    0x00006f4f      0x9ce build/pic32mz_ef_sk/production/_ext/2027382860/arp.o
 .debug_line    0x0000791d      0xaa5 build/pic32mz_ef_sk/production/_ext/2027382860/tcpip_commands.o
 .debug_line    0x000083c2      0x8f9 build/pic32mz_ef_sk/production/_ext/2027382860/ipv4.o
 .debug_line    0x00008cbb      0x22f build/pic32mz_ef_sk/production/_ext/2027382860/tcpip_heap_alloc.o
 .debug_line    0x00008eea      0x526 build/pic32mz_ef_sk/production/_ext/2027382860/tcpip_heap_internal.o
 .debug_line    0x00009410      0x160 build/pic32mz_ef_sk/production/_ext/2027382860/hash_fnv.o
 .debug_line    0x00009570      0x20f build/pic32mz_ef_sk/production/_ext/2027382860/oahash.o
 .debug_line    0x0000977f      0xe6c build/pic32mz_ef_sk/production/_ext/2027382860/tcpip_helpers.o
 .debug_line    0x0000a5eb      0x108 build/pic32mz_ef_sk/production/_ext/2027382860/tcpip_helper_c32.o
 .debug_line    0x0000a6f3     0x1538 build/pic32mz_ef_sk/production/_ext/2027382860/tcpip_manager.o
 .debug_line    0x0000bc2b      0x29f build/pic32mz_ef_sk/production/_ext/2027382860/tcpip_notify.o
 .debug_line    0x0000beca      0x4b2 build/pic32mz_ef_sk/production/_ext/2027382860/tcpip_packet.o
 .debug_line    0x0000c37c      0xe94 build/pic32mz_ef_sk/production/_ext/2027382860/udp.o
 .debug_line    0x0000d210      0x171 build/pic32mz_ef_sk/production/_ext/1098417660/plib_clk.o
 .debug_line    0x0000d381      0x235 build/pic32mz_ef_sk/production/_ext/1710852712/plib_coretimer.o
 .debug_line    0x0000d5b6      0x1e7 build/pic32mz_ef_sk/production/_ext/308860137/plib_evic.o
 .debug_line    0x0000d79d      0x20c build/pic32mz_ef_sk/production/_ext/308913965/plib_gpio.o
 .debug_line    0x0000d9a9      0x34e build/pic32mz_ef_sk/production/_ext/309316908/plib_uart2.o
 .debug_line    0x0000dcf7       0xa0 build/pic32mz_ef_sk/production/_ext/458842868/xc32_monitor.o
 .debug_line    0x0000dd97      0x6eb build/pic32mz_ef_sk/production/_ext/2135388491/sys_command.o
 .debug_line    0x0000e482      0x387 build/pic32mz_ef_sk/production/_ext/1702866625/sys_console.o
 .debug_line    0x0000e809      0x5e4 build/pic32mz_ef_sk/production/_ext/1702866625/sys_console_uart.o
 .debug_line    0x0000eded      0x372 build/pic32mz_ef_sk/production/_ext/57023747/sys_debug.o
 .debug_line    0x0000f15f      0x1a3 build/pic32mz_ef_sk/production/_ext/723085273/sys_int.o
 .debug_line    0x0000f302      0x79b build/pic32mz_ef_sk/production/_ext/1658225107/sys_time.o
 .debug_line    0x0000fa9d      0x17f build/pic32mz_ef_sk/production/_ext/1344301860/sys_time_h2_adapter.o
 .debug_line    0x0000fc1c      0x2d2 build/pic32mz_ef_sk/production/_ext/942849350/tasks.o
 .debug_line    0x0000feee      0x9b6 build/pic32mz_ef_sk/production/_ext/942849350/initialization.o
 .debug_line    0x000108a4       0xf6 build/pic32mz_ef_sk/production/_ext/942849350/interrupts.o
 .debug_line    0x0001099a      0x13b build/pic32mz_ef_sk/production/_ext/942849350/exceptions.o
 .debug_line    0x00010ad5      0x227 build/pic32mz_ef_sk/production/_ext/1360937237/app.o
 .debug_line    0x00010cfc       0xcc build/pic32mz_ef_sk/production/_ext/1360937237/main.o
 .debug_line    0x00010dc8      0x305 build/pic32mz_ef_sk/production/_ext/108032392/dialtek_modbus.o
 .debug_line    0x000110cd      0x425 build/pic32mz_ef_sk/production/_ext/1360937237/tcp_app.o
 .debug_line    0x000114f2       0xc4 build/pic32mz_ef_sk/production/_ext/1360937237/modbus_buf.o
 .debug_line    0x000115b6       0xf7 c:/program files (x86)/microchip/xc32/v2.30/bin/bin/../../lib/gcc/pic32mx/4.8.3/fpu64\libgcc.a(_udivdi3.o)
 .debug_line    0x000116ad       0xa6 c:/program files (x86)/microchip/xc32/v2.30/bin/bin/../../lib/gcc/pic32mx/4.8.3/../../../../pic32mx/lib/fpu64\libpic32.a(default-bootstrap-exception-handler.o)
 .debug_line    0x00011753       0x93 c:/program files (x86)/microchip/xc32/v2.30/bin/bin/../../lib/gcc/pic32mx/4.8.3/../../../../pic32mx/lib/fpu64\libpic32.a(default-on-reset.o)
 .debug_line    0x000117e6       0x97 c:/program files (x86)/microchip/xc32/v2.30/bin/bin/../../lib/gcc/pic32mx/4.8.3/../../../../pic32mx/lib/fpu64\libpic32.a(default-on-bootstrap.o)
 .debug_line    0x0001187d       0xa5 c:/program files (x86)/microchip/xc32/v2.30/bin/bin/../../lib/gcc/pic32mx/4.8.3/../../../../pic32mx/lib/fpu64\libpic32.a(defaultinterrupt.o)
 .debug_line    0x00011922       0xa6 c:/program files (x86)/microchip/xc32/v2.30/bin/bin/../../lib/gcc/pic32mx/4.8.3/../../../../pic32mx/lib/fpu64\libpic32.a(default-cache-err-exception-handler.o)
 .debug_line    0x000119c8       0xae c:/program files (x86)/microchip/xc32/v2.30/bin/bin/../../lib/gcc/pic32mx/4.8.3/../../../../pic32mx/lib/fpu64\libpic32.a(default-simple-tlb-refill-exception-handler.o)
 .debug_line    0x00011a76       0x7c c:/program files (x86)/microchip/xc32/v2.30/bin/bin/../../lib/gcc/pic32mx/4.8.3/../../../../pic32mx/lib/fpu64\libc.a(atoi.o)
 .debug_line    0x00011af2       0x7e c:/program files (x86)/microchip/xc32/v2.30/bin/bin/../../lib/gcc/pic32mx/4.8.3/../../../../pic32mx/lib/fpu64\libc.a(calloc.o)
 .debug_line    0x00011b70        0x0 c:/program files (x86)/microchip/xc32/v2.30/bin/bin/../../lib/gcc/pic32mx/4.8.3/../../../../pic32mx/lib/fpu64\libc.a(ctype.o)
 .debug_line    0x00011b70       0x7e c:/program files (x86)/microchip/xc32/v2.30/bin/bin/../../lib/gcc/pic32mx/4.8.3/../../../../pic32mx/lib/fpu64\libc.a(ctypef.o)
 .debug_line    0x00011bee       0x7e c:/program files (x86)/microchip/xc32/v2.30/bin/bin/../../lib/gcc/pic32mx/4.8.3/../../../../pic32mx/lib/fpu64\libc.a(malloc.o)
 .debug_line    0x00011c6c       0x7c c:/program files (x86)/microchip/xc32/v2.30/bin/bin/../../lib/gcc/pic32mx/4.8.3/../../../../pic32mx/lib/fpu64\libc.a(rand.o)
 .debug_line    0x00011ce8       0x7f c:/program files (x86)/microchip/xc32/v2.30/bin/bin/../../lib/gcc/pic32mx/4.8.3/../../../../pic32mx/lib/fpu64\libc.a(strncmp.o)
 .debug_line    0x00011d67       0x7f c:/program files (x86)/microchip/xc32/v2.30/bin/bin/../../lib/gcc/pic32mx/4.8.3/../../../../pic32mx/lib/fpu64\libc.a(strncpy.o)
 .debug_line    0x00011de6       0x7e c:/program files (x86)/microchip/xc32/v2.30/bin/bin/../../lib/gcc/pic32mx/4.8.3/../../../../pic32mx/lib/fpu64\libc.a(strtol.o)
 .debug_line    0x00011e64       0x7e c:/program files (x86)/microchip/xc32/v2.30/bin/bin/../../lib/gcc/pic32mx/4.8.3/../../../../pic32mx/lib/fpu64\libc.a(printf_cdnopsuxX.eo)
 .debug_line    0x00011ee2       0x80 c:/program files (x86)/microchip/xc32/v2.30/bin/bin/../../lib/gcc/pic32mx/4.8.3/../../../../pic32mx/lib/fpu64\libc.a(snprintf_cdnopsuxX.eo)
 .debug_line    0x00011f62       0x7f c:/program files (x86)/microchip/xc32/v2.30/bin/bin/../../lib/gcc/pic32mx/4.8.3/../../../../pic32mx/lib/fpu64\libc.a(sprintf_cdnopsuxX.eo)
 .debug_line    0x00011fe1       0x81 c:/program files (x86)/microchip/xc32/v2.30/bin/bin/../../lib/gcc/pic32mx/4.8.3/../../../../pic32mx/lib/fpu64\libc.a(vsnprintf_cdnopsuxX.eo)
 .debug_line    0x00012062       0x81 c:/program files (x86)/microchip/xc32/v2.30/bin/bin/../../lib/gcc/pic32mx/4.8.3/../../../../pic32mx/lib/fpu64\libc.a(vsnprintf.o)
 .debug_line    0x000120e3        0x0 c:/program files (x86)/microchip/xc32/v2.30/bin/bin/../../lib/gcc/pic32mx/4.8.3/../../../../pic32mx/lib/fpu64\libc.a(_iob.o)
 .debug_line    0x000120e3        0x0 c:/program files (x86)/microchip/xc32/v2.30/bin/bin/../../lib/gcc/pic32mx/4.8.3/../../../../pic32mx/lib/fpu64\libc.a(errno.o)
 .debug_line    0x000120e3       0x7e c:/program files (x86)/microchip/xc32/v2.30/bin/bin/../../lib/gcc/pic32mx/4.8.3/../../../../pic32mx/lib/fpu64\libc.a(doprnt_cdnopsuxX.eo)
 .debug_line    0x00012161       0x7e c:/program files (x86)/microchip/xc32/v2.30/bin/bin/../../lib/gcc/pic32mx/4.8.3/../../../../pic32mx/lib/fpu64\libc.a(doprnt.o)
 .debug_line    0x000121df       0x7d c:/program files (x86)/microchip/xc32/v2.30/bin/bin/../../lib/gcc/pic32mx/4.8.3/../../../../pic32mx/lib/fpu64\libc.a(_fputc_simple.o)
 .debug_line    0x0001225c        0x0 c:/program files (x86)/microchip/xc32/v2.30/bin/bin/../../lib/gcc/pic32mx/4.8.3/../../../../pic32mx/lib/fpu64\libc.a(ldpowers.o)
 .debug_line    0x0001225c       0x7e c:/program files (x86)/microchip/xc32/v2.30/bin/bin/../../lib/gcc/pic32mx/4.8.3/../../../../pic32mx/lib/fpu64\libc.a(_flsbuf_simple.o)
 .debug_line    0x000122da       0x7a c:/program files (x86)/microchip/xc32/v2.30/bin/bin/../../lib/gcc/pic32mx/4.8.3/../../../../pic32mx/lib/fpu64\libmfd.a(s_frexp.o)
 .debug_line    0x00012354       0xa1 c:/program files (x86)/microchip/xc32/v2.30/bin/bin/../../lib/gcc/pic32mx/4.8.3/fpu64\libgcc.a(_cmpdi2.o)
 .debug_line    0x000123f5      0x109 c:/program files (x86)/microchip/xc32/v2.30/bin/bin/../../lib/gcc/pic32mx/4.8.3/fpu64\libgcc.a(_umoddi3.o)
 .debug_line    0x000124fe       0x87 c:/program files (x86)/microchip/xc32/v2.30/bin/bin/../../lib/gcc/pic32mx/4.8.3/../../../../pic32mx/lib/fpu64\libpic32.a(sbrk.o)
 .debug_line    0x00012585       0x88 c:/program files (x86)/microchip/xc32/v2.30/bin/bin/../../lib/gcc/pic32mx/4.8.3/../../../../pic32mx/lib/fpu64\libpic32.a(write.o)

.debug_frame    0x00000000     0x6ddc
 *.elf(.debug_frame)
 *(.debug_frame)
 .debug_frame   0x00000000       0x20 build/pic32mz_ef_sk/production/_ext/978308758/bsp.o
 .debug_frame   0x00000020      0x55c build/pic32mz_ef_sk/production/_ext/1314174413/drv_ethmac.o
 .debug_frame   0x0000057c      0x300 build/pic32mz_ef_sk/production/_ext/1314174413/drv_ethmac_lib.o
 .debug_frame   0x0000087c      0x460 build/pic32mz_ef_sk/production/_ext/1314174413/drv_eth_pic32_lib.o
 .debug_frame   0x00000cdc      0x7c4 build/pic32mz_ef_sk/production/_ext/138020607/drv_ethphy.o
 .debug_frame   0x000014a0       0x68 build/pic32mz_ef_sk/production/_ext/138020607/drv_extphy_smsc8740.o
 .debug_frame   0x00001508      0x30c build/pic32mz_ef_sk/production/_ext/1761147401/drv_miim.o
 .debug_frame   0x00001814       0x9c build/pic32mz_ef_sk/production/_ext/2027382860/helpers.o
 .debug_frame   0x000018b0      0x4a8 build/pic32mz_ef_sk/production/_ext/2027382860/dns.o
 .debug_frame   0x00001d58       0x94 build/pic32mz_ef_sk/production/_ext/2027382860/icmp.o
 .debug_frame   0x00001dec      0x7dc build/pic32mz_ef_sk/production/_ext/2027382860/tcp.o
 .debug_frame   0x000025c8      0x578 build/pic32mz_ef_sk/production/_ext/2027382860/dhcp.o
 .debug_frame   0x00002b40      0x440 build/pic32mz_ef_sk/production/_ext/2027382860/arp.o
 .debug_frame   0x00002f80      0x310 build/pic32mz_ef_sk/production/_ext/2027382860/tcpip_commands.o
 .debug_frame   0x00003290      0x298 build/pic32mz_ef_sk/production/_ext/2027382860/ipv4.o
 .debug_frame   0x00003528       0xa8 build/pic32mz_ef_sk/production/_ext/2027382860/tcpip_heap_alloc.o
 .debug_frame   0x000035d0      0x11c build/pic32mz_ef_sk/production/_ext/2027382860/tcpip_heap_internal.o
 .debug_frame   0x000036ec       0x30 build/pic32mz_ef_sk/production/_ext/2027382860/hash_fnv.o
 .debug_frame   0x0000371c       0xc0 build/pic32mz_ef_sk/production/_ext/2027382860/oahash.o
 .debug_frame   0x000037dc      0x6d8 build/pic32mz_ef_sk/production/_ext/2027382860/tcpip_helpers.o
 .debug_frame   0x00003eb4      0xa3c build/pic32mz_ef_sk/production/_ext/2027382860/tcpip_manager.o
 .debug_frame   0x000048f0       0xa8 build/pic32mz_ef_sk/production/_ext/2027382860/tcpip_notify.o
 .debug_frame   0x00004998      0x160 build/pic32mz_ef_sk/production/_ext/2027382860/tcpip_packet.o
 .debug_frame   0x00004af8      0x67c build/pic32mz_ef_sk/production/_ext/2027382860/udp.o
 .debug_frame   0x00005174       0x2c build/pic32mz_ef_sk/production/_ext/1098417660/plib_clk.o
 .debug_frame   0x000051a0      0x110 build/pic32mz_ef_sk/production/_ext/1710852712/plib_coretimer.o
 .debug_frame   0x000052b0       0x80 build/pic32mz_ef_sk/production/_ext/308860137/plib_evic.o
 .debug_frame   0x00005330       0xa0 build/pic32mz_ef_sk/production/_ext/308913965/plib_gpio.o
 .debug_frame   0x000053d0      0x124 build/pic32mz_ef_sk/production/_ext/309316908/plib_uart2.o
 .debug_frame   0x000054f4       0x30 build/pic32mz_ef_sk/production/_ext/458842868/xc32_monitor.o
 .debug_frame   0x00005524      0x308 build/pic32mz_ef_sk/production/_ext/2135388491/sys_command.o
 .debug_frame   0x0000582c       0xf4 build/pic32mz_ef_sk/production/_ext/1702866625/sys_console.o
 .debug_frame   0x00005920      0x154 build/pic32mz_ef_sk/production/_ext/1702866625/sys_console_uart.o
 .debug_frame   0x00005a74       0x9c build/pic32mz_ef_sk/production/_ext/57023747/sys_debug.o
 .debug_frame   0x00005b10       0xa0 build/pic32mz_ef_sk/production/_ext/723085273/sys_int.o
 .debug_frame   0x00005bb0      0x3b4 build/pic32mz_ef_sk/production/_ext/1658225107/sys_time.o
 .debug_frame   0x00005f64       0x48 build/pic32mz_ef_sk/production/_ext/1344301860/sys_time_h2_adapter.o
 .debug_frame   0x00005fac       0x2c build/pic32mz_ef_sk/production/_ext/942849350/tasks.o
 .debug_frame   0x00005fd8       0x4c build/pic32mz_ef_sk/production/_ext/942849350/initialization.o
 .debug_frame   0x00006024      0x330 build/pic32mz_ef_sk/production/_ext/942849350/interrupts.o
 .debug_frame   0x00006354       0x28 build/pic32mz_ef_sk/production/_ext/942849350/exceptions.o
 .debug_frame   0x0000637c       0x4c build/pic32mz_ef_sk/production/_ext/1360937237/app.o
 .debug_frame   0x000063c8       0x28 build/pic32mz_ef_sk/production/_ext/1360937237/main.o
 .debug_frame   0x000063f0      0x194 build/pic32mz_ef_sk/production/_ext/108032392/dialtek_modbus.o
 .debug_frame   0x00006584       0xec build/pic32mz_ef_sk/production/_ext/1360937237/tcp_app.o
 .debug_frame   0x00006670       0x60 build/pic32mz_ef_sk/production/_ext/1360937237/modbus_buf.o
 .debug_frame   0x000066d0       0x20 c:/program files (x86)/microchip/xc32/v2.30/bin/bin/../../lib/gcc/pic32mx/4.8.3/fpu64\libgcc.a(_udivdi3.o)
 .debug_frame   0x000066f0       0x2c c:/program files (x86)/microchip/xc32/v2.30/bin/bin/../../lib/gcc/pic32mx/4.8.3/../../../../pic32mx/lib/fpu64\libpic32.a(default-bootstrap-exception-handler.o)
 .debug_frame   0x0000671c       0x20 c:/program files (x86)/microchip/xc32/v2.30/bin/bin/../../lib/gcc/pic32mx/4.8.3/../../../../pic32mx/lib/fpu64\libpic32.a(default-on-reset.o)
 .debug_frame   0x0000673c       0x20 c:/program files (x86)/microchip/xc32/v2.30/bin/bin/../../lib/gcc/pic32mx/4.8.3/../../../../pic32mx/lib/fpu64\libpic32.a(default-on-bootstrap.o)
 .debug_frame   0x0000675c       0x20 c:/program files (x86)/microchip/xc32/v2.30/bin/bin/../../lib/gcc/pic32mx/4.8.3/../../../../pic32mx/lib/fpu64\libpic32.a(defaultinterrupt.o)
 .debug_frame   0x0000677c       0x2c c:/program files (x86)/microchip/xc32/v2.30/bin/bin/../../lib/gcc/pic32mx/4.8.3/../../../../pic32mx/lib/fpu64\libpic32.a(default-cache-err-exception-handler.o)
 .debug_frame   0x000067a8       0x2c c:/program files (x86)/microchip/xc32/v2.30/bin/bin/../../lib/gcc/pic32mx/4.8.3/../../../../pic32mx/lib/fpu64\libpic32.a(default-simple-tlb-refill-exception-handler.o)
 .debug_frame   0x000067d4       0x20 c:/program files (x86)/microchip/xc32/v2.30/bin/bin/../../lib/gcc/pic32mx/4.8.3/../../../../pic32mx/lib/fpu64\libc.a(atoi.o)
 .debug_frame   0x000067f4       0x2c c:/program files (x86)/microchip/xc32/v2.30/bin/bin/../../lib/gcc/pic32mx/4.8.3/../../../../pic32mx/lib/fpu64\libc.a(calloc.o)
 .debug_frame   0x00006820      0x120 c:/program files (x86)/microchip/xc32/v2.30/bin/bin/../../lib/gcc/pic32mx/4.8.3/../../../../pic32mx/lib/fpu64\libc.a(ctypef.o)
 .debug_frame   0x00006940       0x7c c:/program files (x86)/microchip/xc32/v2.30/bin/bin/../../lib/gcc/pic32mx/4.8.3/../../../../pic32mx/lib/fpu64\libc.a(malloc.o)
 .debug_frame   0x000069bc       0x30 c:/program files (x86)/microchip/xc32/v2.30/bin/bin/../../lib/gcc/pic32mx/4.8.3/../../../../pic32mx/lib/fpu64\libc.a(rand.o)
 .debug_frame   0x000069ec       0x20 c:/program files (x86)/microchip/xc32/v2.30/bin/bin/../../lib/gcc/pic32mx/4.8.3/../../../../pic32mx/lib/fpu64\libc.a(strncmp.o)
 .debug_frame   0x00006a0c       0x20 c:/program files (x86)/microchip/xc32/v2.30/bin/bin/../../lib/gcc/pic32mx/4.8.3/../../../../pic32mx/lib/fpu64\libc.a(strncpy.o)
 .debug_frame   0x00006a2c       0x78 c:/program files (x86)/microchip/xc32/v2.30/bin/bin/../../lib/gcc/pic32mx/4.8.3/../../../../pic32mx/lib/fpu64\libc.a(strtol.o)
 .debug_frame   0x00006aa4       0x2c c:/program files (x86)/microchip/xc32/v2.30/bin/bin/../../lib/gcc/pic32mx/4.8.3/../../../../pic32mx/lib/fpu64\libc.a(printf_cdnopsuxX.eo)
 .debug_frame   0x00006ad0       0x2c c:/program files (x86)/microchip/xc32/v2.30/bin/bin/../../lib/gcc/pic32mx/4.8.3/../../../../pic32mx/lib/fpu64\libc.a(snprintf_cdnopsuxX.eo)
 .debug_frame   0x00006afc       0x2c c:/program files (x86)/microchip/xc32/v2.30/bin/bin/../../lib/gcc/pic32mx/4.8.3/../../../../pic32mx/lib/fpu64\libc.a(sprintf_cdnopsuxX.eo)
 .debug_frame   0x00006b28       0x30 c:/program files (x86)/microchip/xc32/v2.30/bin/bin/../../lib/gcc/pic32mx/4.8.3/../../../../pic32mx/lib/fpu64\libc.a(vsnprintf_cdnopsuxX.eo)
 .debug_frame   0x00006b58       0x30 c:/program files (x86)/microchip/xc32/v2.30/bin/bin/../../lib/gcc/pic32mx/4.8.3/../../../../pic32mx/lib/fpu64\libc.a(vsnprintf.o)
 .debug_frame   0x00006b88       0x40 c:/program files (x86)/microchip/xc32/v2.30/bin/bin/../../lib/gcc/pic32mx/4.8.3/../../../../pic32mx/lib/fpu64\libc.a(doprnt_cdnopsuxX.eo)
 .debug_frame   0x00006bc8       0x70 c:/program files (x86)/microchip/xc32/v2.30/bin/bin/../../lib/gcc/pic32mx/4.8.3/../../../../pic32mx/lib/fpu64\libc.a(doprnt.o)
 .debug_frame   0x00006c38       0x30 c:/program files (x86)/microchip/xc32/v2.30/bin/bin/../../lib/gcc/pic32mx/4.8.3/../../../../pic32mx/lib/fpu64\libc.a(_fputc_simple.o)
 .debug_frame   0x00006c68       0x38 c:/program files (x86)/microchip/xc32/v2.30/bin/bin/../../lib/gcc/pic32mx/4.8.3/../../../../pic32mx/lib/fpu64\libc.a(_flsbuf_simple.o)
 .debug_frame   0x00006ca0       0x20 c:/program files (x86)/microchip/xc32/v2.30/bin/bin/../../lib/gcc/pic32mx/4.8.3/../../../../pic32mx/lib/fpu64\libmfd.a(s_frexp.o)
 .debug_frame   0x00006cc0       0x20 c:/program files (x86)/microchip/xc32/v2.30/bin/bin/../../lib/gcc/pic32mx/4.8.3/fpu64\libgcc.a(_cmpdi2.o)
 .debug_frame   0x00006ce0       0x20 c:/program files (x86)/microchip/xc32/v2.30/bin/bin/../../lib/gcc/pic32mx/4.8.3/fpu64\libgcc.a(_umoddi3.o)
 .debug_frame   0x00006d00       0xa4 c:/program files (x86)/microchip/xc32/v2.30/bin/bin/../../lib/gcc/pic32mx/4.8.3/../../../../pic32mx/lib/fpu64\libpic32.a(sbrk.o)
 .debug_frame   0x00006da4       0x38 c:/program files (x86)/microchip/xc32/v2.30/bin/bin/../../lib/gcc/pic32mx/4.8.3/../../../../pic32mx/lib/fpu64\libpic32.a(write.o)

.debug_str      0x00000000     0x1942
 *.elf(.debug_str)
 *(.debug_str)
 .debug_str     0x00000000        0x0 build/pic32mz_ef_sk/production/_ext/978308758/bsp.o
 .debug_str     0x00000000      0x18e build/pic32mz_ef_sk/production/_ext/1314174413/drv_ethmac.o
 .debug_str     0x0000018e      0x103 build/pic32mz_ef_sk/production/_ext/1314174413/drv_ethmac_lib.o
 .debug_str     0x00000291       0x40 build/pic32mz_ef_sk/production/_ext/1314174413/drv_eth_pic32_lib.o
 .debug_str     0x000002d1      0x4f2 build/pic32mz_ef_sk/production/_ext/138020607/drv_ethphy.o
 .debug_str     0x000007c3       0x2a build/pic32mz_ef_sk/production/_ext/138020607/drv_extphy_smsc8740.o
 .debug_str     0x000007ed      0x29f build/pic32mz_ef_sk/production/_ext/1761147401/drv_miim.o
 .debug_str     0x00000a8c        0x0 build/pic32mz_ef_sk/production/_ext/2027382860/helpers.o
 .debug_str     0x00000a8c      0x138 build/pic32mz_ef_sk/production/_ext/2027382860/dns.o
 .debug_str     0x00000bc4       0x34 build/pic32mz_ef_sk/production/_ext/2027382860/icmp.o
 .debug_str     0x00000bf8      0x1af build/pic32mz_ef_sk/production/_ext/2027382860/tcp.o
 .debug_str     0x00000da7       0xce build/pic32mz_ef_sk/production/_ext/2027382860/dhcp.o
 .debug_str     0x00000e75       0xd0 build/pic32mz_ef_sk/production/_ext/2027382860/arp.o
 .debug_str     0x00000f45       0xbe build/pic32mz_ef_sk/production/_ext/2027382860/tcpip_commands.o
 .debug_str     0x00001003       0xf8 build/pic32mz_ef_sk/production/_ext/2027382860/ipv4.o
 .debug_str     0x000010fb       0x3c build/pic32mz_ef_sk/production/_ext/2027382860/tcpip_heap_alloc.o
 .debug_str     0x00001137       0x59 build/pic32mz_ef_sk/production/_ext/2027382860/tcpip_heap_internal.o
 .debug_str     0x00001190        0x0 build/pic32mz_ef_sk/production/_ext/2027382860/hash_fnv.o
 .debug_str     0x00001190        0xa build/pic32mz_ef_sk/production/_ext/2027382860/oahash.o
 .debug_str     0x0000119a       0xa6 build/pic32mz_ef_sk/production/_ext/2027382860/tcpip_helpers.o
 .debug_str     0x00001240      0x28b build/pic32mz_ef_sk/production/_ext/2027382860/tcpip_manager.o
 .debug_str     0x000014cb       0x11 build/pic32mz_ef_sk/production/_ext/2027382860/tcpip_notify.o
 .debug_str     0x000014dc       0x13 build/pic32mz_ef_sk/production/_ext/2027382860/tcpip_packet.o
 .debug_str     0x000014ef      0x157 build/pic32mz_ef_sk/production/_ext/2027382860/udp.o
 .debug_str     0x00001646        0x0 build/pic32mz_ef_sk/production/_ext/1098417660/plib_clk.o
 .debug_str     0x00001646       0x1d build/pic32mz_ef_sk/production/_ext/1710852712/plib_coretimer.o
 .debug_str     0x00001663        0x7 build/pic32mz_ef_sk/production/_ext/308860137/plib_evic.o
 .debug_str     0x0000166a        0xa build/pic32mz_ef_sk/production/_ext/308913965/plib_gpio.o
 .debug_str     0x00001674       0x10 build/pic32mz_ef_sk/production/_ext/309316908/plib_uart2.o
 .debug_str     0x00001684        0x0 build/pic32mz_ef_sk/production/_ext/458842868/xc32_monitor.o
 .debug_str     0x00001684       0x33 build/pic32mz_ef_sk/production/_ext/2135388491/sys_command.o
 .debug_str     0x000016b7       0x19 build/pic32mz_ef_sk/production/_ext/1702866625/sys_console.o
 .debug_str     0x000016d0       0x7b build/pic32mz_ef_sk/production/_ext/1702866625/sys_console_uart.o
 .debug_str     0x0000174b        0x0 build/pic32mz_ef_sk/production/_ext/57023747/sys_debug.o
 .debug_str     0x0000174b        0x0 build/pic32mz_ef_sk/production/_ext/723085273/sys_int.o
 .debug_str     0x0000174b      0x10a build/pic32mz_ef_sk/production/_ext/1658225107/sys_time.o
 .debug_str     0x00001855        0x9 build/pic32mz_ef_sk/production/_ext/1344301860/sys_time_h2_adapter.o
 .debug_str     0x0000185e        0x0 build/pic32mz_ef_sk/production/_ext/942849350/tasks.o
 .debug_str     0x0000185e       0xbd build/pic32mz_ef_sk/production/_ext/942849350/initialization.o
 .debug_str     0x0000191b        0x0 build/pic32mz_ef_sk/production/_ext/942849350/interrupts.o
 .debug_str     0x0000191b        0x0 build/pic32mz_ef_sk/production/_ext/942849350/exceptions.o
 .debug_str     0x0000191b        0x0 build/pic32mz_ef_sk/production/_ext/1360937237/app.o
 .debug_str     0x0000191b        0x0 build/pic32mz_ef_sk/production/_ext/1360937237/main.o
 .debug_str     0x0000191b       0x1e build/pic32mz_ef_sk/production/_ext/108032392/dialtek_modbus.o
 .debug_str     0x00001939        0x0 build/pic32mz_ef_sk/production/_ext/1360937237/tcp_app.o
 .debug_str     0x00001939        0x9 build/pic32mz_ef_sk/production/_ext/1360937237/modbus_buf.o
 .debug_str     0x00001942        0x0 c:/program files (x86)/microchip/xc32/v2.30/bin/bin/../../lib/gcc/pic32mx/4.8.3/fpu64\libgcc.a(_udivdi3.o)
 .debug_str     0x00001942        0x0 c:/program files (x86)/microchip/xc32/v2.30/bin/bin/../../lib/gcc/pic32mx/4.8.3/../../../../pic32mx/lib/fpu64\libpic32.a(default-bootstrap-exception-handler.o)
 .debug_str     0x00001942        0x0 c:/program files (x86)/microchip/xc32/v2.30/bin/bin/../../lib/gcc/pic32mx/4.8.3/../../../../pic32mx/lib/fpu64\libpic32.a(default-on-reset.o)
 .debug_str     0x00001942        0x0 c:/program files (x86)/microchip/xc32/v2.30/bin/bin/../../lib/gcc/pic32mx/4.8.3/../../../../pic32mx/lib/fpu64\libpic32.a(default-on-bootstrap.o)
 .debug_str     0x00001942        0x0 c:/program files (x86)/microchip/xc32/v2.30/bin/bin/../../lib/gcc/pic32mx/4.8.3/../../../../pic32mx/lib/fpu64\libpic32.a(defaultinterrupt.o)
 .debug_str     0x00001942        0x0 c:/program files (x86)/microchip/xc32/v2.30/bin/bin/../../lib/gcc/pic32mx/4.8.3/../../../../pic32mx/lib/fpu64\libpic32.a(default-cache-err-exception-handler.o)
 .debug_str     0x00001942        0x0 c:/program files (x86)/microchip/xc32/v2.30/bin/bin/../../lib/gcc/pic32mx/4.8.3/../../../../pic32mx/lib/fpu64\libpic32.a(default-simple-tlb-refill-exception-handler.o)
 .debug_str     0x00001942        0x0 c:/program files (x86)/microchip/xc32/v2.30/bin/bin/../../lib/gcc/pic32mx/4.8.3/../../../../pic32mx/lib/fpu64\libc.a(atoi.o)
 .debug_str     0x00001942        0x0 c:/program files (x86)/microchip/xc32/v2.30/bin/bin/../../lib/gcc/pic32mx/4.8.3/../../../../pic32mx/lib/fpu64\libc.a(calloc.o)
 .debug_str     0x00001942        0x0 c:/program files (x86)/microchip/xc32/v2.30/bin/bin/../../lib/gcc/pic32mx/4.8.3/../../../../pic32mx/lib/fpu64\libc.a(ctype.o)
 .debug_str     0x00001942        0x0 c:/program files (x86)/microchip/xc32/v2.30/bin/bin/../../lib/gcc/pic32mx/4.8.3/../../../../pic32mx/lib/fpu64\libc.a(ctypef.o)
 .debug_str     0x00001942        0x0 c:/program files (x86)/microchip/xc32/v2.30/bin/bin/../../lib/gcc/pic32mx/4.8.3/../../../../pic32mx/lib/fpu64\libc.a(malloc.o)
 .debug_str     0x00001942        0x0 c:/program files (x86)/microchip/xc32/v2.30/bin/bin/../../lib/gcc/pic32mx/4.8.3/../../../../pic32mx/lib/fpu64\libc.a(rand.o)
 .debug_str     0x00001942        0x0 c:/program files (x86)/microchip/xc32/v2.30/bin/bin/../../lib/gcc/pic32mx/4.8.3/../../../../pic32mx/lib/fpu64\libc.a(strncmp.o)
 .debug_str     0x00001942        0x0 c:/program files (x86)/microchip/xc32/v2.30/bin/bin/../../lib/gcc/pic32mx/4.8.3/../../../../pic32mx/lib/fpu64\libc.a(strncpy.o)
 .debug_str     0x00001942        0x0 c:/program files (x86)/microchip/xc32/v2.30/bin/bin/../../lib/gcc/pic32mx/4.8.3/../../../../pic32mx/lib/fpu64\libc.a(strtol.o)
 .debug_str     0x00001942        0x0 c:/program files (x86)/microchip/xc32/v2.30/bin/bin/../../lib/gcc/pic32mx/4.8.3/../../../../pic32mx/lib/fpu64\libc.a(printf_cdnopsuxX.eo)
 .debug_str     0x00001942        0x0 c:/program files (x86)/microchip/xc32/v2.30/bin/bin/../../lib/gcc/pic32mx/4.8.3/../../../../pic32mx/lib/fpu64\libc.a(snprintf_cdnopsuxX.eo)
 .debug_str     0x00001942        0x0 c:/program files (x86)/microchip/xc32/v2.30/bin/bin/../../lib/gcc/pic32mx/4.8.3/../../../../pic32mx/lib/fpu64\libc.a(sprintf_cdnopsuxX.eo)
 .debug_str     0x00001942        0x0 c:/program files (x86)/microchip/xc32/v2.30/bin/bin/../../lib/gcc/pic32mx/4.8.3/../../../../pic32mx/lib/fpu64\libc.a(vsnprintf_cdnopsuxX.eo)
 .debug_str     0x00001942        0x0 c:/program files (x86)/microchip/xc32/v2.30/bin/bin/../../lib/gcc/pic32mx/4.8.3/../../../../pic32mx/lib/fpu64\libc.a(vsnprintf.o)
 .debug_str     0x00001942        0x0 c:/program files (x86)/microchip/xc32/v2.30/bin/bin/../../lib/gcc/pic32mx/4.8.3/../../../../pic32mx/lib/fpu64\libc.a(_iob.o)
 .debug_str     0x00001942        0x0 c:/program files (x86)/microchip/xc32/v2.30/bin/bin/../../lib/gcc/pic32mx/4.8.3/../../../../pic32mx/lib/fpu64\libc.a(errno.o)
 .debug_str     0x00001942        0x0 c:/program files (x86)/microchip/xc32/v2.30/bin/bin/../../lib/gcc/pic32mx/4.8.3/../../../../pic32mx/lib/fpu64\libc.a(doprnt_cdnopsuxX.eo)
 .debug_str     0x00001942        0x0 c:/program files (x86)/microchip/xc32/v2.30/bin/bin/../../lib/gcc/pic32mx/4.8.3/../../../../pic32mx/lib/fpu64\libc.a(doprnt.o)
 .debug_str     0x00001942        0x0 c:/program files (x86)/microchip/xc32/v2.30/bin/bin/../../lib/gcc/pic32mx/4.8.3/../../../../pic32mx/lib/fpu64\libc.a(_fputc_simple.o)
 .debug_str     0x00001942        0x0 c:/program files (x86)/microchip/xc32/v2.30/bin/bin/../../lib/gcc/pic32mx/4.8.3/../../../../pic32mx/lib/fpu64\libc.a(ldpowers.o)
 .debug_str     0x00001942        0x0 c:/program files (x86)/microchip/xc32/v2.30/bin/bin/../../lib/gcc/pic32mx/4.8.3/../../../../pic32mx/lib/fpu64\libc.a(_flsbuf_simple.o)
 .debug_str     0x00001942        0x0 c:/program files (x86)/microchip/xc32/v2.30/bin/bin/../../lib/gcc/pic32mx/4.8.3/../../../../pic32mx/lib/fpu64\libmfd.a(s_frexp.o)
 .debug_str     0x00001942        0x0 c:/program files (x86)/microchip/xc32/v2.30/bin/bin/../../lib/gcc/pic32mx/4.8.3/fpu64\libgcc.a(_cmpdi2.o)
 .debug_str     0x00001942        0x0 c:/program files (x86)/microchip/xc32/v2.30/bin/bin/../../lib/gcc/pic32mx/4.8.3/fpu64\libgcc.a(_umoddi3.o)
 .debug_str     0x00001942        0x0 c:/program files (x86)/microchip/xc32/v2.30/bin/bin/../../lib/gcc/pic32mx/4.8.3/../../../../pic32mx/lib/fpu64\libpic32.a(sbrk.o)
 .debug_str     0x00001942        0x0 c:/program files (x86)/microchip/xc32/v2.30/bin/bin/../../lib/gcc/pic32mx/4.8.3/../../../../pic32mx/lib/fpu64\libpic32.a(write.o)

.debug_loc      0x00000000    0x29dde
 *.elf(.debug_loc)
 *(.debug_loc)
 .debug_loc     0x00000000     0x22b6 build/pic32mz_ef_sk/production/_ext/1314174413/drv_ethmac.o
 .debug_loc     0x000022b6     0x1c2b build/pic32mz_ef_sk/production/_ext/1314174413/drv_ethmac_lib.o
 .debug_loc     0x00003ee1      0x126 build/pic32mz_ef_sk/production/_ext/1314174413/drv_eth_pic32_lib.o
 .debug_loc     0x00004007     0x2962 build/pic32mz_ef_sk/production/_ext/138020607/drv_ethphy.o
 .debug_loc     0x00006969      0x268 build/pic32mz_ef_sk/production/_ext/138020607/drv_extphy_smsc8740.o
 .debug_loc     0x00006bd1     0x23e6 build/pic32mz_ef_sk/production/_ext/1761147401/drv_miim.o
 .debug_loc     0x00008fb7      0x377 build/pic32mz_ef_sk/production/_ext/2027382860/helpers.o
 .debug_loc     0x0000932e     0x2268 build/pic32mz_ef_sk/production/_ext/2027382860/dns.o
 .debug_loc     0x0000b596      0x224 build/pic32mz_ef_sk/production/_ext/2027382860/icmp.o
 .debug_loc     0x0000b7ba     0x50f2 build/pic32mz_ef_sk/production/_ext/2027382860/tcp.o
 .debug_loc     0x000108ac     0x24ed build/pic32mz_ef_sk/production/_ext/2027382860/dhcp.o
 .debug_loc     0x00012d99     0x1edc build/pic32mz_ef_sk/production/_ext/2027382860/arp.o
 .debug_loc     0x00014c75     0x1cc9 build/pic32mz_ef_sk/production/_ext/2027382860/tcpip_commands.o
 .debug_loc     0x0001693e     0x18af build/pic32mz_ef_sk/production/_ext/2027382860/ipv4.o
 .debug_loc     0x000181ed      0x29e build/pic32mz_ef_sk/production/_ext/2027382860/tcpip_heap_alloc.o
 .debug_loc     0x0001848b      0xb7c build/pic32mz_ef_sk/production/_ext/2027382860/tcpip_heap_internal.o
 .debug_loc     0x00019007      0x137 build/pic32mz_ef_sk/production/_ext/2027382860/hash_fnv.o
 .debug_loc     0x0001913e      0x2b1 build/pic32mz_ef_sk/production/_ext/2027382860/oahash.o
 .debug_loc     0x000193ef     0x381c build/pic32mz_ef_sk/production/_ext/2027382860/tcpip_helpers.o
 .debug_loc     0x0001cc0b     0x38be build/pic32mz_ef_sk/production/_ext/2027382860/tcpip_manager.o
 .debug_loc     0x000204c9      0x27a build/pic32mz_ef_sk/production/_ext/2027382860/tcpip_notify.o
 .debug_loc     0x00020743      0x8db build/pic32mz_ef_sk/production/_ext/2027382860/tcpip_packet.o
 .debug_loc     0x0002101e     0x3466 build/pic32mz_ef_sk/production/_ext/2027382860/udp.o
 .debug_loc     0x00024484       0x32 build/pic32mz_ef_sk/production/_ext/1098417660/plib_clk.o
 .debug_loc     0x000244b6       0x55 build/pic32mz_ef_sk/production/_ext/1710852712/plib_coretimer.o
 .debug_loc     0x0002450b       0x84 build/pic32mz_ef_sk/production/_ext/308860137/plib_evic.o
 .debug_loc     0x0002458f      0x129 build/pic32mz_ef_sk/production/_ext/308913965/plib_gpio.o
 .debug_loc     0x000246b8      0x3d8 build/pic32mz_ef_sk/production/_ext/309316908/plib_uart2.o
 .debug_loc     0x00024a90     0x12c0 build/pic32mz_ef_sk/production/_ext/2135388491/sys_command.o
 .debug_loc     0x00025d50      0x478 build/pic32mz_ef_sk/production/_ext/1702866625/sys_console.o
 .debug_loc     0x000261c8      0x825 build/pic32mz_ef_sk/production/_ext/1702866625/sys_console_uart.o
 .debug_loc     0x000269ed       0xc2 build/pic32mz_ef_sk/production/_ext/57023747/sys_debug.o
 .debug_loc     0x00026aaf       0xc1 build/pic32mz_ef_sk/production/_ext/723085273/sys_int.o
 .debug_loc     0x00026b70     0x15d3 build/pic32mz_ef_sk/production/_ext/1658225107/sys_time.o
 .debug_loc     0x00028143       0x9e build/pic32mz_ef_sk/production/_ext/1344301860/sys_time_h2_adapter.o
 .debug_loc     0x000281e1       0x21 build/pic32mz_ef_sk/production/_ext/942849350/initialization.o
 .debug_loc     0x00028202       0x31 build/pic32mz_ef_sk/production/_ext/1360937237/app.o
 .debug_loc     0x00028233      0x414 build/pic32mz_ef_sk/production/_ext/108032392/dialtek_modbus.o
 .debug_loc     0x00028647      0x193 build/pic32mz_ef_sk/production/_ext/1360937237/tcp_app.o
 .debug_loc     0x000287da      0xa6a c:/program files (x86)/microchip/xc32/v2.30/bin/bin/../../lib/gcc/pic32mx/4.8.3/fpu64\libgcc.a(_udivdi3.o)
 .debug_loc     0x00029244       0x2c c:/program files (x86)/microchip/xc32/v2.30/bin/bin/../../lib/gcc/pic32mx/4.8.3/../../../../pic32mx/lib/fpu64\libpic32.a(default-bootstrap-exception-handler.o)
 .debug_loc     0x00029270       0x2c c:/program files (x86)/microchip/xc32/v2.30/bin/bin/../../lib/gcc/pic32mx/4.8.3/../../../../pic32mx/lib/fpu64\libpic32.a(default-cache-err-exception-handler.o)
 .debug_loc     0x0002929c       0x2c c:/program files (x86)/microchip/xc32/v2.30/bin/bin/../../lib/gcc/pic32mx/4.8.3/../../../../pic32mx/lib/fpu64\libpic32.a(default-simple-tlb-refill-exception-handler.o)
 .debug_loc     0x000292c8       0x29 c:/program files (x86)/microchip/xc32/v2.30/bin/bin/../../lib/gcc/pic32mx/4.8.3/fpu64\libgcc.a(_cmpdi2.o)
 .debug_loc     0x000292f1      0xa3d c:/program files (x86)/microchip/xc32/v2.30/bin/bin/../../lib/gcc/pic32mx/4.8.3/fpu64\libgcc.a(_umoddi3.o)
 .debug_loc     0x00029d2e       0x78 c:/program files (x86)/microchip/xc32/v2.30/bin/bin/../../lib/gcc/pic32mx/4.8.3/../../../../pic32mx/lib/fpu64\libpic32.a(sbrk.o)
 .debug_loc     0x00029da6       0x38 c:/program files (x86)/microchip/xc32/v2.30/bin/bin/../../lib/gcc/pic32mx/4.8.3/../../../../pic32mx/lib/fpu64\libpic32.a(write.o)

.debug_macinfo
 *.elf(.debug_macinfo)
 *(.debug_macinfo)

.debug_weaknames
 *.elf(.debug_weaknames)
 *(.debug_weaknames)

.debug_funcnames
 *.elf(.debug_funcnames)
 *(.debug_funcnames)

.debug_typenames
 *.elf(.debug_typenames)
 *(.debug_typenames)

.debug_varnames
 *.elf(.debug_varnames)
 *(.debug_varnames)

.debug_pubtypes
 *.elf(.debug_pubtypes)
 *(.debug_pubtypes)

.debug_ranges   0x00000000     0x4350
 *.elf(.debug_ranges)
 *(.debug_ranges)
 .debug_ranges  0x00000000       0x10 build/pic32mz_ef_sk/production/_ext/978308758/bsp.o
 .debug_ranges  0x00000010      0x1f8 build/pic32mz_ef_sk/production/_ext/1314174413/drv_ethmac.o
 .debug_ranges  0x00000208      0x3c0 build/pic32mz_ef_sk/production/_ext/1314174413/drv_ethmac_lib.o
 .debug_ranges  0x000005c8      0x230 build/pic32mz_ef_sk/production/_ext/1314174413/drv_eth_pic32_lib.o
 .debug_ranges  0x000007f8      0x310 build/pic32mz_ef_sk/production/_ext/138020607/drv_ethphy.o
 .debug_ranges  0x00000b08       0x20 build/pic32mz_ef_sk/production/_ext/138020607/drv_extphy_smsc8740.o
 .debug_ranges  0x00000b28      0x2f0 build/pic32mz_ef_sk/production/_ext/1761147401/drv_miim.o
 .debug_ranges  0x00000e18       0x38 build/pic32mz_ef_sk/production/_ext/2027382860/helpers.o
 .debug_ranges  0x00000e50      0x290 build/pic32mz_ef_sk/production/_ext/2027382860/dns.o
 .debug_ranges  0x000010e0       0x40 build/pic32mz_ef_sk/production/_ext/2027382860/icmp.o
 .debug_ranges  0x00001120      0xa38 build/pic32mz_ef_sk/production/_ext/2027382860/tcp.o
 .debug_ranges  0x00001b58      0x328 build/pic32mz_ef_sk/production/_ext/2027382860/dhcp.o
 .debug_ranges  0x00001e80      0x1c0 build/pic32mz_ef_sk/production/_ext/2027382860/arp.o
 .debug_ranges  0x00002040      0x220 build/pic32mz_ef_sk/production/_ext/2027382860/tcpip_commands.o
 .debug_ranges  0x00002260      0x1b0 build/pic32mz_ef_sk/production/_ext/2027382860/ipv4.o
 .debug_ranges  0x00002410       0x38 build/pic32mz_ef_sk/production/_ext/2027382860/tcpip_heap_alloc.o
 .debug_ranges  0x00002448       0xa0 build/pic32mz_ef_sk/production/_ext/2027382860/tcpip_heap_internal.o
 .debug_ranges  0x000024e8       0x18 build/pic32mz_ef_sk/production/_ext/2027382860/hash_fnv.o
 .debug_ranges  0x00002500       0x58 build/pic32mz_ef_sk/production/_ext/2027382860/oahash.o
 .debug_ranges  0x00002558      0x418 build/pic32mz_ef_sk/production/_ext/2027382860/tcpip_helpers.o
 .debug_ranges  0x00002970      0x6a0 build/pic32mz_ef_sk/production/_ext/2027382860/tcpip_manager.o
 .debug_ranges  0x00003010       0x30 build/pic32mz_ef_sk/production/_ext/2027382860/tcpip_notify.o
 .debug_ranges  0x00003040       0x68 build/pic32mz_ef_sk/production/_ext/2027382860/tcpip_packet.o
 .debug_ranges  0x000030a8      0x530 build/pic32mz_ef_sk/production/_ext/2027382860/udp.o
 .debug_ranges  0x000035d8       0x10 build/pic32mz_ef_sk/production/_ext/1098417660/plib_clk.o
 .debug_ranges  0x000035e8       0x58 build/pic32mz_ef_sk/production/_ext/1710852712/plib_coretimer.o
 .debug_ranges  0x00003640       0x40 build/pic32mz_ef_sk/production/_ext/308860137/plib_evic.o
 .debug_ranges  0x00003680       0x50 build/pic32mz_ef_sk/production/_ext/308913965/plib_gpio.o
 .debug_ranges  0x000036d0       0x98 build/pic32mz_ef_sk/production/_ext/309316908/plib_uart2.o
 .debug_ranges  0x00003768       0x18 build/pic32mz_ef_sk/production/_ext/458842868/xc32_monitor.o
 .debug_ranges  0x00003780      0x318 build/pic32mz_ef_sk/production/_ext/2135388491/sys_command.o
 .debug_ranges  0x00003a98       0x40 build/pic32mz_ef_sk/production/_ext/1702866625/sys_console.o
 .debug_ranges  0x00003ad8       0x80 build/pic32mz_ef_sk/production/_ext/1702866625/sys_console_uart.o
 .debug_ranges  0x00003b58       0x40 build/pic32mz_ef_sk/production/_ext/57023747/sys_debug.o
 .debug_ranges  0x00003b98       0x30 build/pic32mz_ef_sk/production/_ext/723085273/sys_int.o
 .debug_ranges  0x00003bc8      0x180 build/pic32mz_ef_sk/production/_ext/1658225107/sys_time.o
 .debug_ranges  0x00003d48       0x18 build/pic32mz_ef_sk/production/_ext/1344301860/sys_time_h2_adapter.o
 .debug_ranges  0x00003d60       0x10 build/pic32mz_ef_sk/production/_ext/942849350/tasks.o
 .debug_ranges  0x00003d70       0x18 build/pic32mz_ef_sk/production/_ext/942849350/initialization.o
 .debug_ranges  0x00003d88       0x30 build/pic32mz_ef_sk/production/_ext/942849350/interrupts.o
 .debug_ranges  0x00003db8       0x10 build/pic32mz_ef_sk/production/_ext/942849350/exceptions.o
 .debug_ranges  0x00003dc8       0x40 build/pic32mz_ef_sk/production/_ext/1360937237/app.o
 .debug_ranges  0x00003e08       0x10 build/pic32mz_ef_sk/production/_ext/1360937237/main.o
 .debug_ranges  0x00003e18       0x90 build/pic32mz_ef_sk/production/_ext/108032392/dialtek_modbus.o
 .debug_ranges  0x00003ea8       0x98 build/pic32mz_ef_sk/production/_ext/1360937237/tcp_app.o
 .debug_ranges  0x00003f40       0x30 build/pic32mz_ef_sk/production/_ext/1360937237/modbus_buf.o
 .debug_ranges  0x00003f70       0x98 c:/program files (x86)/microchip/xc32/v2.30/bin/bin/../../lib/gcc/pic32mx/4.8.3/fpu64\libgcc.a(_udivdi3.o)
 .debug_ranges  0x00004008       0x10 c:/program files (x86)/microchip/xc32/v2.30/bin/bin/../../lib/gcc/pic32mx/4.8.3/../../../../pic32mx/lib/fpu64\libpic32.a(default-bootstrap-exception-handler.o)
 .debug_ranges  0x00004018       0x10 c:/program files (x86)/microchip/xc32/v2.30/bin/bin/../../lib/gcc/pic32mx/4.8.3/../../../../pic32mx/lib/fpu64\libpic32.a(default-on-reset.o)
 .debug_ranges  0x00004028       0x10 c:/program files (x86)/microchip/xc32/v2.30/bin/bin/../../lib/gcc/pic32mx/4.8.3/../../../../pic32mx/lib/fpu64\libpic32.a(default-on-bootstrap.o)
 .debug_ranges  0x00004038       0x10 c:/program files (x86)/microchip/xc32/v2.30/bin/bin/../../lib/gcc/pic32mx/4.8.3/../../../../pic32mx/lib/fpu64\libpic32.a(defaultinterrupt.o)
 .debug_ranges  0x00004048       0x10 c:/program files (x86)/microchip/xc32/v2.30/bin/bin/../../lib/gcc/pic32mx/4.8.3/../../../../pic32mx/lib/fpu64\libpic32.a(default-cache-err-exception-handler.o)
 .debug_ranges  0x00004058       0x10 c:/program files (x86)/microchip/xc32/v2.30/bin/bin/../../lib/gcc/pic32mx/4.8.3/../../../../pic32mx/lib/fpu64\libpic32.a(default-simple-tlb-refill-exception-handler.o)
 .debug_ranges  0x00004068       0x10 c:/program files (x86)/microchip/xc32/v2.30/bin/bin/../../lib/gcc/pic32mx/4.8.3/../../../../pic32mx/lib/fpu64\libc.a(atoi.o)
 .debug_ranges  0x00004078       0x10 c:/program files (x86)/microchip/xc32/v2.30/bin/bin/../../lib/gcc/pic32mx/4.8.3/../../../../pic32mx/lib/fpu64\libc.a(calloc.o)
 .debug_ranges  0x00004088       0x90 c:/program files (x86)/microchip/xc32/v2.30/bin/bin/../../lib/gcc/pic32mx/4.8.3/../../../../pic32mx/lib/fpu64\libc.a(ctypef.o)
 .debug_ranges  0x00004118       0x20 c:/program files (x86)/microchip/xc32/v2.30/bin/bin/../../lib/gcc/pic32mx/4.8.3/../../../../pic32mx/lib/fpu64\libc.a(malloc.o)
 .debug_ranges  0x00004138       0x18 c:/program files (x86)/microchip/xc32/v2.30/bin/bin/../../lib/gcc/pic32mx/4.8.3/../../../../pic32mx/lib/fpu64\libc.a(rand.o)
 .debug_ranges  0x00004150       0x10 c:/program files (x86)/microchip/xc32/v2.30/bin/bin/../../lib/gcc/pic32mx/4.8.3/../../../../pic32mx/lib/fpu64\libc.a(strncmp.o)
 .debug_ranges  0x00004160       0x10 c:/program files (x86)/microchip/xc32/v2.30/bin/bin/../../lib/gcc/pic32mx/4.8.3/../../../../pic32mx/lib/fpu64\libc.a(strncpy.o)
 .debug_ranges  0x00004170       0x18 c:/program files (x86)/microchip/xc32/v2.30/bin/bin/../../lib/gcc/pic32mx/4.8.3/../../../../pic32mx/lib/fpu64\libc.a(strtol.o)
 .debug_ranges  0x00004188       0x10 c:/program files (x86)/microchip/xc32/v2.30/bin/bin/../../lib/gcc/pic32mx/4.8.3/../../../../pic32mx/lib/fpu64\libc.a(printf_cdnopsuxX.eo)
 .debug_ranges  0x00004198       0x10 c:/program files (x86)/microchip/xc32/v2.30/bin/bin/../../lib/gcc/pic32mx/4.8.3/../../../../pic32mx/lib/fpu64\libc.a(snprintf_cdnopsuxX.eo)
 .debug_ranges  0x000041a8       0x10 c:/program files (x86)/microchip/xc32/v2.30/bin/bin/../../lib/gcc/pic32mx/4.8.3/../../../../pic32mx/lib/fpu64\libc.a(sprintf_cdnopsuxX.eo)
 .debug_ranges  0x000041b8       0x10 c:/program files (x86)/microchip/xc32/v2.30/bin/bin/../../lib/gcc/pic32mx/4.8.3/../../../../pic32mx/lib/fpu64\libc.a(vsnprintf_cdnopsuxX.eo)
 .debug_ranges  0x000041c8       0x10 c:/program files (x86)/microchip/xc32/v2.30/bin/bin/../../lib/gcc/pic32mx/4.8.3/../../../../pic32mx/lib/fpu64\libc.a(vsnprintf.o)
 .debug_ranges  0x000041d8       0x10 c:/program files (x86)/microchip/xc32/v2.30/bin/bin/../../lib/gcc/pic32mx/4.8.3/../../../../pic32mx/lib/fpu64\libc.a(doprnt_cdnopsuxX.eo)
 .debug_ranges  0x000041e8       0x20 c:/program files (x86)/microchip/xc32/v2.30/bin/bin/../../lib/gcc/pic32mx/4.8.3/../../../../pic32mx/lib/fpu64\libc.a(doprnt.o)
 .debug_ranges  0x00004208       0x10 c:/program files (x86)/microchip/xc32/v2.30/bin/bin/../../lib/gcc/pic32mx/4.8.3/../../../../pic32mx/lib/fpu64\libc.a(_fputc_simple.o)
 .debug_ranges  0x00004218       0x10 c:/program files (x86)/microchip/xc32/v2.30/bin/bin/../../lib/gcc/pic32mx/4.8.3/../../../../pic32mx/lib/fpu64\libc.a(_flsbuf_simple.o)
 .debug_ranges  0x00004228       0x10 c:/program files (x86)/microchip/xc32/v2.30/bin/bin/../../lib/gcc/pic32mx/4.8.3/../../../../pic32mx/lib/fpu64\libmfd.a(s_frexp.o)
 .debug_ranges  0x00004238       0xd8 c:/program files (x86)/microchip/xc32/v2.30/bin/bin/../../lib/gcc/pic32mx/4.8.3/fpu64\libgcc.a(_umoddi3.o)
 .debug_ranges  0x00004310       0x30 c:/program files (x86)/microchip/xc32/v2.30/bin/bin/../../lib/gcc/pic32mx/4.8.3/../../../../pic32mx/lib/fpu64\libpic32.a(sbrk.o)
 .debug_ranges  0x00004340       0x10 c:/program files (x86)/microchip/xc32/v2.30/bin/bin/../../lib/gcc/pic32mx/4.8.3/../../../../pic32mx/lib/fpu64\libpic32.a(write.o)

.gnu.attributes
                0x00000000       0x10
 *(.gnu.attributes)
 .gnu.attributes
                0x00000000       0x10 build/pic32mz_ef_sk/production/_ext/978308758/bsp.o
 .gnu.attributes
                0x00000010       0x10 build/pic32mz_ef_sk/production/_ext/1314174413/drv_ethmac.o
 .gnu.attributes
                0x00000020       0x10 build/pic32mz_ef_sk/production/_ext/1314174413/drv_ethmac_lib.o
 .gnu.attributes
                0x00000030       0x10 build/pic32mz_ef_sk/production/_ext/1314174413/drv_eth_pic32_lib.o
 .gnu.attributes
                0x00000040       0x10 build/pic32mz_ef_sk/production/_ext/138020607/drv_ethphy.o
 .gnu.attributes
                0x00000050       0x10 build/pic32mz_ef_sk/production/_ext/138020607/drv_extphy_smsc8740.o
 .gnu.attributes
                0x00000060       0x10 build/pic32mz_ef_sk/production/_ext/1761147401/drv_miim.o
 .gnu.attributes
                0x00000070       0x10 build/pic32mz_ef_sk/production/_ext/2027382860/helpers.o
 .gnu.attributes
                0x00000080       0x10 build/pic32mz_ef_sk/production/_ext/2027382860/dns.o
 .gnu.attributes
                0x00000090       0x10 build/pic32mz_ef_sk/production/_ext/2027382860/icmp.o
 .gnu.attributes
                0x000000a0       0x10 build/pic32mz_ef_sk/production/_ext/2027382860/tcp.o
 .gnu.attributes
                0x000000b0       0x10 build/pic32mz_ef_sk/production/_ext/2027382860/dhcp.o
 .gnu.attributes
                0x000000c0       0x10 build/pic32mz_ef_sk/production/_ext/2027382860/arp.o
 .gnu.attributes
                0x000000d0       0x10 build/pic32mz_ef_sk/production/_ext/2027382860/tcpip_commands.o
 .gnu.attributes
                0x000000e0       0x10 build/pic32mz_ef_sk/production/_ext/2027382860/ipv4.o
 .gnu.attributes
                0x000000f0       0x10 build/pic32mz_ef_sk/production/_ext/2027382860/tcpip_heap_alloc.o
 .gnu.attributes
                0x00000100       0x10 build/pic32mz_ef_sk/production/_ext/2027382860/tcpip_heap_internal.o
 .gnu.attributes
                0x00000110       0x10 build/pic32mz_ef_sk/production/_ext/2027382860/hash_fnv.o
 .gnu.attributes
                0x00000120       0x10 build/pic32mz_ef_sk/production/_ext/2027382860/oahash.o
 .gnu.attributes
                0x00000130       0x10 build/pic32mz_ef_sk/production/_ext/2027382860/tcpip_helpers.o
 .gnu.attributes
                0x00000140       0x10 build/pic32mz_ef_sk/production/_ext/2027382860/tcpip_manager.o
 .gnu.attributes
                0x00000150       0x10 build/pic32mz_ef_sk/production/_ext/2027382860/tcpip_notify.o
 .gnu.attributes
                0x00000160       0x10 build/pic32mz_ef_sk/production/_ext/2027382860/tcpip_packet.o
 .gnu.attributes
                0x00000170       0x10 build/pic32mz_ef_sk/production/_ext/2027382860/udp.o
 .gnu.attributes
                0x00000180       0x10 build/pic32mz_ef_sk/production/_ext/1098417660/plib_clk.o
 .gnu.attributes
                0x00000190       0x10 build/pic32mz_ef_sk/production/_ext/1710852712/plib_coretimer.o
 .gnu.attributes
                0x000001a0       0x10 build/pic32mz_ef_sk/production/_ext/308860137/plib_evic.o
 .gnu.attributes
                0x000001b0       0x10 build/pic32mz_ef_sk/production/_ext/308913965/plib_gpio.o
 .gnu.attributes
                0x000001c0       0x10 build/pic32mz_ef_sk/production/_ext/309316908/plib_uart2.o
 .gnu.attributes
                0x000001d0       0x10 build/pic32mz_ef_sk/production/_ext/458842868/xc32_monitor.o
 .gnu.attributes
                0x000001e0       0x10 build/pic32mz_ef_sk/production/_ext/2135388491/sys_command.o
 .gnu.attributes
                0x000001f0       0x10 build/pic32mz_ef_sk/production/_ext/1702866625/sys_console.o
 .gnu.attributes
                0x00000200       0x10 build/pic32mz_ef_sk/production/_ext/1702866625/sys_console_uart.o
 .gnu.attributes
                0x00000210       0x10 build/pic32mz_ef_sk/production/_ext/57023747/sys_debug.o
 .gnu.attributes
                0x00000220       0x10 build/pic32mz_ef_sk/production/_ext/723085273/sys_int.o
 .gnu.attributes
                0x00000230       0x10 build/pic32mz_ef_sk/production/_ext/1658225107/sys_time.o
 .gnu.attributes
                0x00000240       0x10 build/pic32mz_ef_sk/production/_ext/1344301860/sys_time_h2_adapter.o
 .gnu.attributes
                0x00000250       0x10 build/pic32mz_ef_sk/production/_ext/942849350/tasks.o
 .gnu.attributes
                0x00000260       0x10 build/pic32mz_ef_sk/production/_ext/942849350/initialization.o
 .gnu.attributes
                0x00000270       0x10 build/pic32mz_ef_sk/production/_ext/942849350/interrupts.o
 .gnu.attributes
                0x00000280       0x10 build/pic32mz_ef_sk/production/_ext/942849350/exceptions.o
 .gnu.attributes
                0x00000290       0x10 build/pic32mz_ef_sk/production/_ext/1360937237/app.o
 .gnu.attributes
                0x000002a0       0x10 build/pic32mz_ef_sk/production/_ext/1360937237/main.o
 .gnu.attributes
                0x000002b0       0x10 build/pic32mz_ef_sk/production/_ext/108032392/dialtek_modbus.o
 .gnu.attributes
                0x000002c0       0x10 build/pic32mz_ef_sk/production/_ext/1360937237/tcp_app.o
 .gnu.attributes
                0x000002d0       0x10 build/pic32mz_ef_sk/production/_ext/1360937237/modbus_buf.o
 .gnu.attributes
                0x000002e0       0x10 c:/program files (x86)/microchip/xc32/v2.30/bin/bin/../../lib/gcc/pic32mx/4.8.3/fpu64\libgcc.a(_udivdi3.o)
 .gnu.attributes
                0x000002f0       0x10 c:/program files (x86)/microchip/xc32/v2.30/bin/bin/../../lib/gcc/pic32mx/4.8.3/../../../../pic32mx/lib/fpu64\libpic32.a(default-bootstrap-exception-handler.o)
 .gnu.attributes
                0x00000300       0x10 c:/program files (x86)/microchip/xc32/v2.30/bin/bin/../../lib/gcc/pic32mx/4.8.3/../../../../pic32mx/lib/fpu64\libpic32.a(default-on-reset.o)
 .gnu.attributes
                0x00000310       0x10 c:/program files (x86)/microchip/xc32/v2.30/bin/bin/../../lib/gcc/pic32mx/4.8.3/../../../../pic32mx/lib/fpu64\libpic32.a(default-on-bootstrap.o)
 .gnu.attributes
                0x00000320       0x10 c:/program files (x86)/microchip/xc32/v2.30/bin/bin/../../lib/gcc/pic32mx/4.8.3/../../../../pic32mx/lib/fpu64\libpic32.a(defaultinterrupt.o)
 .gnu.attributes
                0x00000330       0x10 c:/program files (x86)/microchip/xc32/v2.30/bin/bin/../../lib/gcc/pic32mx/4.8.3/../../../../pic32mx/lib/fpu64\libpic32.a(default-cache-err-exception-handler.o)
 .gnu.attributes
                0x00000340       0x10 c:/program files (x86)/microchip/xc32/v2.30/bin/bin/../../lib/gcc/pic32mx/4.8.3/../../../../pic32mx/lib/fpu64\libpic32.a(default-simple-tlb-refill-exception-handler.o)
 .gnu.attributes
                0x00000350       0x10 c:/program files (x86)/microchip/xc32/v2.30/bin/bin/../../lib/gcc/pic32mx/4.8.3/../../../../pic32mx/lib/fpu64\libc.a(atoi.o)
 .gnu.attributes
                0x00000360       0x10 c:/program files (x86)/microchip/xc32/v2.30/bin/bin/../../lib/gcc/pic32mx/4.8.3/../../../../pic32mx/lib/fpu64\libc.a(calloc.o)
 .gnu.attributes
                0x00000370       0x10 c:/program files (x86)/microchip/xc32/v2.30/bin/bin/../../lib/gcc/pic32mx/4.8.3/../../../../pic32mx/lib/fpu64\libc.a(ctype.o)
 .gnu.attributes
                0x00000380       0x10 c:/program files (x86)/microchip/xc32/v2.30/bin/bin/../../lib/gcc/pic32mx/4.8.3/../../../../pic32mx/lib/fpu64\libc.a(ctypef.o)
 .gnu.attributes
                0x00000390       0x10 c:/program files (x86)/microchip/xc32/v2.30/bin/bin/../../lib/gcc/pic32mx/4.8.3/../../../../pic32mx/lib/fpu64\libc.a(malloc.o)
 .gnu.attributes
                0x000003a0       0x10 c:/program files (x86)/microchip/xc32/v2.30/bin/bin/../../lib/gcc/pic32mx/4.8.3/../../../../pic32mx/lib/fpu64\libc.a(rand.o)
 .gnu.attributes
                0x000003b0       0x10 c:/program files (x86)/microchip/xc32/v2.30/bin/bin/../../lib/gcc/pic32mx/4.8.3/../../../../pic32mx/lib/fpu64\libc.a(strncmp.o)
 .gnu.attributes
                0x000003c0       0x10 c:/program files (x86)/microchip/xc32/v2.30/bin/bin/../../lib/gcc/pic32mx/4.8.3/../../../../pic32mx/lib/fpu64\libc.a(strncpy.o)
 .gnu.attributes
                0x000003d0       0x10 c:/program files (x86)/microchip/xc32/v2.30/bin/bin/../../lib/gcc/pic32mx/4.8.3/../../../../pic32mx/lib/fpu64\libc.a(strtol.o)
 .gnu.attributes
                0x000003e0       0x10 c:/program files (x86)/microchip/xc32/v2.30/bin/bin/../../lib/gcc/pic32mx/4.8.3/../../../../pic32mx/lib/fpu64\libc.a(printf_cdnopsuxX.eo)
 .gnu.attributes
                0x000003f0       0x10 c:/program files (x86)/microchip/xc32/v2.30/bin/bin/../../lib/gcc/pic32mx/4.8.3/../../../../pic32mx/lib/fpu64\libc.a(snprintf_cdnopsuxX.eo)
 .gnu.attributes
                0x00000400       0x10 c:/program files (x86)/microchip/xc32/v2.30/bin/bin/../../lib/gcc/pic32mx/4.8.3/../../../../pic32mx/lib/fpu64\libc.a(sprintf_cdnopsuxX.eo)
 .gnu.attributes
                0x00000410       0x10 c:/program files (x86)/microchip/xc32/v2.30/bin/bin/../../lib/gcc/pic32mx/4.8.3/../../../../pic32mx/lib/fpu64\libc.a(vsnprintf_cdnopsuxX.eo)
 .gnu.attributes
                0x00000420       0x10 c:/program files (x86)/microchip/xc32/v2.30/bin/bin/../../lib/gcc/pic32mx/4.8.3/../../../../pic32mx/lib/fpu64\libc.a(vsnprintf.o)
 .gnu.attributes
                0x00000430       0x10 c:/program files (x86)/microchip/xc32/v2.30/bin/bin/../../lib/gcc/pic32mx/4.8.3/../../../../pic32mx/lib/fpu64\libc.a(_iob.o)
 .gnu.attributes
                0x00000440       0x10 c:/program files (x86)/microchip/xc32/v2.30/bin/bin/../../lib/gcc/pic32mx/4.8.3/../../../../pic32mx/lib/fpu64\libc.a(errno.o)
 .gnu.attributes
                0x00000450       0x10 c:/program files (x86)/microchip/xc32/v2.30/bin/bin/../../lib/gcc/pic32mx/4.8.3/../../../../pic32mx/lib/fpu64\libc.a(doprnt_cdnopsuxX.eo)
 .gnu.attributes
                0x00000460       0x10 c:/program files (x86)/microchip/xc32/v2.30/bin/bin/../../lib/gcc/pic32mx/4.8.3/../../../../pic32mx/lib/fpu64\libc.a(doprnt.o)
 .gnu.attributes
                0x00000470       0x10 c:/program files (x86)/microchip/xc32/v2.30/bin/bin/../../lib/gcc/pic32mx/4.8.3/../../../../pic32mx/lib/fpu64\libc.a(_fputc_simple.o)
 .gnu.attributes
                0x00000480       0x10 c:/program files (x86)/microchip/xc32/v2.30/bin/bin/../../lib/gcc/pic32mx/4.8.3/../../../../pic32mx/lib/fpu64\libc.a(ldpowers.o)
 .gnu.attributes
                0x00000490       0x10 c:/program files (x86)/microchip/xc32/v2.30/bin/bin/../../lib/gcc/pic32mx/4.8.3/../../../../pic32mx/lib/fpu64\libc.a(_flsbuf_simple.o)
 .gnu.attributes
                0x000004a0       0x10 c:/program files (x86)/microchip/xc32/v2.30/bin/bin/../../lib/gcc/pic32mx/4.8.3/../../../../pic32mx/lib/fpu64\libmfd.a(s_frexp.o)
 .gnu.attributes
                0x000004b0       0x10 c:/program files (x86)/microchip/xc32/v2.30/bin/bin/../../lib/gcc/pic32mx/4.8.3/fpu64\libgcc.a(_cmpdi2.o)
 .gnu.attributes
                0x000004c0       0x10 c:/program files (x86)/microchip/xc32/v2.30/bin/bin/../../lib/gcc/pic32mx/4.8.3/fpu64\libgcc.a(_umoddi3.o)
 .gnu.attributes
                0x000004d0       0x10 c:/program files (x86)/microchip/xc32/v2.30/bin/bin/../../lib/gcc/pic32mx/4.8.3/../../../../pic32mx/lib/fpu64\libpic32.a(sbrk.o)
 .gnu.attributes
                0x000004e0       0x10 c:/program files (x86)/microchip/xc32/v2.30/bin/bin/../../lib/gcc/pic32mx/4.8.3/../../../../pic32mx/lib/fpu64\libpic32.a(write.o)
                0x9d000000                PROVIDE (__pic32_init_cache_program_base_addr, 0x9d000000)
                0x80000000                PROVIDE (__pic32_init_cache_data_base_addr, 0x80000000)
                0xd0000000                PROVIDE (__pic32_init_sqi_kseg2_virtual_base_addr, 0xd0000000)
                0x30000000                PROVIDE (__pic32_init_sqi_kseg2_physical_base_addr, 0x30000000)
                0x0000001f                PROVIDE (__pic32_init_sqi_kseg2_entrylo0_bitset, 0x1f)
                0xd0000000                __pic32_tlb_0_entryhi = __pic32_init_sqi_kseg2_virtual_base_addr
                0x00c0001f                __pic32_tlb_0_entrylo0 = ((__pic32_init_sqi_kseg2_physical_base_addr >> 0x6) | __pic32_init_sqi_kseg2_entrylo0_bitset)
                0x00c4001f                __pic32_tlb_0_entrylo1 = (__pic32_tlb_0_entrylo0 | ((__pic32_init_sqi_kseg2_physical_base_addr + 0x1000000) >> 0x6))
                0xd2000000                __pic32_tlb_1_entryhi = (__pic32_init_sqi_kseg2_virtual_base_addr + 0x2000000)
                0x00c8001f                __pic32_tlb_1_entrylo0 = (((__pic32_init_sqi_kseg2_physical_base_addr + 0x2000000) >> 0x6) | __pic32_init_sqi_kseg2_entrylo0_bitset)
                0x00cc001f                __pic32_tlb_1_entrylo1 = (__pic32_tlb_1_entrylo0 | 0x40000)
                0xf0000000                PROVIDE (__pic32_init_sqi_kseg3_virtual_base_addr, 0xf0000000)
                0x30000000                PROVIDE (__pic32_init_sqi_kseg3_physical_base_addr, 0x30000000)
                0x00000017                PROVIDE (__pic32_init_sqi_kseg3_entrylo0_bitset, 0x17)
                0xf0000000                __pic32_tlb_2_entryhi = __pic32_init_sqi_kseg3_virtual_base_addr
                0x00c00017                __pic32_tlb_2_entrylo0 = ((__pic32_init_sqi_kseg3_physical_base_addr >> 0x6) | __pic32_init_sqi_kseg3_entrylo0_bitset)
                0x00c40017                __pic32_tlb_2_entrylo1 = (__pic32_tlb_2_entrylo0 | ((__pic32_init_sqi_kseg3_physical_base_addr + 0x1000000) >> 0x6))
                0xf2000000                __pic32_tlb_3_entryhi = (__pic32_init_sqi_kseg3_virtual_base_addr + 0x2000000)
                0x00c80017                __pic32_tlb_3_entrylo0 = (((__pic32_init_sqi_kseg3_physical_base_addr + 0x2000000) >> 0x6) | __pic32_init_sqi_kseg3_entrylo0_bitset)
                0x00cc0017                __pic32_tlb_3_entrylo1 = (__pic32_tlb_3_entrylo0 | 0x40000)
                0xc0000000                PROVIDE (__pic32_init_ebi_kseg2_virtual_base_addr, 0xc0000000)
                0x20000000                PROVIDE (__pic32_init_ebi_kseg2_physical_base_addr, 0x20000000)
                0x0000001f                PROVIDE (__pic32_init_ebi_kseg2_entrylo0_bitset, 0x1f)
                0xc0000000                __pic32_tlb_4_entryhi = __pic32_init_ebi_kseg2_virtual_base_addr
                0x0080001f                __pic32_tlb_4_entrylo0 = ((__pic32_init_ebi_kseg2_physical_base_addr >> 0x6) | __pic32_init_ebi_kseg2_entrylo0_bitset)
                0x0084001f                __pic32_tlb_4_entrylo1 = (__pic32_tlb_4_entrylo0 | ((__pic32_init_ebi_kseg2_physical_base_addr + 0x1000000) >> 0x6))
                0xc2000000                __pic32_tlb_5_entryhi = (__pic32_init_ebi_kseg2_virtual_base_addr + 0x2000000)
                0x0088001f                __pic32_tlb_5_entrylo0 = (((__pic32_init_ebi_kseg2_physical_base_addr + 0x2000000) >> 0x6) | __pic32_init_ebi_kseg2_entrylo0_bitset)
                0x008c001f                __pic32_tlb_5_entrylo1 = (__pic32_tlb_5_entrylo0 | 0x40000)
                0xe0000000                PROVIDE (__pic32_init_ebi_kseg3_virtual_base_addr, 0xe0000000)
                0x20000000                PROVIDE (__pic32_init_ebi_kseg3_physical_base_addr, 0x20000000)
                0x00000017                PROVIDE (__pic32_init_ebi_kseg3_entrylo0_bitset, 0x17)
                0xe0000000                __pic32_tlb_6_entryhi = __pic32_init_ebi_kseg3_virtual_base_addr
                0x00800017                __pic32_tlb_6_entrylo0 = ((__pic32_init_ebi_kseg3_physical_base_addr >> 0x6) | __pic32_init_ebi_kseg3_entrylo0_bitset)
                0x00840017                __pic32_tlb_6_entrylo1 = (__pic32_tlb_6_entrylo0 | ((__pic32_init_ebi_kseg3_physical_base_addr + 0x1000000) >> 0x6))
                0xe2000000                __pic32_tlb_7_entryhi = (__pic32_init_ebi_kseg3_virtual_base_addr + 0x2000000)
                0x00880017                __pic32_tlb_7_entrylo0 = (((__pic32_init_ebi_kseg3_physical_base_addr + 0x2000000) >> 0x6) | __pic32_init_ebi_kseg3_entrylo0_bitset)
                0x008c0017                __pic32_tlb_7_entrylo1 = (__pic32_tlb_7_entrylo0 | 0x40000)

.tlb_init_values
                0xbfc00670       0x60
                0xbfc00670                . = ALIGN (0x4)
                0xbfc00670                __pic32_tlb_init_values_begin = ABSOLUTE (.)
                0xbfc00670        0x4 LONG 0xd0000000 __pic32_tlb_0_entryhi
                0xbfc00674        0x4 LONG 0xc0001f __pic32_tlb_0_entrylo0
                0xbfc00678        0x4 LONG 0xc4001f __pic32_tlb_0_entrylo1
                0xbfc0067c        0x4 LONG 0xd2000000 __pic32_tlb_1_entryhi
                0xbfc00680        0x4 LONG 0xc8001f __pic32_tlb_1_entrylo0
                0xbfc00684        0x4 LONG 0xcc001f __pic32_tlb_1_entrylo1
                0xbfc00688        0x4 LONG 0xf0000000 __pic32_tlb_2_entryhi
                0xbfc0068c        0x4 LONG 0xc00017 __pic32_tlb_2_entrylo0
                0xbfc00690        0x4 LONG 0xc40017 __pic32_tlb_2_entrylo1
                0xbfc00694        0x4 LONG 0xf2000000 __pic32_tlb_3_entryhi
                0xbfc00698        0x4 LONG 0xc80017 __pic32_tlb_3_entrylo0
                0xbfc0069c        0x4 LONG 0xcc0017 __pic32_tlb_3_entrylo1
                0xbfc006a0        0x4 LONG 0xc0000000 __pic32_tlb_4_entryhi
                0xbfc006a4        0x4 LONG 0x80001f __pic32_tlb_4_entrylo0
                0xbfc006a8        0x4 LONG 0x84001f __pic32_tlb_4_entrylo1
                0xbfc006ac        0x4 LONG 0xc2000000 __pic32_tlb_5_entryhi
                0xbfc006b0        0x4 LONG 0x88001f __pic32_tlb_5_entrylo0
                0xbfc006b4        0x4 LONG 0x8c001f __pic32_tlb_5_entrylo1
                0xbfc006b8        0x4 LONG 0xe0000000 __pic32_tlb_6_entryhi
                0xbfc006bc        0x4 LONG 0x800017 __pic32_tlb_6_entrylo0
                0xbfc006c0        0x4 LONG 0x840017 __pic32_tlb_6_entrylo1
                0xbfc006c4        0x4 LONG 0xe2000000 __pic32_tlb_7_entryhi
                0xbfc006c8        0x4 LONG 0x880017 __pic32_tlb_7_entrylo0
                0xbfc006cc        0x4 LONG 0x8c0017 __pic32_tlb_7_entrylo1
                0xbfc006d0                __pic32_tlb_init_values_end = ABSOLUTE (.)
                0x00000008                __pic32_tlb_init_values_count = 0x8
LOAD c:/program files (x86)/microchip/xc32/v2.30/bin/bin/../../lib/gcc/pic32mx/4.8.3/fpu64\libgcc.a
START GROUP
LOAD c:/program files (x86)/microchip/xc32/v2.30/bin/bin/../../lib/gcc/pic32mx/4.8.3/../../../../pic32mx/lib/fpu64\libpic32.a
LOAD c:/program files (x86)/microchip/xc32/v2.30/bin/bin/../../lib/gcc/pic32mx/4.8.3/../../../../pic32mx/lib/fpu64\libdebug.a
LOAD c:/program files (x86)/microchip/xc32/v2.30/bin/bin/../../lib/gcc/pic32mx/4.8.3/../../../../pic32mx/lib/fpu64\libpic32.a
LOAD c:/program files (x86)/microchip/xc32/v2.30/bin/bin/../../lib/gcc/pic32mx/4.8.3/../../../../pic32mx/lib/fpu64\libc.a
LOAD c:/program files (x86)/microchip/xc32/v2.30/bin/bin/../../lib/gcc/pic32mx/4.8.3/../../../../pic32mx/lib/fpu64\libc.a
LOAD c:/program files (x86)/microchip/xc32/v2.30/bin/bin/../../lib/gcc/pic32mx/4.8.3/../../../../pic32mx/lib/fpu64\libmfd.a
LOAD c:/program files (x86)/microchip/xc32/v2.30/bin/bin/../../lib/gcc/pic32mx/4.8.3/../../../../pic32mx/lib/fpu64\libm.a
LOAD c:/program files (x86)/microchip/xc32/v2.30/bin/bin/../../lib/gcc/pic32mx/4.8.3/../../../../pic32mx/lib/fpu64\libe.a
LOAD c:/program files (x86)/microchip/xc32/v2.30/bin/bin/../../lib/gcc/pic32mx/4.8.3/../../../../pic32mx/lib/fpu64\libdspr2.a
LOAD c:/program files (x86)/microchip/xc32/v2.30/bin/bin/../../lib/gcc/pic32mx/4.8.3/../../../../pic32mx/lib/fpu64\libdsp.a
LOAD c:/program files (x86)/microchip/xc32/v2.30/bin/bin/../../lib/gcc/pic32mx/4.8.3/fpu64\libgcc.a
LOAD c:/program files (x86)/microchip/xc32/v2.30/bin/bin/../../lib/gcc/pic32mx/4.8.3/../../../../pic32mx/lib/fpu64\libpic32.a
END GROUP
LOAD c:/program files (x86)/microchip/xc32/v2.30/bin/bin/../../lib/gcc/pic32mx/4.8.3/fpu64\libgcc.a
OUTPUT(dist/pic32mz_ef_sk/production/pic32mz_ef_sk.X.production.elf elf32-tradlittlemips)
LOAD stack
LOAD data_init

.reginfo        0x00000000       0x18
 .reginfo       0x00000000       0x18 c:/program files (x86)/microchip/xc32/v2.30/bin/bin/../../lib/gcc/pic32mx/4.8.3/../../../../pic32mx/lib/fpu64\debug-exception-return.o

.stack          0x800117f8      0x400
 .stack         0x800117f8      0x400 stack

.__vector_offset_BF810540_data
                0xbf810540      0x1ac
 .__vector_offset_BF810540_data
                0xbf810540      0x1ac c:/program files (x86)/microchip/xc32/v2.30/bin/bin/../../lib/gcc/pic32mx/4.8.3/../../../../pic32mx/lib/./proc/32MZ2048EFH144\vector_offset_init.o

.__vector_offset_BF8106F4_data
                0xbf8106f4      0x148
 .__vector_offset_BF8106F4_data
                0xbf8106f4      0x148 c:/program files (x86)/microchip/xc32/v2.30/bin/bin/../../lib/gcc/pic32mx/4.8.3/../../../../pic32mx/lib/./proc/32MZ2048EFH144\vector_offset_init.o

.__vector_offset_BF810874_data
                0xbf810874       0x18
 .__vector_offset_BF810874_data
                0xbf810874       0x18 c:/program files (x86)/microchip/xc32/v2.30/bin/bin/../../lib/gcc/pic32mx/4.8.3/../../../../pic32mx/lib/./proc/32MZ2048EFH144\vector_offset_init.o

.__vector_offset_BF810858_data
                0xbf810858       0x14
 .__vector_offset_BF810858_data
                0xbf810858       0x14 c:/program files (x86)/microchip/xc32/v2.30/bin/bin/../../lib/gcc/pic32mx/4.8.3/../../../../pic32mx/lib/./proc/32MZ2048EFH144\vector_offset_init.o

.__vector_offset_BF810840_data
                0xbf810840        0xc
 .__vector_offset_BF810840_data
                0xbf810840        0xc c:/program files (x86)/microchip/xc32/v2.30/bin/bin/../../lib/gcc/pic32mx/4.8.3/../../../../pic32mx/lib/./proc/32MZ2048EFH144\vector_offset_init.o

.__vector_offset_BF810850_data
                0xbf810850        0x4
 .__vector_offset_BF810850_data
                0xbf810850        0x4 c:/program files (x86)/microchip/xc32/v2.30/bin/bin/../../lib/gcc/pic32mx/4.8.3/../../../../pic32mx/lib/./proc/32MZ2048EFH144\vector_offset_init.o

.__vector_offset_BF810894_data
                0xbf810894        0x4
 .__vector_offset_BF810894_data
                0xbf810894        0x4 c:/program files (x86)/microchip/xc32/v2.30/bin/bin/../../lib/gcc/pic32mx/4.8.3/../../../../pic32mx/lib/./proc/32MZ2048EFH144\vector_offset_init.o

.bss            0x80000508      0x828
 .bss           0x80000508      0x4f8 build/pic32mz_ef_sk/production/_ext/2135388491/sys_command.o
 .bss           0x80000a00      0x330 build/pic32mz_ef_sk/production/_ext/2027382860/tcpip_manager.o

.bss            0x80000d30      0x580
 .bss           0x80000d30      0x320 build/pic32mz_ef_sk/production/_ext/108032392/dialtek_modbus.o
 .bss           0x80001050      0x260 build/pic32mz_ef_sk/production/_ext/942849350/initialization.o

.bss            0x800012b0      0x190
 .bss           0x800012b0      0x190 build/pic32mz_ef_sk/production/_ext/57023747/sys_debug.o

.data           0x80001440      0x140
 .data          0x80001440      0x140 build/pic32mz_ef_sk/production/_ext/1314174413/drv_ethmac.o

.bss            0x80001580       0xec
 .bss           0x80001580       0xec build/pic32mz_ef_sk/production/_ext/1658225107/sys_time.o

.data           0x8000166c       0xa4
 .data          0x8000166c       0xa4 c:/program files (x86)/microchip/xc32/v2.30/bin/bin/../../lib/gcc/pic32mx/4.8.3/../../../../pic32mx/lib/fpu64\libc.a(_iob.o)
                0x8000166c                _Files
                0x80001670                _iob

.bss            0x80001710      0x108
 .bss           0x80001710       0x98 build/pic32mz_ef_sk/production/_ext/1761147401/drv_miim.o
 .bss           0x800017a8       0x70 build/pic32mz_ef_sk/production/_ext/138020607/drv_ethphy.o

.bss            0x80001818       0xb4
 .bss           0x80001818       0x70 build/pic32mz_ef_sk/production/_ext/1702866625/sys_console_uart.o
 .bss           0x80001888       0x44 build/pic32mz_ef_sk/production/_ext/2027382860/arp.o

.bss            0x800018cc       0x78
 .bss           0x800018cc       0x44 c:/program files (x86)/microchip/xc32/v2.30/bin/bin/../../lib/gcc/pic32mx/4.8.3/../../../../pic32mx/lib/fpu64\libc.a(_iob.o)
                0x800018cc                _sobuf
                0x800018ec                _sibuf
                0x8000190c                _outdone
 .bss           0x80001910       0x34 build/pic32mz_ef_sk/production/_ext/2027382860/tcpip_commands.o

.bss            0x80001944       0x4c
 .bss           0x80001944       0x28 build/pic32mz_ef_sk/production/_ext/2027382860/dns.o
 .bss           0x8000196c       0x24 c:/program files (x86)/microchip/xc32/v2.30/bin/bin/../../lib/gcc/pic32mx/4.8.3/../../../../pic32mx/lib/fpu64\libpic32.a(sbrk.o)
                0x80001988                _maxbrk
                0x8000198c                _minbrk

.bss            0x80001990       0x40
 .bss           0x80001990       0x20 build/pic32mz_ef_sk/production/_ext/2027382860/ipv4.o
 .bss           0x800019b0       0x20 c:/program files (x86)/microchip/xc32/v2.30/bin/bin/../../lib/gcc/pic32mx/4.8.3/../../../../pic32mx/lib/fpu64\libc.a(malloc.o)
                0x800019b0                __allocx
                0x800019b8                __alloct
                0x800019bc                __allocp
                0x800019c0                __allocs

.data           0x800019d0       0x1c
 .data          0x800019d0       0x1c build/pic32mz_ef_sk/production/_ext/942849350/initialization.o
                0x800019d0                tcpipHeapConfig

.bss            0x800019ec       0x10
 .bss           0x800019ec       0x10 build/pic32mz_ef_sk/production/_ext/2027382860/dhcp.o

.bss            0x80001a00       0x1c
 .bss           0x80001a00       0x10 c:/program files (x86)/microchip/xc32/v2.30/bin/bin/../../lib/gcc/pic32mx/4.8.3/../../../../pic32mx/lib/fpu64\libc.a(rand.o)
 .bss           0x80001a10        0xc build/pic32mz_ef_sk/production/_ext/1702866625/sys_console.o

.bss.errno      0x800019fc        0x4
 .bss.errno     0x800019fc        0x4 c:/program files (x86)/microchip/xc32/v2.30/bin/bin/../../lib/gcc/pic32mx/4.8.3/../../../../pic32mx/lib/fpu64\libc.a(errno.o)
                0x800019fc                errno

._debug_exception
                0xbfc00480       0x2c
 ._debug_exception
                0xbfc00480       0x2c c:/program files (x86)/microchip/xc32/v2.30/bin/bin/../../lib/gcc/pic32mx/4.8.3/../../../../pic32mx/lib/fpu64\debug-exception-return.o
                0xbfc00480                __DbgExecReturn

.text.vfprintf  0x9d000270     0x2018
 .text.vfprintf
                0x9d000270     0x2018 c:/program files (x86)/microchip/xc32/v2.30/bin/bin/../../lib/gcc/pic32mx/4.8.3/../../../../pic32mx/lib/fpu64\libc.a(doprnt.o)
                0x9d000270                vfprintf

.rodata         0x9d002288     0x1744
 .rodata        0x9d002288     0x1744 build/pic32mz_ef_sk/production/_ext/2027382860/tcpip_commands.o

.text.TCPIP_TCP_Task
                0x9d0039cc     0x16a4
 .text.TCPIP_TCP_Task
                0x9d0039cc     0x16a4 build/pic32mz_ef_sk/production/_ext/2027382860/tcp.o
                0x9d0039cc                TCPIP_TCP_Task

.text._vfprintf_cdnopsuxX
                0x9d005070      0xc8c
 .text._vfprintf_cdnopsuxX
                0x9d005070      0xc8c c:/program files (x86)/microchip/xc32/v2.30/bin/bin/../../lib/gcc/pic32mx/4.8.3/../../../../pic32mx/lib/fpu64\libc.a(doprnt_cdnopsuxX.eo)
                0x9d005070                _vfprintf_cdnopuxX
                0x9d005070                _vfprintf_cdnopsuxX

.text.TCPIP_STACK_Task
                0x9d005cfc      0x8f4
 .text.TCPIP_STACK_Task
                0x9d005cfc      0x8f4 build/pic32mz_ef_sk/production/_ext/2027382860/tcpip_manager.o
                0x9d005cfc                TCPIP_STACK_Task

.text._TcpSend  0x9d0065f0      0x8c4
 .text._TcpSend
                0x9d0065f0      0x8c4 build/pic32mz_ef_sk/production/_ext/2027382860/tcp.o

.text._Command_DNS_Service
                0x9d006eb4      0x8c4
 .text._Command_DNS_Service
                0x9d006eb4      0x8c4 build/pic32mz_ef_sk/production/_ext/2027382860/tcpip_commands.o

.dinit          0x9d007778      0x850
 .dinit         0x9d007778      0x850 data_init

.text.TCPIP_DHCP_Task
                0x9d007fc8      0x7f0
 .text.TCPIP_DHCP_Task
                0x9d007fc8      0x7f0 build/pic32mz_ef_sk/production/_ext/2027382860/dhcp.o
                0x9d007fc8                TCPIP_DHCP_Task

.text.SYS_CMD_Tasks
                0x9d0087b8      0x6c0
 .text.SYS_CMD_Tasks
                0x9d0087b8      0x6c0 build/pic32mz_ef_sk/production/_ext/2135388491/sys_command.o
                0x9d0087b8                SYS_CMD_Tasks

.text.TCPIP_STACK_Initialize
                0x9d008e78      0x5e0
 .text.TCPIP_STACK_Initialize
                0x9d008e78      0x5e0 build/pic32mz_ef_sk/production/_ext/2027382860/tcpip_manager.o
                0x9d008e78                TCPIP_STACK_Initialize

.text.TCPIP_Helper_StringToIPv6Address
                0x9d009458      0x58c
 .text.TCPIP_Helper_StringToIPv6Address
                0x9d009458      0x58c build/pic32mz_ef_sk/production/_ext/2027382860/tcpip_helpers.o
                0x9d009458                TCPIP_Helper_StringToIPv6Address

.text.DRV_ETHMAC_PIC32MACInitialize
                0x9d0099e4      0x53c
 .text.DRV_ETHMAC_PIC32MACInitialize
                0x9d0099e4      0x53c build/pic32mz_ef_sk/production/_ext/1314174413/drv_ethmac.o
                0x9d0099e4                DRV_ETHMAC_PIC32MACInitialize

.rodata         0x9d009f20      0x510
 .rodata        0x9d009f20      0x510 build/pic32mz_ef_sk/production/_ext/2027382860/tcpip_manager.o

.text.TCPIP_ARP_Task
                0x9d00a430      0x484
 .text.TCPIP_ARP_Task
                0x9d00a430      0x484 build/pic32mz_ef_sk/production/_ext/2027382860/arp.o
                0x9d00a430                TCPIP_ARP_Task

.text           0x9d00a8b4      0x8bc
 .text          0x9d00a8b4      0x464 c:/program files (x86)/microchip/xc32/v2.30/bin/bin/../../lib/gcc/pic32mx/4.8.3/fpu64\libgcc.a(_umoddi3.o)
                0x9d00a8b4                __umoddi3
 .text          0x9d00ad18      0x458 c:/program files (x86)/microchip/xc32/v2.30/bin/bin/../../lib/gcc/pic32mx/4.8.3/fpu64\libgcc.a(_udivdi3.o)
                0x9d00ad18                __udivdi3

.text._CommandArp
                0x9d00b170      0x434
 .text._CommandArp
                0x9d00b170      0x434 build/pic32mz_ef_sk/production/_ext/2027382860/tcpip_commands.o

.text.TCP_APP_Tasks
                0x9d00b5a4      0x3d4
 .text.TCP_APP_Tasks
                0x9d00b5a4      0x3d4 build/pic32mz_ef_sk/production/_ext/1360937237/tcp_app.o
                0x9d00b5a4                TCP_APP_Tasks

.text._DNS_Send_Query
                0x9d00b978      0x3c8
 .text._DNS_Send_Query
                0x9d00b978      0x3c8 build/pic32mz_ef_sk/production/_ext/2027382860/dns.o

.text.TCPIP_DNS_ClientInitialize
                0x9d00bd40      0x3ac
 .text.TCPIP_DNS_ClientInitialize
                0x9d00bd40      0x3ac build/pic32mz_ef_sk/production/_ext/2027382860/dns.o
                0x9d00bd40                TCPIP_DNS_ClientInitialize

.text.DRV_MIIM_Tasks
                0x9d00c0ec      0x39c
 .text.DRV_MIIM_Tasks
                0x9d00c0ec      0x39c build/pic32mz_ef_sk/production/_ext/1761147401/drv_miim.o
                0x9d00c0ec                DRV_MIIM_Tasks

.text._CommandDhcpOptions
                0x9d00c488      0x38c
 .text._CommandDhcpOptions
                0x9d00c488      0x38c build/pic32mz_ef_sk/production/_ext/2027382860/tcpip_commands.o

.text._Command_NetInfo
                0x9d00c814      0x38c
 .text._Command_NetInfo
                0x9d00c814      0x38c build/pic32mz_ef_sk/production/_ext/2027382860/tcpip_commands.o

.text.TCPIP_ARP_Initialize
                0x9d00cba0      0x374
 .text.TCPIP_ARP_Initialize
                0x9d00cba0      0x374 build/pic32mz_ef_sk/production/_ext/2027382860/arp.o
                0x9d00cba0                TCPIP_ARP_Initialize

.text._TCP_Open
                0x9d00cf14      0x370
 .text._TCP_Open
                0x9d00cf14      0x370 build/pic32mz_ef_sk/production/_ext/2027382860/tcp.o

.text._DHCPReceive
                0x9d00d284      0x364
 .text._DHCPReceive
                0x9d00d284      0x364 build/pic32mz_ef_sk/production/_ext/2027382860/dhcp.o

.text.TCPIP_COMMAND_Task
                0x9d00d5e8      0x350
 .text.TCPIP_COMMAND_Task
                0x9d00d5e8      0x350 build/pic32mz_ef_sk/production/_ext/2027382860/tcpip_commands.o
                0x9d00d5e8                TCPIP_COMMAND_Task

.text.TCPIP_STACK_BringNetUp
                0x9d00d938      0x33c
 .text.TCPIP_STACK_BringNetUp
                0x9d00d938      0x33c build/pic32mz_ef_sk/production/_ext/2027382860/tcpip_manager.o

.text.TCPIP_UDP_Flush
                0x9d00dc74      0x334
 .text.TCPIP_UDP_Flush
                0x9d00dc74      0x334 build/pic32mz_ef_sk/production/_ext/2027382860/udp.o
                0x9d00dc74                TCPIP_UDP_Flush

.text.TCPIP_UDP_Task
                0x9d00dfa8      0x328
 .text.TCPIP_UDP_Task
                0x9d00dfa8      0x328 build/pic32mz_ef_sk/production/_ext/2027382860/udp.o
                0x9d00dfa8                TCPIP_UDP_Task

.text._DHCPSend
                0x9d00e2d0      0x31c
 .text._DHCPSend
                0x9d00e2d0      0x31c build/pic32mz_ef_sk/production/_ext/2027382860/dhcp.o

.text.TCPIP_UDP_OptionsSet
                0x9d00e5ec      0x2ec
 .text.TCPIP_UDP_OptionsSet
                0x9d00e5ec      0x2ec build/pic32mz_ef_sk/production/_ext/2027382860/udp.o
                0x9d00e5ec                TCPIP_UDP_OptionsSet

.text.TCPIP_IPV4_PacketTransmit
                0x9d00e8d8      0x2e8
 .text.TCPIP_IPV4_PacketTransmit
                0x9d00e8d8      0x2e8 build/pic32mz_ef_sk/production/_ext/2027382860/ipv4.o
                0x9d00e8d8                TCPIP_IPV4_PacketTransmit

.rodata         0x9d00ebc0      0x2e8
 .rodata        0x9d00ebc0      0x2e8 build/pic32mz_ef_sk/production/_ext/2135388491/sys_command.o
                0x9d00ee2c                sysConsoleApi

.text._DNS_ProcessPacket
                0x9d00eea8      0x2dc
 .text._DNS_ProcessPacket
                0x9d00eea8      0x2dc build/pic32mz_ef_sk/production/_ext/2027382860/dns.o

.text.TCPIP_IPV4_PacketFormatTx
                0x9d00f184      0x2d8
 .text.TCPIP_IPV4_PacketFormatTx
                0x9d00f184      0x2d8 build/pic32mz_ef_sk/production/_ext/2027382860/ipv4.o
                0x9d00f184                TCPIP_IPV4_PacketFormatTx

.text.CommandHelp
                0x9d00f45c      0x2d8
 .text.CommandHelp
                0x9d00f45c      0x2d8 build/pic32mz_ef_sk/production/_ext/2135388491/sys_command.o

.text.TCPIP_TCP_ArrayPut
                0x9d00f734      0x2cc
 .text.TCPIP_TCP_ArrayPut
                0x9d00f734      0x2cc build/pic32mz_ef_sk/production/_ext/2027382860/tcp.o
                0x9d00f734                TCPIP_TCP_ArrayPut

.text.TCPIP_IPV4_Task
                0x9d00fa00      0x2c0
 .text.TCPIP_IPV4_Task
                0x9d00fa00      0x2c0 build/pic32mz_ef_sk/production/_ext/2027382860/ipv4.o
                0x9d00fa00                TCPIP_IPV4_Task

.text._Command_MacInfo
                0x9d00fcc0      0x2bc
 .text._Command_MacInfo
                0x9d00fcc0      0x2bc build/pic32mz_ef_sk/production/_ext/2027382860/tcpip_commands.o

.text.malloc    0x9d00ff7c      0x28c
 .text.malloc   0x9d00ff7c      0x28c c:/program files (x86)/microchip/xc32/v2.30/bin/bin/../../lib/gcc/pic32mx/4.8.3/../../../../pic32mx/lib/fpu64\libc.a(malloc.o)
                0x9d00ff7c                malloc

.text.DRV_ETHMAC_PIC32MACPacketRx
                0x9d010208      0x264
 .text.DRV_ETHMAC_PIC32MACPacketRx
                0x9d010208      0x264 build/pic32mz_ef_sk/production/_ext/1314174413/drv_ethmac.o
                0x9d010208                DRV_ETHMAC_PIC32MACPacketRx

.text           0x9d01046c      0x25c
 .text          0x9d01046c      0x25c build/pic32mz_ef_sk/production/_ext/2027382860/tcpip_helper_c32.o
                0x9d01046c                TCPIP_Helper_htonl
                0x9d010478                TCPIP_Helper_htons
                0x9d010484                TCPIP_Helper_htonll
                0x9d010498                TCPIP_Helper_CalcIPChecksum

.text.CORE_TIMER_Handler
                0x9d0106c8      0x250
 .text.CORE_TIMER_Handler
                0x9d0106c8      0x250 build/pic32mz_ef_sk/production/_ext/942849350/interrupts.o
                0x9d0106c8                CORE_TIMER_Handler

.text.UART2_FAULT_Handler
                0x9d010918      0x250
 .text.UART2_FAULT_Handler
                0x9d010918      0x250 build/pic32mz_ef_sk/production/_ext/942849350/interrupts.o
                0x9d010918                UART2_FAULT_Handler

.text.UART2_RX_Handler
                0x9d010b68      0x250
 .text.UART2_RX_Handler
                0x9d010b68      0x250 build/pic32mz_ef_sk/production/_ext/942849350/interrupts.o
                0x9d010b68                UART2_RX_Handler

.text.UART2_TX_Handler
                0x9d010db8      0x250
 .text.UART2_TX_Handler
                0x9d010db8      0x250 build/pic32mz_ef_sk/production/_ext/942849350/interrupts.o
                0x9d010db8                UART2_TX_Handler

.text.ETHERNET_Handler
                0x9d011008      0x250
 .text.ETHERNET_Handler
                0x9d011008      0x250 build/pic32mz_ef_sk/production/_ext/942849350/interrupts.o
                0x9d011008                ETHERNET_Handler

.text.TCPIP_DNS_EntryQuery
                0x9d011258      0x23c
 .text.TCPIP_DNS_EntryQuery
                0x9d011258      0x23c build/pic32mz_ef_sk/production/_ext/2027382860/dns.o
                0x9d011258                TCPIP_DNS_EntryQuery

.text.TCPIP_DHCP_Initialize
                0x9d011494      0x238
 .text.TCPIP_DHCP_Initialize
                0x9d011494      0x238 build/pic32mz_ef_sk/production/_ext/2027382860/dhcp.o
                0x9d011494                TCPIP_DHCP_Initialize

.text._UDPOpen  0x9d0116cc      0x238
 .text._UDPOpen
                0x9d0116cc      0x238 build/pic32mz_ef_sk/production/_ext/2027382860/udp.o

.text._DHCPOptionHostName
                0x9d011904      0x234
 .text._DHCPOptionHostName
                0x9d011904      0x234 build/pic32mz_ef_sk/production/_ext/2027382860/dhcp.o

.text.TCPIP_UDP_Bind
                0x9d011b38      0x22c
 .text.TCPIP_UDP_Bind
                0x9d011b38      0x22c build/pic32mz_ef_sk/production/_ext/2027382860/udp.o
                0x9d011b38                TCPIP_UDP_Bind

.text._TCPIP_HEAP_Free
                0x9d011d64      0x228
 .text._TCPIP_HEAP_Free
                0x9d011d64      0x228 build/pic32mz_ef_sk/production/_ext/2027382860/tcpip_heap_internal.o

.text.DRV_ETHMAC_LibRxBuffersAppend
                0x9d011f8c      0x220
 .text.DRV_ETHMAC_LibRxBuffersAppend
                0x9d011f8c      0x220 build/pic32mz_ef_sk/production/_ext/1314174413/drv_ethmac_lib.o
                0x9d011f8c                DRV_ETHMAC_LibRxBuffersAppend

.text._DRV_ETHPHY_SetupPhaseDetect
                0x9d0121ac      0x208
 .text._DRV_ETHPHY_SetupPhaseDetect
                0x9d0121ac      0x208 build/pic32mz_ef_sk/production/_ext/138020607/drv_ethphy.o

.text._Command_StackOnOff
                0x9d0123b4      0x208
 .text._Command_StackOnOff
                0x9d0123b4      0x208 build/pic32mz_ef_sk/production/_ext/2027382860/tcpip_commands.o

.rodata         0x9d0125bc      0x204
 .rodata        0x9d0125bc      0x204 build/pic32mz_ef_sk/production/_ext/942849350/initialization.o
                0x9d0125bc                debugInit
                0x9d0125c8                sysCmdInit
                0x9d0125cc                sysConsole0Init
                0x9d0125d8                sysConsole0UARTInitData
                0x9d0125f0                sysConsole0UARTInterruptSources
                0x9d012604                sysConsole0UARTPlibAPI
                0x9d012618                sysTimeInitData
                0x9d012620                sysTimePlibAPI
                0x9d01263c                TCPIP_STACK_MODULE_CONFIG_TBL
                0x9d0126d8                TCPIP_HOSTS_CONFIGURATION
                0x9d012710                tcpipDNSClientInitData
                0x9d012728                tcpipMACPIC32INTInitData
                0x9d012748                tcpipPhyInitData
                0x9d01276c                tcpipICMPInitData
                0x9d012770                tcpipDHCPInitData
                0x9d012780                tcpipTCPInitData
                0x9d012788                tcpipUDPInitData
                0x9d012790                tcpipARPInitData

.text.TCPIP_DNS_ClientTask
                0x9d0127c0      0x1fc
 .text.TCPIP_DNS_ClientTask
                0x9d0127c0      0x1fc build/pic32mz_ef_sk/production/_ext/2027382860/dns.o
                0x9d0127c0                TCPIP_DNS_ClientTask

.text._Command_NetworkOnOff
                0x9d0129bc      0x1fc
 .text._Command_NetworkOnOff
                0x9d0129bc      0x1fc build/pic32mz_ef_sk/production/_ext/2027382860/tcpip_commands.o

.text._LoadNetworkConfig
                0x9d012bb8      0x1f4
 .text._LoadNetworkConfig
                0x9d012bb8      0x1f4 build/pic32mz_ef_sk/production/_ext/2027382860/tcpip_manager.o

.text.SYS_TIME_PLIBCallback
                0x9d012dac      0x1e8
 .text.SYS_TIME_PLIBCallback
                0x9d012dac      0x1e8 build/pic32mz_ef_sk/production/_ext/1658225107/sys_time.o

.text._Command_AddressService
                0x9d012f94      0x1e0
 .text._Command_AddressService
                0x9d012f94      0x1e0 build/pic32mz_ef_sk/production/_ext/2027382860/tcpip_commands.o

.text._Command_IPAddressSet
                0x9d013174      0x1e0
 .text._Command_IPAddressSet
                0x9d013174      0x1e0 build/pic32mz_ef_sk/production/_ext/2027382860/tcpip_commands.o

.text.TCPIP_UDP_OptionsGet
                0x9d013354      0x1e0
 .text.TCPIP_UDP_OptionsGet
                0x9d013354      0x1e0 build/pic32mz_ef_sk/production/_ext/2027382860/udp.o
                0x9d013354                TCPIP_UDP_OptionsGet

.text._DNS_IsNameResolved
                0x9d013534      0x1dc
 .text._DNS_IsNameResolved
                0x9d013534      0x1dc build/pic32mz_ef_sk/production/_ext/2027382860/dns.o

.text._Command_HeapInfo
                0x9d013710      0x1dc
 .text._Command_HeapInfo
                0x9d013710      0x1dc build/pic32mz_ef_sk/production/_ext/2027382860/tcpip_commands.o

.text._DNS_RESPONSE_HashEntryUpdate
                0x9d0138ec      0x1d8
 .text._DNS_RESPONSE_HashEntryUpdate
                0x9d0138ec      0x1d8 build/pic32mz_ef_sk/production/_ext/2027382860/dns.o

.text.DRV_ETHMAC_PIC32MACPacketTx
                0x9d013ac4      0x1d4
 .text.DRV_ETHMAC_PIC32MACPacketTx
                0x9d013ac4      0x1d4 build/pic32mz_ef_sk/production/_ext/1314174413/drv_ethmac.o
                0x9d013ac4                DRV_ETHMAC_PIC32MACPacketTx

.text.strtoul   0x9d013c98      0x1d4
 .text.strtoul  0x9d013c98      0x1d4 c:/program files (x86)/microchip/xc32/v2.30/bin/bin/../../lib/gcc/pic32mx/4.8.3/../../../../pic32mx/lib/fpu64\libc.a(strtol.o)
                0x9d013c98                strtoul

.text.scale     0x9d013e6c      0x1d4
 .text.scale    0x9d013e6c      0x1d4 c:/program files (x86)/microchip/xc32/v2.30/bin/bin/../../lib/gcc/pic32mx/4.8.3/../../../../pic32mx/lib/fpu64\libc.a(doprnt.o)

.text.TCPIP_Helper_StringToIPAddress
                0x9d014040      0x1cc
 .text.TCPIP_Helper_StringToIPAddress
                0x9d014040      0x1cc build/pic32mz_ef_sk/production/_ext/2027382860/tcpip_helpers.o
                0x9d014040                TCPIP_Helper_StringToIPAddress

.text.TCPIP_ARP_EntryRemoveNet
                0x9d01420c      0x1c8
 .text.TCPIP_ARP_EntryRemoveNet
                0x9d01420c      0x1c8 build/pic32mz_ef_sk/production/_ext/2027382860/arp.o
                0x9d01420c                TCPIP_ARP_EntryRemoveNet

.text.TCPIP_UDP_Deinitialize
                0x9d0143d4      0x1c8
 .text.TCPIP_UDP_Deinitialize
                0x9d0143d4      0x1c8 build/pic32mz_ef_sk/production/_ext/2027382860/udp.o
                0x9d0143d4                TCPIP_UDP_Deinitialize

.text._DRV_MIIM_ClientDeallocate
                0x9d01459c      0x1c4
 .text._DRV_MIIM_ClientDeallocate
                0x9d01459c      0x1c4 build/pic32mz_ef_sk/production/_ext/1761147401/drv_miim.o

.text.DRV_ETHMAC_LibRxAcknowledgeBuffer
                0x9d014760      0x1c0
 .text.DRV_ETHMAC_LibRxAcknowledgeBuffer
                0x9d014760      0x1c0 build/pic32mz_ef_sk/production/_ext/1314174413/drv_ethmac_lib.o
                0x9d014760                DRV_ETHMAC_LibRxAcknowledgeBuffer

.text._EthAckPacket
                0x9d014920      0x1bc
 .text._EthAckPacket
                0x9d014920      0x1bc build/pic32mz_ef_sk/production/_ext/1314174413/drv_ethmac_lib.o

.text.TCPIP_TCP_ArrayGet
                0x9d014adc      0x1bc
 .text.TCPIP_TCP_ArrayGet
                0x9d014adc      0x1bc build/pic32mz_ef_sk/production/_ext/2027382860/tcp.o
                0x9d014adc                TCPIP_TCP_ArrayGet

.text._DRV_ETHPHY_SetupPhaseReset
                0x9d014c98      0x1b4
 .text._DRV_ETHPHY_SetupPhaseReset
                0x9d014c98      0x1b4 build/pic32mz_ef_sk/production/_ext/138020607/drv_ethphy.o

.text._DNS_Resolve
                0x9d014e4c      0x1b4
 .text._DNS_Resolve
                0x9d014e4c      0x1b4 build/pic32mz_ef_sk/production/_ext/2027382860/dns.o

.text._DRV_MIIM_StartOp
                0x9d015000      0x1ac
 .text._DRV_MIIM_StartOp
                0x9d015000      0x1ac build/pic32mz_ef_sk/production/_ext/1761147401/drv_miim.o

.text.TCPIP_UDP_ArrayGet
                0x9d0151ac      0x1ac
 .text.TCPIP_UDP_ArrayGet
                0x9d0151ac      0x1ac build/pic32mz_ef_sk/production/_ext/2027382860/udp.o
                0x9d0151ac                TCPIP_UDP_ArrayGet

.text._DRV_ETHMAC_AddRxBuffers
                0x9d015358      0x1a8
 .text._DRV_ETHMAC_AddRxBuffers
                0x9d015358      0x1a8 build/pic32mz_ef_sk/production/_ext/1314174413/drv_ethmac.o

.text.DRV_MIIM_Setup
                0x9d015500      0x1a4
 .text.DRV_MIIM_Setup
                0x9d015500      0x1a4 build/pic32mz_ef_sk/production/_ext/1761147401/drv_miim.o
                0x9d015500                DRV_MIIM_Setup

.text._DNS_GetAddresses
                0x9d0156a4      0x1a4
 .text._DNS_GetAddresses
                0x9d0156a4      0x1a4 build/pic32mz_ef_sk/production/_ext/2027382860/dns.o

.text           0x9d015848      0x1a0
 .text          0x9d015848      0x1a0 c:/program files (x86)/microchip/xc32/v2.30/bin/bin/../../lib/gcc/pic32mx/4.8.3/../../../../pic32mx/lib/fpu64\libpic32.a(strcpy.o)
                0x9d015848                strcpy

.text._EthAppendBusyList
                0x9d0159e8      0x19c
 .text._EthAppendBusyList
                0x9d0159e8      0x19c build/pic32mz_ef_sk/production/_ext/1314174413/drv_ethmac_lib.o

.text.DRV_EXTPHY_MDIXConfigure
                0x9d015b84      0x19c
 .text.DRV_EXTPHY_MDIXConfigure
                0x9d015b84      0x19c build/pic32mz_ef_sk/production/_ext/138020607/drv_extphy_smsc8740.o

.text.strtol    0x9d015d20      0x19c
 .text.strtol   0x9d015d20      0x19c c:/program files (x86)/microchip/xc32/v2.30/bin/bin/../../lib/gcc/pic32mx/4.8.3/../../../../pic32mx/lib/fpu64\libc.a(strtol.o)
                0x9d015d20                strtol

.text._ARPProbeAddress
                0x9d015ebc      0x198
 .text._ARPProbeAddress
                0x9d015ebc      0x198 build/pic32mz_ef_sk/production/_ext/2027382860/arp.o

.text.DRV_ETHMAC_LibRxGetPacket
                0x9d016054      0x194
 .text.DRV_ETHMAC_LibRxGetPacket
                0x9d016054      0x194 build/pic32mz_ef_sk/production/_ext/1314174413/drv_ethmac_lib.o
                0x9d016054                DRV_ETHMAC_LibRxGetPacket

.text._sbrk_init
                0x9d0161e8      0x194
 .text._sbrk_init
                0x9d0161e8      0x194 c:/program files (x86)/microchip/xc32/v2.30/bin/bin/../../lib/gcc/pic32mx/4.8.3/../../../../pic32mx/lib/fpu64\libpic32.a(sbrk.o)
                0x9d0161e8                _sbrk_init

.text._Command_DefaultInterfaceSet
                0x9d01637c      0x188
 .text._Command_DefaultInterfaceSet
                0x9d01637c      0x188 build/pic32mz_ef_sk/production/_ext/2027382860/tcpip_commands.o

.text._TCPIP_HEAP_Malloc
                0x9d016504      0x188
 .text._TCPIP_HEAP_Malloc
                0x9d016504      0x188 build/pic32mz_ef_sk/production/_ext/2027382860/tcpip_heap_internal.o

.text.DRV_ETHMAC_PIC32MACTasks
                0x9d01668c      0x184
 .text.DRV_ETHMAC_PIC32MACTasks
                0x9d01668c      0x184 build/pic32mz_ef_sk/production/_ext/1314174413/drv_ethmac.o
                0x9d01668c                DRV_ETHMAC_PIC32MACTasks

.text._Tcpv4TxAckFnc
                0x9d016810      0x180
 .text._Tcpv4TxAckFnc
                0x9d016810      0x180 build/pic32mz_ef_sk/production/_ext/2027382860/tcp.o

.text.DRV_ETHMAC_LibTxSendPacket
                0x9d016990      0x178
 .text.DRV_ETHMAC_LibTxSendPacket
                0x9d016990      0x178 build/pic32mz_ef_sk/production/_ext/1314174413/drv_ethmac_lib.o
                0x9d016990                DRV_ETHMAC_LibTxSendPacket

.text._DRV_PHY_SMITransferDo
                0x9d016b08      0x178
 .text._DRV_PHY_SMITransferDo
                0x9d016b08      0x178 build/pic32mz_ef_sk/production/_ext/138020607/drv_ethphy.o

.text._DRV_ETHPHY_NegResultPhase_ANAD
                0x9d016c80      0x178
 .text._DRV_ETHPHY_NegResultPhase_ANAD
                0x9d016c80      0x178 build/pic32mz_ef_sk/production/_ext/138020607/drv_ethphy.o

.text.DRV_EXTPHY_MIIConfigure
                0x9d016df8      0x178
 .text.DRV_EXTPHY_MIIConfigure
                0x9d016df8      0x178 build/pic32mz_ef_sk/production/_ext/138020607/drv_extphy_smsc8740.o

.text.TCPIP_TCP_Initialize
                0x9d016f70      0x178
 .text.TCPIP_TCP_Initialize
                0x9d016f70      0x178 build/pic32mz_ef_sk/production/_ext/2027382860/tcp.o
                0x9d016f70                TCPIP_TCP_Initialize

.text.SYS_TIME_HwTimerCompareUpdate
                0x9d0170e8      0x174
 .text.SYS_TIME_HwTimerCompareUpdate
                0x9d0170e8      0x174 build/pic32mz_ef_sk/production/_ext/1658225107/sys_time.o

.text           0x9d01725c      0x2d0
 .text          0x9d01725c      0x168 c:/program files (x86)/microchip/xc32/v2.30/bin/bin/../../lib/gcc/pic32mx/4.8.3/../../../../pic32mx/lib/fpu64\libpic32.a(memcpy.o)
                0x9d01725c                memcpy
 .text          0x9d0173c4      0x168 c:/program files (x86)/microchip/xc32/v2.30/bin/bin/../../lib/gcc/pic32mx/4.8.3/../../../../pic32mx/lib/fpu64\libpic32.a(strlen.o)
                0x9d0173c4                strlen

.text._DHCPStartOperation
                0x9d01752c      0x164
 .text._DHCPStartOperation
                0x9d01752c      0x164 build/pic32mz_ef_sk/production/_ext/2027382860/dhcp.o

.text._DHCPProcessReceiveData
                0x9d017690      0x164
 .text._DHCPProcessReceiveData
                0x9d017690      0x164 build/pic32mz_ef_sk/production/_ext/2027382860/dhcp.o

.text.modbus_rhr_answer
                0x9d0177f4      0x164
 .text.modbus_rhr_answer
                0x9d0177f4      0x164 build/pic32mz_ef_sk/production/_ext/108032392/dialtek_modbus.o
                0x9d0177f4                modbus_rhr_answer

.text.modbus_rir_answer
                0x9d017958      0x164
 .text.modbus_rir_answer
                0x9d017958      0x164 build/pic32mz_ef_sk/production/_ext/108032392/dialtek_modbus.o
                0x9d017958                modbus_rir_answer

.text.TCPIP_ICMP_Task
                0x9d017abc      0x160
 .text.TCPIP_ICMP_Task
                0x9d017abc      0x160 build/pic32mz_ef_sk/production/_ext/2027382860/icmp.o
                0x9d017abc                TCPIP_ICMP_Task

.text.TCPIP_IPV4_SelectSourceInterface
                0x9d017c1c      0x160
 .text.TCPIP_IPV4_SelectSourceInterface
                0x9d017c1c      0x160 build/pic32mz_ef_sk/production/_ext/2027382860/ipv4.o
                0x9d017c1c                TCPIP_IPV4_SelectSourceInterface

.rodata         0x9d017d80      0x160
 .rodata        0x9d017d80      0x160 c:/program files (x86)/microchip/xc32/v2.30/bin/bin/../../lib/gcc/pic32mx/4.8.3/../../../../pic32mx/lib/fpu64\libc.a(ldpowers.o)
                0x9d017d80                _npowers_
                0x9d017e30                _powers_

.text.DRV_ETHMAC_PIC32MACEventMaskSet
                0x9d017ee0      0x158
 .text.DRV_ETHMAC_PIC32MACEventMaskSet
                0x9d017ee0      0x158 build/pic32mz_ef_sk/production/_ext/1314174413/drv_ethmac.o
                0x9d017ee0                DRV_ETHMAC_PIC32MACEventMaskSet

.text.TCPIP_HEAP_CreateInternal
                0x9d018038      0x158
 .text.TCPIP_HEAP_CreateInternal
                0x9d018038      0x158 build/pic32mz_ef_sk/production/_ext/2027382860/tcpip_heap_internal.o
                0x9d018038                TCPIP_HEAP_CreateInternal

.text.TCPIP_UDP_Initialize
                0x9d018190      0x158
 .text.TCPIP_UDP_Initialize
                0x9d018190      0x158 build/pic32mz_ef_sk/production/_ext/2027382860/udp.o
                0x9d018190                TCPIP_UDP_Initialize

.rodata         0x9d0182e8      0x158
 .rodata        0x9d0182e8      0x158 build/pic32mz_ef_sk/production/_ext/942849350/exceptions.o

.text._ARPSendIfPkt
                0x9d018440      0x154
 .text._ARPSendIfPkt
                0x9d018440      0x154 build/pic32mz_ef_sk/production/_ext/2027382860/arp.o

.text.TCPIP_Helper_IPv6AddressToString
                0x9d018594      0x150
 .text.TCPIP_Helper_IPv6AddressToString
                0x9d018594      0x150 build/pic32mz_ef_sk/production/_ext/2027382860/tcpip_helpers.o
                0x9d018594                TCPIP_Helper_IPv6AddressToString

.text.modbus_rx_CRC_check
                0x9d0186e4      0x150
 .text.modbus_rx_CRC_check
                0x9d0186e4      0x150 build/pic32mz_ef_sk/production/_ext/108032392/dialtek_modbus.o
                0x9d0186e4                modbus_rx_CRC_check

.text._TcpCloseSocket
                0x9d018834      0x14c
 .text._TcpCloseSocket
                0x9d018834      0x14c build/pic32mz_ef_sk/production/_ext/2027382860/tcp.o

.text._TcpDisconnect
                0x9d018980      0x14c
 .text._TcpDisconnect
                0x9d018980      0x14c build/pic32mz_ef_sk/production/_ext/2027382860/tcp.o

.text.DRV_ETHPHY_Setup
                0x9d018acc      0x148
 .text.DRV_ETHPHY_Setup
                0x9d018acc      0x148 build/pic32mz_ef_sk/production/_ext/138020607/drv_ethphy.o
                0x9d018acc                DRV_ETHPHY_Setup

.text._DRV_ETHPHY_NegCompletePhaseAN_Restart
                0x9d018c14      0x148
 .text._DRV_ETHPHY_NegCompletePhaseAN_Restart
                0x9d018c14      0x148 build/pic32mz_ef_sk/production/_ext/138020607/drv_ethphy.o

.text.DRV_MIIM_OperationResult
                0x9d018d5c      0x148
 .text.DRV_MIIM_OperationResult
                0x9d018d5c      0x148 build/pic32mz_ef_sk/production/_ext/1761147401/drv_miim.o
                0x9d018d5c                DRV_MIIM_OperationResult

.text.TCPIP_STACK_NetUp
                0x9d018ea4      0x148
 .text.TCPIP_STACK_NetUp
                0x9d018ea4      0x148 build/pic32mz_ef_sk/production/_ext/2027382860/tcpip_manager.o
                0x9d018ea4                TCPIP_STACK_NetUp

.text.fputc     0x9d018fec      0x144
 .text.fputc    0x9d018fec      0x144 c:/program files (x86)/microchip/xc32/v2.30/bin/bin/../../lib/gcc/pic32mx/4.8.3/../../../../pic32mx/lib/fpu64\libc.a(_fputc_simple.o)
                0x9d018fec                fputc

.text.DisplayNodeMsg
                0x9d019130      0x140
 .text.DisplayNodeMsg
                0x9d019130      0x140 build/pic32mz_ef_sk/production/_ext/2135388491/sys_command.o

.rodata         0x9d019270      0x13c
 .rodata        0x9d019270      0x13c build/pic32mz_ef_sk/production/_ext/1314174413/drv_ethmac.o
                0x9d019354                DRV_ETHMAC_PIC32MACObject

.text._DRV_ETHPHY_SetupPhaseIdle
                0x9d0193ac      0x13c
 .text._DRV_ETHPHY_SetupPhaseIdle
                0x9d0193ac      0x13c build/pic32mz_ef_sk/production/_ext/138020607/drv_ethphy.o

.text._UDPv4TxAckFnc
                0x9d0194e8      0x13c
 .text._UDPv4TxAckFnc
                0x9d0194e8      0x13c build/pic32mz_ef_sk/production/_ext/2027382860/udp.o

.text.SYS_TIME_Initialize
                0x9d019624      0x13c
 .text.SYS_TIME_Initialize
                0x9d019624      0x13c build/pic32mz_ef_sk/production/_ext/1658225107/sys_time.o
                0x9d019624                SYS_TIME_Initialize

.text.TCPIP_STACK_KillStack
                0x9d019760      0x138
 .text.TCPIP_STACK_KillStack
                0x9d019760      0x138 build/pic32mz_ef_sk/production/_ext/2027382860/tcpip_manager.o

.text.TCPIP_TCP_Deinitialize
                0x9d019898      0x134
 .text.TCPIP_TCP_Deinitialize
                0x9d019898      0x134 build/pic32mz_ef_sk/production/_ext/2027382860/tcp.o
                0x9d019898                TCPIP_TCP_Deinitialize

.text._Command_GatewayAddressSet
                0x9d0199cc      0x134
 .text._Command_GatewayAddressSet
                0x9d0199cc      0x134 build/pic32mz_ef_sk/production/_ext/2027382860/tcpip_commands.o

.text.DRV_ETHMAC_PIC32MACRxFilterHashTableEntrySet
                0x9d019b00      0x130
 .text.DRV_ETHMAC_PIC32MACRxFilterHashTableEntrySet
                0x9d019b00      0x130 build/pic32mz_ef_sk/production/_ext/1314174413/drv_ethmac.o
                0x9d019b00                DRV_ETHMAC_PIC32MACRxFilterHashTableEntrySet

.text.DRV_ETHMAC_LibDescriptorsPoolAdd
                0x9d019c30      0x130
 .text.DRV_ETHMAC_LibDescriptorsPoolAdd
                0x9d019c30      0x130 build/pic32mz_ef_sk/production/_ext/1314174413/drv_ethmac_lib.o
                0x9d019c30                DRV_ETHMAC_LibDescriptorsPoolAdd

.text._ARPDeleteResources
                0x9d019d60      0x130
 .text._ARPDeleteResources
                0x9d019d60      0x130 build/pic32mz_ef_sk/production/_ext/2027382860/arp.o

.text._Command_MACAddressSet
                0x9d019e90      0x130
 .text._Command_MACAddressSet
                0x9d019e90      0x130 build/pic32mz_ef_sk/production/_ext/2027382860/tcpip_commands.o

.text.SYS_TIME_TimerObjectCreate
                0x9d019fc0      0x130
 .text.SYS_TIME_TimerObjectCreate
                0x9d019fc0      0x130 build/pic32mz_ef_sk/production/_ext/1658225107/sys_time.o

.text.DRV_ETHMAC_LibInit
                0x9d01a0f0      0x12c
 .text.DRV_ETHMAC_LibInit
                0x9d01a0f0      0x12c build/pic32mz_ef_sk/production/_ext/1314174413/drv_ethmac_lib.o
                0x9d01a0f0                DRV_ETHMAC_LibInit

.text.APP_Tasks
                0x9d01a21c      0x12c
 .text.APP_Tasks
                0x9d01a21c      0x12c build/pic32mz_ef_sk/production/_ext/1360937237/app.o
                0x9d01a21c                APP_Tasks

.text._flsbuf   0x9d01a348      0x12c
 .text._flsbuf  0x9d01a348      0x12c c:/program files (x86)/microchip/xc32/v2.30/bin/bin/../../lib/gcc/pic32mx/4.8.3/../../../../pic32mx/lib/fpu64\libc.a(_flsbuf_simple.o)
                0x9d01a348                _flsbuf

.text.DRV_MIIM_Open
                0x9d01a474      0x128
 .text.DRV_MIIM_Open
                0x9d01a474      0x128 build/pic32mz_ef_sk/production/_ext/1761147401/drv_miim.o
                0x9d01a474                DRV_MIIM_Open

.text.fround    0x9d01a59c      0x128
 .text.fround   0x9d01a59c      0x128 c:/program files (x86)/microchip/xc32/v2.30/bin/bin/../../lib/gcc/pic32mx/4.8.3/../../../../pic32mx/lib/fpu64\libc.a(doprnt.o)

.text._OAHashFindBkt
                0x9d01a6c4      0x124
 .text._OAHashFindBkt
                0x9d01a6c4      0x124 build/pic32mz_ef_sk/production/_ext/2027382860/oahash.o

.text.TCPIP_Helper_StringToMACAddress
                0x9d01a7e8      0x124
 .text.TCPIP_Helper_StringToMACAddress
                0x9d01a7e8      0x124 build/pic32mz_ef_sk/production/_ext/2027382860/tcpip_helpers.o
                0x9d01a7e8                TCPIP_Helper_StringToMACAddress

.rodata         0x9d01a90c      0x120
 .rodata        0x9d01a90c      0x120 build/pic32mz_ef_sk/production/_ext/138020607/drv_ethphy.o
                0x9d01a928                DRV_ETHPHY_OBJECT_BASE_Default

.text.TCPIP_IPV4_MacPacketSwitchTxToRx
                0x9d01aa2c      0x120
 .text.TCPIP_IPV4_MacPacketSwitchTxToRx
                0x9d01aa2c      0x120 build/pic32mz_ef_sk/production/_ext/2027382860/ipv4.o
                0x9d01aa2c                TCPIP_IPV4_MacPacketSwitchTxToRx

.text.TCPIP_Helper_PacketCopy
                0x9d01ab4c      0x120
 .text.TCPIP_Helper_PacketCopy
                0x9d01ab4c      0x120 build/pic32mz_ef_sk/production/_ext/2027382860/tcpip_helpers.o
                0x9d01ab4c                TCPIP_Helper_PacketCopy

.text           0x9d01ac6c      0x120
 .text          0x9d01ac6c      0x120 c:/program files (x86)/microchip/xc32/v2.30/bin/bin/../../lib/gcc/pic32mx/4.8.3/../../../../pic32mx/lib/fpu64\libpic32.a(strcmp.o)
                0x9d01ac6c                strcmp

.text.DRV_ETHMAC_PIC32MACStatisticsGet
                0x9d01ad8c      0x11c
 .text.DRV_ETHMAC_PIC32MACStatisticsGet
                0x9d01ad8c      0x11c build/pic32mz_ef_sk/production/_ext/1314174413/drv_ethmac.o
                0x9d01ad8c                DRV_ETHMAC_PIC32MACStatisticsGet

.text._GetMaxSegSizeOption
                0x9d01aea8      0x11c
 .text._GetMaxSegSizeOption
                0x9d01aea8      0x11c build/pic32mz_ef_sk/production/_ext/2027382860/tcp.o

.text.TCPIP_ARP_IsResolved
                0x9d01afc4      0x11c
 .text.TCPIP_ARP_IsResolved
                0x9d01afc4      0x11c build/pic32mz_ef_sk/production/_ext/2027382860/arp.o
                0x9d01afc4                TCPIP_ARP_IsResolved

.text.TCPIP_IPV4_ArpHandler
                0x9d01b0e0      0x11c
 .text.TCPIP_IPV4_ArpHandler
                0x9d01b0e0      0x11c build/pic32mz_ef_sk/production/_ext/2027382860/ipv4.o

.text._MACDeinit
                0x9d01b1fc      0x118
 .text._MACDeinit
                0x9d01b1fc      0x118 build/pic32mz_ef_sk/production/_ext/1314174413/drv_ethmac.o

.text._DRV_ETHPHY_SetupPhaseNegotiate_SubPhase3
                0x9d01b314      0x118
 .text._DRV_ETHPHY_SetupPhaseNegotiate_SubPhase3
                0x9d01b314      0x118 build/pic32mz_ef_sk/production/_ext/138020607/drv_ethphy.o

.text._DHCPSetLeaseTimeParams
                0x9d01b42c      0x118
 .text._DHCPSetLeaseTimeParams
                0x9d01b42c      0x118 build/pic32mz_ef_sk/production/_ext/2027382860/dhcp.o

.text._Command_PrimaryDNSAddressSet
                0x9d01b544      0x114
 .text._Command_PrimaryDNSAddressSet
                0x9d01b544      0x114 build/pic32mz_ef_sk/production/_ext/2027382860/tcpip_commands.o

.text.TCPIP_Helper_PacketChecksum
                0x9d01b658      0x114
 .text.TCPIP_Helper_PacketChecksum
                0x9d01b658      0x114 build/pic32mz_ef_sk/production/_ext/2027382860/tcpip_helpers.o
                0x9d01b658                TCPIP_Helper_PacketChecksum

.text.SYS_TIME_AddToList
                0x9d01b76c      0x114
 .text.SYS_TIME_AddToList
                0x9d01b76c      0x114 build/pic32mz_ef_sk/production/_ext/1658225107/sys_time.o

.text.TCPIP_ARP_EntryQuery
                0x9d01b880      0x110
 .text.TCPIP_ARP_EntryQuery
                0x9d01b880      0x110 build/pic32mz_ef_sk/production/_ext/2027382860/arp.o
                0x9d01b880                TCPIP_ARP_EntryQuery

.text._MacRxPacketAck
                0x9d01b990      0x10c
 .text._MacRxPacketAck
                0x9d01b990      0x10c build/pic32mz_ef_sk/production/_ext/1314174413/drv_ethmac.o

.text.TCPIP_DHCP_InfoGet
                0x9d01ba9c      0x10c
 .text.TCPIP_DHCP_InfoGet
                0x9d01ba9c      0x10c build/pic32mz_ef_sk/production/_ext/2027382860/dhcp.o
                0x9d01ba9c                TCPIP_DHCP_InfoGet

.text.SYS_CMD_ADDGRP
                0x9d01bba8      0x10c
 .text.SYS_CMD_ADDGRP
                0x9d01bba8      0x10c build/pic32mz_ef_sk/production/_ext/2135388491/sys_command.o
                0x9d01bba8                SYS_CMD_ADDGRP

.text._DRV_ETHPHY_ResetPhaseRead
                0x9d01bcb4      0x108
 .text._DRV_ETHPHY_ResetPhaseRead
                0x9d01bcb4      0x108 build/pic32mz_ef_sk/production/_ext/138020607/drv_ethphy.o

.text._TcpSocketSetIdleState
                0x9d01bdbc      0x108
 .text._TcpSocketSetIdleState
                0x9d01bdbc      0x108 build/pic32mz_ef_sk/production/_ext/2027382860/tcp.o

.text._DHCPEnable
                0x9d01bec4      0x108
 .text._DHCPEnable
                0x9d01bec4      0x108 build/pic32mz_ef_sk/production/_ext/2027382860/dhcp.o

.text._UDPv4AllocateSktTxBuffer
                0x9d01bfcc      0x108
 .text._UDPv4AllocateSktTxBuffer
                0x9d01bfcc      0x108 build/pic32mz_ef_sk/production/_ext/2027382860/udp.o

.text.Console_UART_Read
                0x9d01c0d4      0x108
 .text.Console_UART_Read
                0x9d01c0d4      0x108 build/pic32mz_ef_sk/production/_ext/1702866625/sys_console_uart.o
                0x9d01c0d4                Console_UART_Read

.text.Console_UART_Write
                0x9d01c1dc      0x108
 .text.Console_UART_Write
                0x9d01c1dc      0x108 build/pic32mz_ef_sk/production/_ext/1702866625/sys_console_uart.o
                0x9d01c1dc                Console_UART_Write

.rodata         0x9d01c2e8      0x20c
 .rodata        0x9d01c2e8      0x108 c:/program files (x86)/microchip/xc32/v2.30/bin/bin/../../lib/gcc/pic32mx/4.8.3/../../../../pic32mx/lib/fpu64\libc.a(doprnt.o)
 .rodata        0x9d01c3f0      0x104 c:/program files (x86)/microchip/xc32/v2.30/bin/bin/../../lib/gcc/pic32mx/4.8.3/../../../../pic32mx/lib/fpu64\libc.a(ctype.o)
                0x9d01c3f0                _ctype

.text.DRV_ETHMAC_Tasks_ISR
                0x9d01c4f4      0x100
 .text.DRV_ETHMAC_Tasks_ISR
                0x9d01c4f4      0x100 build/pic32mz_ef_sk/production/_ext/1314174413/drv_ethmac.o
                0x9d01c4f4                DRV_ETHMAC_Tasks_ISR

.text.DRV_MIIM_Initialize
                0x9d01c5f4      0x100
 .text.DRV_MIIM_Initialize
                0x9d01c5f4      0x100 build/pic32mz_ef_sk/production/_ext/1761147401/drv_miim.o
                0x9d01c5f4                DRV_MIIM_Initialize

.text._DNS_ValidateIf
                0x9d01c6f4      0x100
 .text._DNS_ValidateIf
                0x9d01c6f4      0x100 build/pic32mz_ef_sk/production/_ext/2027382860/dns.o

.text.TCPIP_TCP_ServerOpen
                0x9d01c7f4       0xfc
 .text.TCPIP_TCP_ServerOpen
                0x9d01c7f4       0xfc build/pic32mz_ef_sk/production/_ext/2027382860/tcp.o
                0x9d01c7f4                TCPIP_TCP_ServerOpen

.text.SYS_Initialize
                0x9d01c8f0       0xfc
 .text.SYS_Initialize
                0x9d01c8f0       0xfc build/pic32mz_ef_sk/production/_ext/942849350/initialization.o
                0x9d01c8f0                SYS_Initialize

.text.DRV_ETHMAC_LibMACOpen
                0x9d01c9ec       0xf8
 .text.DRV_ETHMAC_LibMACOpen
                0x9d01c9ec       0xf8 build/pic32mz_ef_sk/production/_ext/1314174413/drv_ethmac_lib.o
                0x9d01c9ec                DRV_ETHMAC_LibMACOpen

.text._UDPsetPacketInfo
                0x9d01cae4       0xf8
 .text._UDPsetPacketInfo
                0x9d01cae4       0xf8 build/pic32mz_ef_sk/production/_ext/2027382860/udp.o

.text.TCPIP_UDP_Disconnect
                0x9d01cbdc       0xf8
 .text.TCPIP_UDP_Disconnect
                0x9d01cbdc       0xf8 build/pic32mz_ef_sk/production/_ext/2027382860/udp.o
                0x9d01cbdc                TCPIP_UDP_Disconnect

.text.Console_UART_ResourceLock
                0x9d01ccd4       0xf8
 .text.Console_UART_ResourceLock
                0x9d01ccd4       0xf8 build/pic32mz_ef_sk/production/_ext/1702866625/sys_console_uart.o

.text.SYS_DEBUG_Print
                0x9d01cdcc       0xf8
 .text.SYS_DEBUG_Print
                0x9d01cdcc       0xf8 build/pic32mz_ef_sk/production/_ext/57023747/sys_debug.o
                0x9d01cdcc                SYS_DEBUG_Print

.rodata         0x9d01cec4       0xf8
 .rodata        0x9d01cec4       0xf8 build/pic32mz_ef_sk/production/_ext/1360937237/tcp_app.o

.text._TCPIP_StackSyncFunction
                0x9d01cfbc       0xf4
 .text._TCPIP_StackSyncFunction
                0x9d01cfbc       0xf4 build/pic32mz_ef_sk/production/_ext/2027382860/tcpip_manager.o

.text._DHCPClientClose
                0x9d000010       0xf0
 .text._DHCPClientClose
                0x9d000010       0xf0 build/pic32mz_ef_sk/production/_ext/2027382860/dhcp.o

.text.DRV_ETHMAC_PIC32MACProcess
                0x9d01d0b0       0xec
 .text.DRV_ETHMAC_PIC32MACProcess
                0x9d01d0b0       0xec build/pic32mz_ef_sk/production/_ext/1314174413/drv_ethmac.o
                0x9d01d0b0                DRV_ETHMAC_PIC32MACProcess

.text._DRV_ETHPHY_SetupPhaseNegotiate_SubPhase0
                0x9d01d19c       0xec
 .text._DRV_ETHPHY_SetupPhaseNegotiate_SubPhase0
                0x9d01d19c       0xec build/pic32mz_ef_sk/production/_ext/138020607/drv_ethphy.o

.text._DRV_ETHPHY_ResetPhaseWrite
                0x9d01d288       0xec
 .text._DRV_ETHPHY_ResetPhaseWrite
                0x9d01d288       0xec build/pic32mz_ef_sk/production/_ext/138020607/drv_ethphy.o

.text.TCPIP_IPV4_DeInitialize
                0x9d01d374       0xec
 .text.TCPIP_IPV4_DeInitialize
                0x9d01d374       0xec build/pic32mz_ef_sk/production/_ext/2027382860/ipv4.o
                0x9d01d374                TCPIP_IPV4_DeInitialize

.text.UART2_RX_InterruptHandler
                0x9d01d460       0xec
 .text.UART2_RX_InterruptHandler
                0x9d01d460       0xec build/pic32mz_ef_sk/production/_ext/309316908/plib_uart2.o
                0x9d01d460                UART2_RX_InterruptHandler

.text.SYS_CMDIO_ADD
                0x9d01d54c       0xec
 .text.SYS_CMDIO_ADD
                0x9d01d54c       0xec build/pic32mz_ef_sk/production/_ext/2135388491/sys_command.o
                0x9d01d54c                SYS_CMDIO_ADD

.text._DRV_ETHPHY_NegCompletePhaseRead2
                0x9d01d638       0xe8
 .text._DRV_ETHPHY_NegCompletePhaseRead2
                0x9d01d638       0xe8 build/pic32mz_ef_sk/production/_ext/138020607/drv_ethphy.o

.text._DHCPPacketFilter
                0x9d01d720       0xe8
 .text._DHCPPacketFilter
                0x9d01d720       0xe8 build/pic32mz_ef_sk/production/_ext/2027382860/dhcp.o

.text.modbus_wsr_answer
                0x9d01d808       0xe8
 .text.modbus_wsr_answer
                0x9d01d808       0xe8 build/pic32mz_ef_sk/production/_ext/108032392/dialtek_modbus.o
                0x9d01d808                modbus_wsr_answer

.text.TCPIP_OAHASH_EntryLookup
                0x9d01d8f0       0xe0
 .text.TCPIP_OAHASH_EntryLookup
                0x9d01d8f0       0xe0 build/pic32mz_ef_sk/production/_ext/2027382860/oahash.o
                0x9d01d8f0                TCPIP_OAHASH_EntryLookup

.text.TCPIP_STACK_BringNetDown
                0x9d01d9d0       0xe0
 .text.TCPIP_STACK_BringNetDown
                0x9d01d9d0       0xe0 build/pic32mz_ef_sk/production/_ext/2027382860/tcpip_manager.o

.text._TcpAbort
                0x9d01dab0       0xdc
 .text._TcpAbort
                0x9d01dab0       0xdc build/pic32mz_ef_sk/production/_ext/2027382860/tcp.o

.text.TCPIP_DHCP_ConnectionHandler
                0x9d01db8c       0xdc
 .text.TCPIP_DHCP_ConnectionHandler
                0x9d01db8c       0xdc build/pic32mz_ef_sk/production/_ext/2027382860/dhcp.o
                0x9d01db8c                TCPIP_DHCP_ConnectionHandler

.text._Command_BIOSNameSet
                0x9d01dc68       0xdc
 .text._Command_BIOSNameSet
                0x9d01dc68       0xdc build/pic32mz_ef_sk/production/_ext/2027382860/tcpip_commands.o

.text.modbus_get_poll
                0x9d01dd44       0xdc
 .text.modbus_get_poll
                0x9d01dd44       0xdc build/pic32mz_ef_sk/production/_ext/108032392/dialtek_modbus.o
                0x9d01dd44                modbus_get_poll

.text.general_exception
                0x9d01de20       0xdc
 .text.general_exception
                0x9d01de20       0xdc c:/program files (x86)/microchip/xc32/v2.30/bin/bin/../../lib/gcc/pic32mx/4.8.3/../../../../pic32mx/lib/fpu64\libpic32.a(general-exception.o)
                0x9d01de20                _general_exception_context

.text._ARPUpdateEntry
                0x9d01defc       0xd8
 .text._ARPUpdateEntry
                0x9d01defc       0xd8 build/pic32mz_ef_sk/production/_ext/2027382860/arp.o

.text.TCPIP_ARP_CacheEntriesNoGet
                0x9d01dfd4       0xd8
 .text.TCPIP_ARP_CacheEntriesNoGet
                0x9d01dfd4       0xd8 build/pic32mz_ef_sk/production/_ext/2027382860/arp.o
                0x9d01dfd4                TCPIP_ARP_CacheEntriesNoGet

.text._TCPIP_PKT_PacketAlloc
                0x9d01e0ac       0xd8
 .text._TCPIP_PKT_PacketAlloc
                0x9d01e0ac       0xd8 build/pic32mz_ef_sk/production/_ext/2027382860/tcpip_packet.o
                0x9d01e0ac                _TCPIP_PKT_PacketAlloc

.text.UART2_TX_InterruptHandler
                0x9d01e184       0xd8
 .text.UART2_TX_InterruptHandler
                0x9d01e184       0xd8 build/pic32mz_ef_sk/production/_ext/309316908/plib_uart2.o
                0x9d01e184                UART2_TX_InterruptHandler

.text.Console_UART_EnableInterrupts
                0x9d01e25c       0xd8
 .text.Console_UART_EnableInterrupts
                0x9d01e25c       0xd8 build/pic32mz_ef_sk/production/_ext/1702866625/sys_console_uart.o

.text._cache_err_exception_context
                0x9d01e334       0xd8
 .text._cache_err_exception_context
                0x9d01e334       0xd8 c:/program files (x86)/microchip/xc32/v2.30/bin/bin/../../lib/gcc/pic32mx/4.8.3/../../../../pic32mx/lib/fpu64\libpic32.a(cache-err-exception.o)
                0x9d01e334                _cache_err_exception_context

.text.simple_tlb_refill_context
                0x9d01e40c       0xd8
 .text.simple_tlb_refill_context
                0x9d01e40c       0xd8 c:/program files (x86)/microchip/xc32/v2.30/bin/bin/../../lib/gcc/pic32mx/4.8.3/../../../../pic32mx/lib/fpu64\libpic32.a(simple-tlb-refill-exception.o)
                0x9d01e40c                _simple_tlb_refill_exception_context

.text._MacTxPendingPackets
                0x9d01e4e4       0xd4
 .text._MacTxPendingPackets
                0x9d01e4e4       0xd4 build/pic32mz_ef_sk/production/_ext/1314174413/drv_ethmac.o

.text._DRV_ETHPHY_NegResultPhase_BMSTAT
                0x9d01e5b8       0xd4
 .text._DRV_ETHPHY_NegResultPhase_BMSTAT
                0x9d01e5b8       0xd4 build/pic32mz_ef_sk/production/_ext/138020607/drv_ethphy.o

.text.CLK_Initialize
                0x9d01e68c       0xd4
 .text.CLK_Initialize
                0x9d01e68c       0xd4 build/pic32mz_ef_sk/production/_ext/1098417660/plib_clk.o
                0x9d01e68c                CLK_Initialize

.text.Console_UART_PLIBReadHandler
                0x9d01e760       0xd4
 .text.Console_UART_PLIBReadHandler
                0x9d01e760       0xd4 build/pic32mz_ef_sk/production/_ext/1702866625/sys_console_uart.o

.text._DRV_ETHMAC_LinkStateNegResult
                0x9d01e834       0xd0
 .text._DRV_ETHMAC_LinkStateNegResult
                0x9d01e834       0xd0 build/pic32mz_ef_sk/production/_ext/1314174413/drv_ethmac.o

.text.DRV_ETHPHY_Open
                0x9d01e904       0xd0
 .text.DRV_ETHPHY_Open
                0x9d01e904       0xd0 build/pic32mz_ef_sk/production/_ext/138020607/drv_ethphy.o
                0x9d01e904                DRV_ETHPHY_Open

.rodata         0x9d01e9d8       0xd0
 .rodata        0x9d01e9d8       0xd0 c:/program files (x86)/microchip/xc32/v2.30/bin/bin/../../lib/gcc/pic32mx/4.8.3/../../../../pic32mx/lib/fpu64\libc.a(doprnt_cdnopsuxX.eo)

.text.DRV_ETHMAC_LibTxAcknowledgeBuffer
                0x9d01eaa8       0xcc
 .text.DRV_ETHMAC_LibTxAcknowledgeBuffer
                0x9d01eaa8       0xcc build/pic32mz_ef_sk/production/_ext/1314174413/drv_ethmac_lib.o
                0x9d01eaa8                DRV_ETHMAC_LibTxAcknowledgeBuffer

.text.TCPIP_ARP_EntryRemove
                0x9d01eb74       0xcc
 .text.TCPIP_ARP_EntryRemove
                0x9d01eb74       0xcc build/pic32mz_ef_sk/production/_ext/2027382860/arp.o
                0x9d01eb74                TCPIP_ARP_EntryRemove

.text._DRV_ETHMAC_LinkStateWaitLinkUp
                0x9d01ec40       0xc8
 .text._DRV_ETHMAC_LinkStateWaitLinkUp
                0x9d01ec40       0xc8 build/pic32mz_ef_sk/production/_ext/1314174413/drv_ethmac.o

.text.TCPIP_Commands_Initialize
                0x9d01ed08       0xc8
 .text.TCPIP_Commands_Initialize
                0x9d01ed08       0xc8 build/pic32mz_ef_sk/production/_ext/2027382860/tcpip_commands.o
                0x9d01ed08                TCPIP_Commands_Initialize

.text.TCPIP_OAHASH_EntryLookupOrInsert
                0x9d01edd0       0xc8
 .text.TCPIP_OAHASH_EntryLookupOrInsert
                0x9d01edd0       0xc8 build/pic32mz_ef_sk/production/_ext/2027382860/oahash.o
                0x9d01edd0                TCPIP_OAHASH_EntryLookupOrInsert

.text._TCPIPStackModuleRxPurge
                0x9d01ee98       0xc8
 .text._TCPIPStackModuleRxPurge
                0x9d01ee98       0xc8 build/pic32mz_ef_sk/production/_ext/2027382860/tcpip_manager.o
                0x9d01ee98                _TCPIPStackModuleRxPurge

.text.Console_UART_Initialize
                0x9d01ef60       0xc8
 .text.Console_UART_Initialize
                0x9d01ef60       0xc8 build/pic32mz_ef_sk/production/_ext/1702866625/sys_console_uart.o
                0x9d01ef60                Console_UART_Initialize

.text._sbrk     0x9d01f028       0xc8
 .text._sbrk    0x9d01f028       0xc8 c:/program files (x86)/microchip/xc32/v2.30/bin/bin/../../lib/gcc/pic32mx/4.8.3/../../../../pic32mx/lib/fpu64\libpic32.a(sbrk.o)
                0x9d01f028                _sbrk

.text._DHCPOptionWriteSrvIdent
                0x9d01f0f0       0xc4
 .text._DHCPOptionWriteSrvIdent
                0x9d01f0f0       0xc4 build/pic32mz_ef_sk/production/_ext/2027382860/dhcp.o

.text.TCPIP_UDP_SocketInfoGet
                0x9d01f1b4       0xc4
 .text.TCPIP_UDP_SocketInfoGet
                0x9d01f1b4       0xc4 build/pic32mz_ef_sk/production/_ext/2027382860/udp.o
                0x9d01f1b4                TCPIP_UDP_SocketInfoGet

.text._DRV_MIIM_ReleaseOpDcpt
                0x9d01f278       0xc0
 .text._DRV_MIIM_ReleaseOpDcpt
                0x9d01f278       0xc0 build/pic32mz_ef_sk/production/_ext/1761147401/drv_miim.o

.text._DHCPOptionProcessDns
                0x9d01f338       0xc0
 .text._DHCPOptionProcessDns
                0x9d01f338       0xc0 build/pic32mz_ef_sk/production/_ext/2027382860/dhcp.o

.text.TCPIP_IPV4_MacPacketTransmit
                0x9d01f3f8       0xc0
 .text.TCPIP_IPV4_MacPacketTransmit
                0x9d01f3f8       0xc0 build/pic32mz_ef_sk/production/_ext/2027382860/ipv4.o
                0x9d01f3f8                TCPIP_IPV4_MacPacketTransmit

.text.TCPIP_STACK_NetAddressSet
                0x9d01f4b8       0xc0
 .text.TCPIP_STACK_NetAddressSet
                0x9d01f4b8       0xc0 build/pic32mz_ef_sk/production/_ext/2027382860/tcpip_manager.o
                0x9d01f4b8                TCPIP_STACK_NetAddressSet

.text.IsCommandReady
                0x9d01f578       0xc0
 .text.IsCommandReady
                0x9d01f578       0xc0 build/pic32mz_ef_sk/production/_ext/2135388491/sys_command.o

.text.SYS_CMD_PRINT
                0x9d01f638       0xc0
 .text.SYS_CMD_PRINT
                0x9d01f638       0xc0 build/pic32mz_ef_sk/production/_ext/2135388491/sys_command.o
                0x9d01f638                SYS_CMD_PRINT

.text.TCPIP_DNS_Disable
                0x9d01f6f8       0xbc
 .text.TCPIP_DNS_Disable
                0x9d01f6f8       0xbc build/pic32mz_ef_sk/production/_ext/2027382860/dns.o
                0x9d01f6f8                TCPIP_DNS_Disable

.text._DHCPOptionWriteIPRequest
                0x9d01f7b4       0xbc
 .text._DHCPOptionWriteIPRequest
                0x9d01f7b4       0xbc build/pic32mz_ef_sk/production/_ext/2027382860/dhcp.o

.text.TCPIP_UDP_ArrayPut
                0x9d01f870       0xbc
 .text.TCPIP_UDP_ArrayPut
                0x9d01f870       0xbc build/pic32mz_ef_sk/production/_ext/2027382860/udp.o
                0x9d01f870                TCPIP_UDP_ArrayPut

.text.SendCommandPrint
                0x9d01f92c       0xbc
 .text.SendCommandPrint
                0x9d01f92c       0xbc build/pic32mz_ef_sk/production/_ext/2135388491/sys_command.o

.tlb.__pic32_tlb_init_ebi_sqi
                0x9d01f9e8       0xbc
 .tlb.__pic32_tlb_init_ebi_sqi
                0x9d01f9e8       0xbc c:/program files (x86)/microchip/xc32/v2.30/bin/bin/../../lib/gcc/pic32mx/4.8.3/../../../../pic32mx/lib/fpu64\libpic32.a(pic32_init_tlb_ebi_sqi.o)
                0x9d01f9e8                __pic32_tlb_init_ebi_sqi

.text.TCPIP_DNS_OAHASH_DeleteEntry
                0x9d01faa4       0xb8
 .text.TCPIP_DNS_OAHASH_DeleteEntry
                0x9d01faa4       0xb8 build/pic32mz_ef_sk/production/_ext/2027382860/dns.o

.text.TCPIP_DNS_GetIPAddressesNumber
                0x9d01fb5c       0xb8
 .text.TCPIP_DNS_GetIPAddressesNumber
                0x9d01fb5c       0xb8 build/pic32mz_ef_sk/production/_ext/2027382860/dns.o
                0x9d01fb5c                TCPIP_DNS_GetIPAddressesNumber

.text.TCPIP_PKT_DataSegmentGet
                0x9d01fc14       0xb8
 .text.TCPIP_PKT_DataSegmentGet
                0x9d01fc14       0xb8 build/pic32mz_ef_sk/production/_ext/2027382860/tcpip_packet.o
                0x9d01fc14                TCPIP_PKT_DataSegmentGet

.text.DRV_ETHMAC_PIC32MACEventAcknowledge
                0x9d01fccc       0xb4
 .text.DRV_ETHMAC_PIC32MACEventAcknowledge
                0x9d01fccc       0xb4 build/pic32mz_ef_sk/production/_ext/1314174413/drv_ethmac.o
                0x9d01fccc                DRV_ETHMAC_PIC32MACEventAcknowledge

.text._EthTxSchedBuffer
                0x9d01fd80       0xb4
 .text._EthTxSchedBuffer
                0x9d01fd80       0xb4 build/pic32mz_ef_sk/production/_ext/1314174413/drv_ethmac_lib.o

.text._DNS_DeleteHash
                0x9d01fe34       0xb4
 .text._DNS_DeleteHash
                0x9d01fe34       0xb4 build/pic32mz_ef_sk/production/_ext/2027382860/dns.o

.text.TCPIP_DHCP_Disable
                0x9d01fee8       0xb4
 .text.TCPIP_DHCP_Disable
                0x9d01fee8       0xb4 build/pic32mz_ef_sk/production/_ext/2027382860/dhcp.o
                0x9d01fee8                TCPIP_DHCP_Disable

.text._ARPNotifyClients
                0x9d01ff9c       0xb4
 .text._ARPNotifyClients
                0x9d01ff9c       0xb4 build/pic32mz_ef_sk/production/_ext/2027382860/arp.o

.text._TCPIP_HEAP_MaxSize
                0x9d020050       0xb4
 .text._TCPIP_HEAP_MaxSize
                0x9d020050       0xb4 build/pic32mz_ef_sk/production/_ext/2027382860/tcpip_heap_internal.o

.text.TCPIP_UDP_BcastIPV4AddressSet
                0x9d020104       0xb4
 .text.TCPIP_UDP_BcastIPV4AddressSet
                0x9d020104       0xb4 build/pic32mz_ef_sk/production/_ext/2027382860/udp.o
                0x9d020104                TCPIP_UDP_BcastIPV4AddressSet

.text.GPIO_Initialize
                0x9d0201b8       0xb4
 .text.GPIO_Initialize
                0x9d0201b8       0xb4 build/pic32mz_ef_sk/production/_ext/308913965/plib_gpio.o
                0x9d0201b8                GPIO_Initialize

.text.SYS_TIME_TimerStart
                0x9d02026c       0xb4
 .text.SYS_TIME_TimerStart
                0x9d02026c       0xb4 build/pic32mz_ef_sk/production/_ext/1658225107/sys_time.o
                0x9d02026c                SYS_TIME_TimerStart

.text.DRV_MIIM_OperationAbort
                0x9d020320       0xb0
 .text.DRV_MIIM_OperationAbort
                0x9d020320       0xb0 build/pic32mz_ef_sk/production/_ext/1761147401/drv_miim.o
                0x9d020320                DRV_MIIM_OperationAbort

.text._DNS_AddSelectionIf
                0x9d0203d0       0xb0
 .text._DNS_AddSelectionIf
                0x9d0203d0       0xb0 build/pic32mz_ef_sk/production/_ext/2027382860/dns.o

.text._TcpClientSocketConnect
                0x9d020480       0xb0
 .text._TcpClientSocketConnect
                0x9d020480       0xb0 build/pic32mz_ef_sk/production/_ext/2027382860/tcp.o

.text._TCPIPStackInsertRxPacket
                0x9d020530       0xb0
 .text._TCPIPStackInsertRxPacket
                0x9d020530       0xb0 build/pic32mz_ef_sk/production/_ext/2027382860/tcpip_manager.o
                0x9d020530                _TCPIPStackInsertRxPacket

.text._DNS_Enable
                0x9d0205e0       0xac
 .text._DNS_Enable
                0x9d0205e0       0xac build/pic32mz_ef_sk/production/_ext/2027382860/dns.o

.text.DRV_ETHMAC_PIC32MACRegisterStatisticsGet
                0x9d02068c       0xa8
 .text.DRV_ETHMAC_PIC32MACRegisterStatisticsGet
                0x9d02068c       0xa8 build/pic32mz_ef_sk/production/_ext/1314174413/drv_ethmac.o
                0x9d02068c                DRV_ETHMAC_PIC32MACRegisterStatisticsGet

.text._DRV_ETHPHY_NegCompletePhaseAN_Complete
                0x9d020734       0xa8
 .text._DRV_ETHPHY_NegCompletePhaseAN_Complete
                0x9d020734       0xa8 build/pic32mz_ef_sk/production/_ext/138020607/drv_ethphy.o

.text.DRV_ETHPHY_VendorSMIReadStart
                0x9d0207dc       0xa8
 .text.DRV_ETHPHY_VendorSMIReadStart
                0x9d0207dc       0xa8 build/pic32mz_ef_sk/production/_ext/138020607/drv_ethphy.o
                0x9d0207dc                DRV_ETHPHY_VendorSMIReadStart

.text.DRV_ETHPHY_VendorSMIWriteStart
                0x9d020884       0xa8
 .text.DRV_ETHPHY_VendorSMIWriteStart
                0x9d020884       0xa8 build/pic32mz_ef_sk/production/_ext/138020607/drv_ethphy.o
                0x9d020884                DRV_ETHPHY_VendorSMIWriteStart

.text.TCPIP_PKT_PacketMACFormat
                0x9d02092c       0xa8
 .text.TCPIP_PKT_PacketMACFormat
                0x9d02092c       0xa8 build/pic32mz_ef_sk/production/_ext/2027382860/tcpip_packet.o
                0x9d02092c                TCPIP_PKT_PacketMACFormat

.text           0x9d0209d4       0xa8
 .text          0x9d0209d4       0xa8 c:/program files (x86)/microchip/xc32/v2.30/bin/bin/../../lib/gcc/pic32mx/4.8.3/../../../../pic32mx/lib/fpu64\libpic32.a(memset.o)
                0x9d0209d4                memset

.text.atoi      0x9d020a7c       0xa8
 .text.atoi     0x9d020a7c       0xa8 c:/program files (x86)/microchip/xc32/v2.30/bin/bin/../../lib/gcc/pic32mx/4.8.3/../../../../pic32mx/lib/fpu64\libc.a(atoi.o)
                0x9d020a7c                atoi

.text.DRV_ETHPHY_Initialize
                0x9d020b24       0xa4
 .text.DRV_ETHPHY_Initialize
                0x9d020b24       0xa4 build/pic32mz_ef_sk/production/_ext/138020607/drv_ethphy.o
                0x9d020b24                DRV_ETHPHY_Initialize

.text._DRV_ETHPHY_SetupPhaseNegotiate_SubPhase6
                0x9d020bc8       0xa4
 .text._DRV_ETHPHY_SetupPhaseNegotiate_SubPhase6
                0x9d020bc8       0xa4 build/pic32mz_ef_sk/production/_ext/138020607/drv_ethphy.o

.text.TCPIP_IPV4_Initialize
                0x9d020c6c       0xa4
 .text.TCPIP_IPV4_Initialize
                0x9d020c6c       0xa4 build/pic32mz_ef_sk/production/_ext/2027382860/ipv4.o
                0x9d020c6c                TCPIP_IPV4_Initialize

.text.Console_UART_PLIBWriteHandler
                0x9d020d10       0xa4
 .text.Console_UART_PLIBWriteHandler
                0x9d020d10       0xa4 build/pic32mz_ef_sk/production/_ext/1702866625/sys_console_uart.o

.text._DRV_ETHPHY_LinkStatPhaseRead
                0x9d020db4       0xa0
 .text._DRV_ETHPHY_LinkStatPhaseRead
                0x9d020db4       0xa0 build/pic32mz_ef_sk/production/_ext/138020607/drv_ethphy.o

.text.TCPIP_DNS_RemoveAll
                0x9d020e54       0xa0
 .text.TCPIP_DNS_RemoveAll
                0x9d020e54       0xa0 build/pic32mz_ef_sk/production/_ext/2027382860/dns.o
                0x9d020e54                TCPIP_DNS_RemoveAll

.text._TCPSendWinIncUpdate
                0x9d020ef4       0xa0
 .text._TCPSendWinIncUpdate
                0x9d020ef4       0xa0 build/pic32mz_ef_sk/production/_ext/2027382860/tcp.o

.rodata         0x9d020f94       0xa0
 .rodata        0x9d020f94       0xa0 build/pic32mz_ef_sk/production/_ext/2027382860/dhcp.o

.text.TCPIP_Helper_SingleListNodeRemove
                0x9d021034       0xa0
 .text.TCPIP_Helper_SingleListNodeRemove
                0x9d021034       0xa0 build/pic32mz_ef_sk/production/_ext/2027382860/tcpip_helpers.o
                0x9d021034                TCPIP_Helper_SingleListNodeRemove

.text._TCPIP_PKT_PacketFree
                0x9d0210d4       0xa0
 .text._TCPIP_PKT_PacketFree
                0x9d0210d4       0xa0 build/pic32mz_ef_sk/production/_ext/2027382860/tcpip_packet.o
                0x9d0210d4                _TCPIP_PKT_PacketFree

.text.TCPIP_UDP_PutIsReady
                0x9d021174       0xa0
 .text.TCPIP_UDP_PutIsReady
                0x9d021174       0xa0 build/pic32mz_ef_sk/production/_ext/2027382860/udp.o
                0x9d021174                TCPIP_UDP_PutIsReady

.text._DRV_ETHMAC_LinkStateGetLink
                0x9d021214       0x9c
 .text._DRV_ETHMAC_LinkStateGetLink
                0x9d021214       0x9c build/pic32mz_ef_sk/production/_ext/1314174413/drv_ethmac.o

.text.Helper_SingleListNodeRemove
                0x9d0212b0       0x9c
 .text.Helper_SingleListNodeRemove
                0x9d0212b0       0x9c build/pic32mz_ef_sk/production/_ext/1761147401/drv_miim.o
                0x9d0212b0                Helper_SingleListNodeRemove

.text.TCPIP_ARP_Probe
                0x9d02134c       0x9c
 .text.TCPIP_ARP_Probe
                0x9d02134c       0x9c build/pic32mz_ef_sk/production/_ext/2027382860/arp.o
                0x9d02134c                TCPIP_ARP_Probe

.text.TCPIP_STACK_StringToMACId
                0x9d0213e8       0x9c
 .text.TCPIP_STACK_StringToMACId
                0x9d0213e8       0x9c build/pic32mz_ef_sk/production/_ext/2027382860/tcpip_manager.o
                0x9d0213e8                TCPIP_STACK_StringToMACId

.text.write     0x9d021484       0x9c
 .text.write    0x9d021484       0x9c c:/program files (x86)/microchip/xc32/v2.30/bin/bin/../../lib/gcc/pic32mx/4.8.3/../../../../pic32mx/lib/fpu64\libpic32.a(write.o)
                0x9d021484                write

.text.DRV_ETHMAC_LibDescriptorsPoolCleanUp
                0x9d021520       0x98
 .text.DRV_ETHMAC_LibDescriptorsPoolCleanUp
                0x9d021520       0x98 build/pic32mz_ef_sk/production/_ext/1314174413/drv_ethmac_lib.o
                0x9d021520                DRV_ETHMAC_LibDescriptorsPoolCleanUp

.text._DRV_MIIM_GetClientAndLock
                0x9d0215b8       0x98
 .text._DRV_MIIM_GetClientAndLock
                0x9d0215b8       0x98 build/pic32mz_ef_sk/production/_ext/1761147401/drv_miim.o

.text.TCPIP_Helper_IPAddressToString
                0x9d021650       0x98
 .text.TCPIP_Helper_IPAddressToString
                0x9d021650       0x98 build/pic32mz_ef_sk/production/_ext/2027382860/tcpip_helpers.o
                0x9d021650                TCPIP_Helper_IPAddressToString

.text.TCPIP_Helper_FormatNetBIOSName
                0x9d0216e8       0x98
 .text.TCPIP_Helper_FormatNetBIOSName
                0x9d0216e8       0x98 build/pic32mz_ef_sk/production/_ext/2027382860/tcpip_helpers.o
                0x9d0216e8                TCPIP_Helper_FormatNetBIOSName

.text._UDPSetNewRxPacket
                0x9d021780       0x98
 .text._UDPSetNewRxPacket
                0x9d021780       0x98 build/pic32mz_ef_sk/production/_ext/2027382860/udp.o

.text.SYS_TIME_CallbackRegisterMS
                0x9d021818       0x98
 .text.SYS_TIME_CallbackRegisterMS
                0x9d021818       0x98 build/pic32mz_ef_sk/production/_ext/1658225107/sys_time.o
                0x9d021818                SYS_TIME_CallbackRegisterMS

.text           0x9d0218b0       0x98
 .text          0x9d0218b0       0x98 c:/program files (x86)/microchip/xc32/v2.30/bin/bin/../../lib/gcc/pic32mx/4.8.3/../../../../pic32mx/lib/fpu64\libpic32.a(memcmp.o)
                0x9d0218b0                memcmp

.text._DRV_ETHMAC_LinkStateNegComplete
                0x9d021948       0x94
 .text._DRV_ETHMAC_LinkStateNegComplete
                0x9d021948       0x94 build/pic32mz_ef_sk/production/_ext/1314174413/drv_ethmac.o

.text._EthTxSchedList
                0x9d0219dc       0x94
 .text._EthTxSchedList
                0x9d0219dc       0x94 build/pic32mz_ef_sk/production/_ext/1314174413/drv_ethmac_lib.o

.text._DRV_MIIM_GetObjectAndLock
                0x9d021a70       0x94
 .text._DRV_MIIM_GetObjectAndLock
                0x9d021a70       0x94 build/pic32mz_ef_sk/production/_ext/1761147401/drv_miim.o

.text.DRV_MIIM_RegisterCallback
                0x9d021b04       0x94
 .text.DRV_MIIM_RegisterCallback
                0x9d021b04       0x94 build/pic32mz_ef_sk/production/_ext/1761147401/drv_miim.o
                0x9d021b04                DRV_MIIM_RegisterCallback

.text._DNS_CleanCacheEntry
                0x9d021b98       0x94
 .text._DNS_CleanCacheEntry
                0x9d021b98       0x94 build/pic32mz_ef_sk/production/_ext/2027382860/dns.o

.text._TcpCleanup
                0x9d021c2c       0x94
 .text._TcpCleanup
                0x9d021c2c       0x94 build/pic32mz_ef_sk/production/_ext/2027382860/tcp.o

.text.TCPIP_ARP_Deinitialize
                0x9d021cc0       0x94
 .text.TCPIP_ARP_Deinitialize
                0x9d021cc0       0x94 build/pic32mz_ef_sk/production/_ext/2027382860/arp.o
                0x9d021cc0                TCPIP_ARP_Deinitialize

.text.TCPIP_Helper_ProtectedSingleListNodeRemove
                0x9d021d54       0x94
 .text.TCPIP_Helper_ProtectedSingleListNodeRemove
                0x9d021d54       0x94 build/pic32mz_ef_sk/production/_ext/2027382860/tcpip_helpers.o
                0x9d021d54                TCPIP_Helper_ProtectedSingleListNodeRemove

.text.TCPIP_UDP_DestinationIPAddressSet
                0x9d021de8       0x94
 .text.TCPIP_UDP_DestinationIPAddressSet
                0x9d021de8       0x94 build/pic32mz_ef_sk/production/_ext/2027382860/udp.o
                0x9d021de8                TCPIP_UDP_DestinationIPAddressSet

.text.SYS_TIME_RemoveFromList
                0x9d021e7c       0x94
 .text.SYS_TIME_RemoveFromList
                0x9d021e7c       0x94 build/pic32mz_ef_sk/production/_ext/1658225107/sys_time.o

.text.DRV_ETHMAC_LibClose
                0x9d021f10       0x90
 .text.DRV_ETHMAC_LibClose
                0x9d021f10       0x90 build/pic32mz_ef_sk/production/_ext/1314174413/drv_ethmac_lib.o
                0x9d021f10                DRV_ETHMAC_LibClose

.text.TCPIP_DNS_ClientDeinitialize
                0x9d021fa0       0x90
 .text.TCPIP_DNS_ClientDeinitialize
                0x9d021fa0       0x90 build/pic32mz_ef_sk/production/_ext/2027382860/dns.o
                0x9d021fa0                TCPIP_DNS_ClientDeinitialize

.text._DHCPOptionClientId
                0x9d022030       0x90
 .text._DHCPOptionClientId
                0x9d022030       0x90 build/pic32mz_ef_sk/production/_ext/2027382860/dhcp.o

.text._DHCPSetTimeout
                0x9d0220c0       0x90
 .text._DHCPSetTimeout
                0x9d0220c0       0x90 build/pic32mz_ef_sk/production/_ext/2027382860/dhcp.o

.text.TCPIP_ARP_EntryGet
                0x9d022150       0x90
 .text.TCPIP_ARP_EntryGet
                0x9d022150       0x90 build/pic32mz_ef_sk/production/_ext/2027382860/arp.o
                0x9d022150                TCPIP_ARP_EntryGet

.text.TCPIP_Helper_ProtectedSingleListHeadRemove
                0x9d0221e0       0x90
 .text.TCPIP_Helper_ProtectedSingleListHeadRemove
                0x9d0221e0       0x90 build/pic32mz_ef_sk/production/_ext/2027382860/tcpip_helpers.o
                0x9d0221e0                TCPIP_Helper_ProtectedSingleListHeadRemove

.text.TCPIP_Helper_ProtectedSingleListRemoveAll
                0x9d022270       0x90
 .text.TCPIP_Helper_ProtectedSingleListRemoveAll
                0x9d022270       0x90 build/pic32mz_ef_sk/production/_ext/2027382860/tcpip_helpers.o
                0x9d022270                TCPIP_Helper_ProtectedSingleListRemoveAll

.text._TCPIPStackIpAddFromAnyNet
                0x9d022300       0x90
 .text._TCPIPStackIpAddFromAnyNet
                0x9d022300       0x90 build/pic32mz_ef_sk/production/_ext/2027382860/tcpip_manager.o
                0x9d022300                _TCPIPStackIpAddFromAnyNet

.text._TCPIPStackModuleSignalRequest
                0x9d022390       0x90
 .text._TCPIPStackModuleSignalRequest
                0x9d022390       0x90 build/pic32mz_ef_sk/production/_ext/2027382860/tcpip_manager.o
                0x9d022390                _TCPIPStackModuleSignalRequest

.text.SYS_CMD_Initialize
                0x9d022420       0x90
 .text.SYS_CMD_Initialize
                0x9d022420       0x90 build/pic32mz_ef_sk/production/_ext/2135388491/sys_command.o
                0x9d022420                SYS_CMD_Initialize

.text._frexpx   0x9d0224b0       0x90
 .text._frexpx  0x9d0224b0       0x90 c:/program files (x86)/microchip/xc32/v2.30/bin/bin/../../lib/gcc/pic32mx/4.8.3/../../../../pic32mx/lib/fpu64\libmfd.a(s_frexp.o)
                0x9d0224b0                _frexpx

.text._DNSDiscardName
                0x9d022540       0x8c
 .text._DNSDiscardName
                0x9d022540       0x8c build/pic32mz_ef_sk/production/_ext/2027382860/dns.o

.text._DHCPCleanup
                0x9d0225cc       0x8c
 .text._DHCPCleanup
                0x9d0225cc       0x8c build/pic32mz_ef_sk/production/_ext/2027382860/dhcp.o

.text._DHCPNotifyClients
                0x9d022658       0x8c
 .text._DHCPNotifyClients
                0x9d022658       0x8c build/pic32mz_ef_sk/production/_ext/2027382860/dhcp.o

.text.TCPIP_STACK_NetAliasNameGet
                0x9d0226e4       0x8c
 .text.TCPIP_STACK_NetAliasNameGet
                0x9d0226e4       0x8c build/pic32mz_ef_sk/production/_ext/2027382860/tcpip_manager.o
                0x9d0226e4                TCPIP_STACK_NetAliasNameGet

.text.TCPIP_STACK_NetBiosNameSet
                0x9d022770       0x8c
 .text.TCPIP_STACK_NetBiosNameSet
                0x9d022770       0x8c build/pic32mz_ef_sk/production/_ext/2027382860/tcpip_manager.o
                0x9d022770                TCPIP_STACK_NetBiosNameSet

.text.TCPIP_UDP_TxOffsetSet
                0x9d0227fc       0x8c
 .text.TCPIP_UDP_TxOffsetSet
                0x9d0227fc       0x8c build/pic32mz_ef_sk/production/_ext/2027382860/udp.o
                0x9d0227fc                TCPIP_UDP_TxOffsetSet

.text.SYS_CONSOLE_Status
                0x9d022888       0x8c
 .text.SYS_CONSOLE_Status
                0x9d022888       0x8c build/pic32mz_ef_sk/production/_ext/1702866625/sys_console.o
                0x9d022888                SYS_CONSOLE_Status

.text.rand      0x9d022914       0x8c
 .text.rand     0x9d022914       0x8c c:/program files (x86)/microchip/xc32/v2.30/bin/bin/../../lib/gcc/pic32mx/4.8.3/../../../../pic32mx/lib/fpu64\libc.a(rand.o)
                0x9d022914                rand

.text.hexatob   0x9d0229a0       0x88
 .text.hexatob  0x9d0229a0       0x88 build/pic32mz_ef_sk/production/_ext/2027382860/helpers.o
                0x9d0229a0                hexatob

.rodata         0x9d022a28       0x88
 .rodata        0x9d022a28       0x88 build/pic32mz_ef_sk/production/_ext/2027382860/dns.o

.text.TCPIP_Helper_ProtectedSingleListTailAdd
                0x9d022ab0       0x88
 .text.TCPIP_Helper_ProtectedSingleListTailAdd
                0x9d022ab0       0x88 build/pic32mz_ef_sk/production/_ext/2027382860/tcpip_helpers.o
                0x9d022ab0                TCPIP_Helper_ProtectedSingleListTailAdd

.text._TCPIP_SelectDefaultNet
                0x9d022b38       0x88
 .text._TCPIP_SelectDefaultNet
                0x9d022b38       0x88 build/pic32mz_ef_sk/production/_ext/2027382860/tcpip_manager.o

.text.TCPIP_UDP_Close
                0x9d022bc0       0x88
 .text.TCPIP_UDP_Close
                0x9d022bc0       0x88 build/pic32mz_ef_sk/production/_ext/2027382860/udp.o
                0x9d022bc0                TCPIP_UDP_Close

.text.UART2_ErrorGet
                0x9d022c48       0x88
 .text.UART2_ErrorGet
                0x9d022c48       0x88 build/pic32mz_ef_sk/production/_ext/309316908/plib_uart2.o
                0x9d022c48                UART2_ErrorGet

.text.SYS_TIME_TimerAdd
                0x9d022cd0       0x88
 .text.SYS_TIME_TimerAdd
                0x9d022cd0       0x88 build/pic32mz_ef_sk/production/_ext/1658225107/sys_time.o

.text.DRV_ETHPHY_VendorSMIReadResultGet
                0x9d022d58       0x84
 .text.DRV_ETHPHY_VendorSMIReadResultGet
                0x9d022d58       0x84 build/pic32mz_ef_sk/production/_ext/138020607/drv_ethphy.o
                0x9d022d58                DRV_ETHPHY_VendorSMIReadResultGet

.text._DRV_MIIM_GetOpDcpt
                0x9d022ddc       0x84
 .text._DRV_MIIM_GetOpDcpt
                0x9d022ddc       0x84 build/pic32mz_ef_sk/production/_ext/1761147401/drv_miim.o

.text.TCPIP_STACK_NetHandleGet
                0x9d022e60       0x84
 .text.TCPIP_STACK_NetHandleGet
                0x9d022e60       0x84 build/pic32mz_ef_sk/production/_ext/2027382860/tcpip_manager.o
                0x9d022e60                TCPIP_STACK_NetHandleGet

.text.TCPIP_UDP_RxOffsetSet
                0x9d022ee4       0x84
 .text.TCPIP_UDP_RxOffsetSet
                0x9d022ee4       0x84 build/pic32mz_ef_sk/production/_ext/2027382860/udp.o
                0x9d022ee4                TCPIP_UDP_RxOffsetSet

.text.TCPIP_UDP_SourceIPAddressSet
                0x9d022f68       0x84
 .text.TCPIP_UDP_SourceIPAddressSet
                0x9d022f68       0x84 build/pic32mz_ef_sk/production/_ext/2027382860/udp.o
                0x9d022f68                TCPIP_UDP_SourceIPAddressSet

.text.UART2_Initialize
                0x9d022fec       0x84
 .text.UART2_Initialize
                0x9d022fec       0x84 build/pic32mz_ef_sk/production/_ext/309316908/plib_uart2.o
                0x9d022fec                UART2_Initialize

.text           0x9d023070       0x84
 .text          0x9d023070       0x84 c:/program files (x86)/microchip/xc32/v2.30/bin/bin/../../lib/gcc/pic32mx/4.8.3/../../../../pic32mx/lib/fpu64\libpic32.a(pic32_data_init.o)
                0x9d023070                __pic32_data_init

.text._vsnprintf_cdnopsuxX
                0x9d0230f4       0x84
 .text._vsnprintf_cdnopsuxX
                0x9d0230f4       0x84 c:/program files (x86)/microchip/xc32/v2.30/bin/bin/../../lib/gcc/pic32mx/4.8.3/../../../../pic32mx/lib/fpu64\libc.a(vsnprintf_cdnopsuxX.eo)
                0x9d0230f4                _vsnprintf_cdnopsuxX

.text.vsnprintf
                0x9d023178       0x84
 .text.vsnprintf
                0x9d023178       0x84 c:/program files (x86)/microchip/xc32/v2.30/bin/bin/../../lib/gcc/pic32mx/4.8.3/../../../../pic32mx/lib/fpu64\libc.a(vsnprintf.o)
                0x9d023178                vsnprintf

.text._DRV_ETHPHY_SetupPhaseNegotiate_SubPhase1
                0x9d0231fc       0x80
 .text._DRV_ETHPHY_SetupPhaseNegotiate_SubPhase1
                0x9d0231fc       0x80 build/pic32mz_ef_sk/production/_ext/138020607/drv_ethphy.o

.text.TCPIP_DNS_OAHASH_KeyCopy
                0x9d02327c       0x80
 .text.TCPIP_DNS_OAHASH_KeyCopy
                0x9d02327c       0x80 build/pic32mz_ef_sk/production/_ext/2027382860/dns.o

.text.TCPIP_ICMP_Initialize
                0x9d0232fc       0x80
 .text.TCPIP_ICMP_Initialize
                0x9d0232fc       0x80 build/pic32mz_ef_sk/production/_ext/2027382860/icmp.o
                0x9d0232fc                TCPIP_ICMP_Initialize

.text.TCPIP_Helper_MACAddressToString
                0x9d02337c       0x80
 .text.TCPIP_Helper_MACAddressToString
                0x9d02337c       0x80 build/pic32mz_ef_sk/production/_ext/2027382860/tcpip_helpers.o
                0x9d02337c                TCPIP_Helper_MACAddressToString

.text.UART2_Read
                0x9d0233fc       0x80
 .text.UART2_Read
                0x9d0233fc       0x80 build/pic32mz_ef_sk/production/_ext/309316908/plib_uart2.o
                0x9d0233fc                UART2_Read

.text.CommandReadCback
                0x9d02347c       0x80
 .text.CommandReadCback
                0x9d02347c       0x80 build/pic32mz_ef_sk/production/_ext/2135388491/sys_command.o

.text.SYS_TIME_TimerDestroy
                0x9d0234fc       0x80
 .text.SYS_TIME_TimerDestroy
                0x9d0234fc       0x80 build/pic32mz_ef_sk/production/_ext/1658225107/sys_time.o
                0x9d0234fc                SYS_TIME_TimerDestroy

.text._DRV_ETHPHY_SetupPhaseNegotiate_SubPhase5
                0x9d02357c       0x7c
 .text._DRV_ETHPHY_SetupPhaseNegotiate_SubPhase5
                0x9d02357c       0x7c build/pic32mz_ef_sk/production/_ext/138020607/drv_ethphy.o

.text._TCP_EphemeralPortAllocate
                0x9d0235f8       0x7c
 .text._TCP_EphemeralPortAllocate
                0x9d0235f8       0x7c build/pic32mz_ef_sk/production/_ext/2027382860/tcp.o

.text.TCPIP_ARP_HandlerRegister
                0x9d023674       0x7c
 .text.TCPIP_ARP_HandlerRegister
                0x9d023674       0x7c build/pic32mz_ef_sk/production/_ext/2027382860/arp.o
                0x9d023674                TCPIP_ARP_HandlerRegister

.text._TCPIP_MacEventCB
                0x9d0236f0       0x7c
 .text._TCPIP_MacEventCB
                0x9d0236f0       0x7c build/pic32mz_ef_sk/production/_ext/2027382860/tcpip_manager.o

.text._UDPAllocateEphemeralPort
                0x9d02376c       0x7c
 .text._UDPAllocateEphemeralPort
                0x9d02376c       0x7c build/pic32mz_ef_sk/production/_ext/2027382860/udp.o

.text.UART2_Write
                0x9d0237e8       0x7c
 .text.UART2_Write
                0x9d0237e8       0x7c build/pic32mz_ef_sk/production/_ext/309316908/plib_uart2.o
                0x9d0237e8                UART2_Write

.text._DRV_ETHPHY_SetupPhaseNegotiate_SubPhase2
                0x9d023864       0x78
 .text._DRV_ETHPHY_SetupPhaseNegotiate_SubPhase2
                0x9d023864       0x78 build/pic32mz_ef_sk/production/_ext/138020607/drv_ethphy.o

.text._DRV_ETHPHY_NegRestartPhaseRead
                0x9d0238dc       0x78
 .text._DRV_ETHPHY_NegRestartPhaseRead
                0x9d0238dc       0x78 build/pic32mz_ef_sk/production/_ext/138020607/drv_ethphy.o

.text.TCPIP_TCP_Close
                0x9d023954       0x78
 .text.TCPIP_TCP_Close
                0x9d023954       0x78 build/pic32mz_ef_sk/production/_ext/2027382860/tcp.o
                0x9d023954                TCPIP_TCP_Close

.text._DHCPOptionProcessRouter
                0x9d0239cc       0x78
 .text._DHCPOptionProcessRouter
                0x9d0239cc       0x78 build/pic32mz_ef_sk/production/_ext/2027382860/dhcp.o

.text.TCPIP_DHCP_IsEnabled
                0x9d023a44       0x78
 .text.TCPIP_DHCP_IsEnabled
                0x9d023a44       0x78 build/pic32mz_ef_sk/production/_ext/2027382860/dhcp.o
                0x9d023a44                TCPIP_DHCP_IsEnabled

.text.TCPIP_Helper_ProtectedSingleListDeinitialize
                0x9d023abc       0x78
 .text.TCPIP_Helper_ProtectedSingleListDeinitialize
                0x9d023abc       0x78 build/pic32mz_ef_sk/production/_ext/2027382860/tcpip_helpers.o
                0x9d023abc                TCPIP_Helper_ProtectedSingleListDeinitialize

.text.TCPIP_PKT_Initialize
                0x9d023b34       0x78
 .text.TCPIP_PKT_Initialize
                0x9d023b34       0x78 build/pic32mz_ef_sk/production/_ext/2027382860/tcpip_packet.o
                0x9d023b34                TCPIP_PKT_Initialize

.text.SYS_TIME_Counter64Get
                0x9d023bac       0x78
 .text.SYS_TIME_Counter64Get
                0x9d023bac       0x78 build/pic32mz_ef_sk/production/_ext/1658225107/sys_time.o
                0x9d023bac                SYS_TIME_Counter64Get

.text.DRV_ETHMAC_PIC32MACConfigGet
                0x9d023c24       0x74
 .text.DRV_ETHMAC_PIC32MACConfigGet
                0x9d023c24       0x74 build/pic32mz_ef_sk/production/_ext/1314174413/drv_ethmac.o
                0x9d023c24                DRV_ETHMAC_PIC32MACConfigGet

.text._DRV_ETHPHY_NegCompletePhaseRead1
                0x9d023c98       0x74
 .text._DRV_ETHPHY_NegCompletePhaseRead1
                0x9d023c98       0x74 build/pic32mz_ef_sk/production/_ext/138020607/drv_ethphy.o

.text._TcpSwapHeader
                0x9d023d0c       0x74
 .text._TcpSwapHeader
                0x9d023d0c       0x74 build/pic32mz_ef_sk/production/_ext/2027382860/tcp.o

.text._DHCPOptionProcessSubNet
                0x9d023d80       0x74
 .text._DHCPOptionProcessSubNet
                0x9d023d80       0x74 build/pic32mz_ef_sk/production/_ext/2027382860/dhcp.o

.text.TCPIP_Helper_StringToPowerMode
                0x9d023df4       0x74
 .text.TCPIP_Helper_StringToPowerMode
                0x9d023df4       0x74 build/pic32mz_ef_sk/production/_ext/2027382860/tcpip_helpers.o
                0x9d023df4                TCPIP_Helper_StringToPowerMode

.text.TCPIP_STACK_AddressServiceEvent
                0x9d023e68       0x74
 .text.TCPIP_STACK_AddressServiceEvent
                0x9d023e68       0x74 build/pic32mz_ef_sk/production/_ext/2027382860/tcpip_manager.o
                0x9d023e68                TCPIP_STACK_AddressServiceEvent

.text._TCPIPStackAnyNetLinked
                0x9d023edc       0x74
 .text._TCPIPStackAnyNetLinked
                0x9d023edc       0x74 build/pic32mz_ef_sk/production/_ext/2027382860/tcpip_manager.o
                0x9d023edc                _TCPIPStackAnyNetLinked

.text._TCPIPStackSignalHandlerRegister
                0x9d023f50       0x74
 .text._TCPIPStackSignalHandlerRegister
                0x9d023f50       0x74 build/pic32mz_ef_sk/production/_ext/2027382860/tcpip_manager.o
                0x9d023f50                _TCPIPStackSignalHandlerRegister

.text._TCPIP_PKT_PacketAcknowledge
                0x9d023fc4       0x74
 .text._TCPIP_PKT_PacketAcknowledge
                0x9d023fc4       0x74 build/pic32mz_ef_sk/production/_ext/2027382860/tcpip_packet.o
                0x9d023fc4                _TCPIP_PKT_PacketAcknowledge

.text._keyHomeProcess
                0x9d024038       0x74
 .text._keyHomeProcess
                0x9d024038       0x74 build/pic32mz_ef_sk/production/_ext/2135388491/sys_command.o

.text.SYS_CONSOLE_Initialize
                0x9d0240ac       0x74
 .text.SYS_CONSOLE_Initialize
                0x9d0240ac       0x74 build/pic32mz_ef_sk/production/_ext/1702866625/sys_console.o
                0x9d0240ac                SYS_CONSOLE_Initialize

.text.SYS_TIME_UpdateTimerList
                0x9d024120       0x74
 .text.SYS_TIME_UpdateTimerList
                0x9d024120       0x74 build/pic32mz_ef_sk/production/_ext/1658225107/sys_time.o

.text.strncpy   0x9d024194       0x74
 .text.strncpy  0x9d024194       0x74 c:/program files (x86)/microchip/xc32/v2.30/bin/bin/../../lib/gcc/pic32mx/4.8.3/../../../../pic32mx/lib/fpu64\libc.a(strncpy.o)
                0x9d024194                strncpy

.text._EnetPoolFreeDcptList
                0x9d000110       0x70
 .text._EnetPoolFreeDcptList
                0x9d000110       0x70 build/pic32mz_ef_sk/production/_ext/1314174413/drv_ethmac_lib.o

.text._DRV_ETHPHY_LinkStatPhaseRefresh
                0x9d000190       0x70
 .text._DRV_ETHPHY_LinkStatPhaseRefresh
                0x9d000190       0x70 build/pic32mz_ef_sk/production/_ext/138020607/drv_ethphy.o

.text.DRV_MIIM_DeregisterCallback
                0x9d024208       0x70
 .text.DRV_MIIM_DeregisterCallback
                0x9d024208       0x70 build/pic32mz_ef_sk/production/_ext/1761147401/drv_miim.o
                0x9d024208                DRV_MIIM_DeregisterCallback

.text._TcpSocketSetSourceInterface
                0x9d024278       0x70
 .text._TcpSocketSetSourceInterface
                0x9d024278       0x70 build/pic32mz_ef_sk/production/_ext/2027382860/tcp.o

.text._ARPSetEntry
                0x9d0242e8       0x70
 .text._ARPSetEntry
                0x9d0242e8       0x70 build/pic32mz_ef_sk/production/_ext/2027382860/arp.o

.text._ARPRemoveEntry
                0x9d024358       0x70
 .text._ARPRemoveEntry
                0x9d024358       0x70 build/pic32mz_ef_sk/production/_ext/2027382860/arp.o

.rodata         0x9d0243c8       0x70
 .rodata        0x9d0243c8       0x70 build/pic32mz_ef_sk/production/_ext/2027382860/ipv4.o

.text._TCPIP_HEAP_Delete
                0x9d024438       0x70
 .text._TCPIP_HEAP_Delete
                0x9d024438       0x70 build/pic32mz_ef_sk/production/_ext/2027382860/tcpip_heap_internal.o

.text._UDPFreeTxResources
                0x9d0244a8       0x70
 .text._UDPFreeTxResources
                0x9d0244a8       0x70 build/pic32mz_ef_sk/production/_ext/2027382860/udp.o

.text._UDPClose
                0x9d024518       0x70
 .text._UDPClose
                0x9d024518       0x70 build/pic32mz_ef_sk/production/_ext/2027382860/udp.o

.text._keyEndProcess
                0x9d024588       0x70
 .text._keyEndProcess
                0x9d024588       0x70 build/pic32mz_ef_sk/production/_ext/2135388491/sys_command.o

.text.Console_UART_Flush
                0x9d0245f8       0x70
 .text.Console_UART_Flush
                0x9d0245f8       0x70 build/pic32mz_ef_sk/production/_ext/1702866625/sys_console_uart.o
                0x9d0245f8                Console_UART_Flush

.text.strncmp   0x9d024668       0x70
 .text.strncmp  0x9d024668       0x70 c:/program files (x86)/microchip/xc32/v2.30/bin/bin/../../lib/gcc/pic32mx/4.8.3/../../../../pic32mx/lib/fpu64\libc.a(strncmp.o)
                0x9d024668                strncmp

.text._MacRxFreeCallback
                0x9d0246d8       0x6c
 .text._MacRxFreeCallback
                0x9d0246d8       0x6c build/pic32mz_ef_sk/production/_ext/1314174413/drv_ethmac.o

.text._DNSGetData
                0x9d024744       0x6c
 .text._DNSGetData
                0x9d024744       0x6c build/pic32mz_ef_sk/production/_ext/2027382860/dns.o

.text._TcpSocketKill
                0x9d0247b0       0x6c
 .text._TcpSocketKill
                0x9d0247b0       0x6c build/pic32mz_ef_sk/production/_ext/2027382860/tcp.o

.text.TCPIP_STACK_IsBcastAddress
                0x9d02481c       0x6c
 .text.TCPIP_STACK_IsBcastAddress
                0x9d02481c       0x6c build/pic32mz_ef_sk/production/_ext/2027382860/tcpip_manager.o
                0x9d02481c                TCPIP_STACK_IsBcastAddress

.text._TCPIPStackModuleRxInsert
                0x9d024888       0x6c
 .text._TCPIPStackModuleRxInsert
                0x9d024888       0x6c build/pic32mz_ef_sk/production/_ext/2027382860/tcpip_manager.o
                0x9d024888                _TCPIPStackModuleRxInsert

.text._TCPIP_PKT_SocketAlloc
                0x9d0248f4       0x6c
 .text._TCPIP_PKT_SocketAlloc
                0x9d0248f4       0x6c build/pic32mz_ef_sk/production/_ext/2027382860/tcpip_packet.o
                0x9d0248f4                _TCPIP_PKT_SocketAlloc

.text.TCPIP_UDP_SocketNetSet
                0x9d024960       0x6c
 .text.TCPIP_UDP_SocketNetSet
                0x9d024960       0x6c build/pic32mz_ef_sk/production/_ext/2027382860/udp.o
                0x9d024960                TCPIP_UDP_SocketNetSet

.text.SYS_TIME_MSToCount
                0x9d0249cc       0x6c
 .text.SYS_TIME_MSToCount
                0x9d0249cc       0x6c build/pic32mz_ef_sk/production/_ext/1658225107/sys_time.o
                0x9d0249cc                SYS_TIME_MSToCount

.text.DRV_ETHMAC_PIC32MACParametersGet
                0x9d024a38       0x68
 .text.DRV_ETHMAC_PIC32MACParametersGet
                0x9d024a38       0x68 build/pic32mz_ef_sk/production/_ext/1314174413/drv_ethmac.o
                0x9d024a38                DRV_ETHMAC_PIC32MACParametersGet

.text.TCPIP_DNS_RemoveEntry
                0x9d024aa0       0x68
 .text.TCPIP_DNS_RemoveEntry
                0x9d024aa0       0x68 build/pic32mz_ef_sk/production/_ext/2027382860/dns.o
                0x9d024aa0                TCPIP_DNS_RemoveEntry

.text._DHCPSetRunFail
                0x9d024b08       0x68
 .text._DHCPSetRunFail
                0x9d024b08       0x68 build/pic32mz_ef_sk/production/_ext/2027382860/dhcp.o

.text.TCPIP_ARP_HashEntryDelete
                0x9d024b70       0x68
 .text.TCPIP_ARP_HashEntryDelete
                0x9d024b70       0x68 build/pic32mz_ef_sk/production/_ext/2027382860/arp.o
                0x9d024b70                TCPIP_ARP_HashEntryDelete

.text.TCPIP_UDP_OpenClientSkt
                0x9d024bd8       0x68
 .text.TCPIP_UDP_OpenClientSkt
                0x9d024bd8       0x68 build/pic32mz_ef_sk/production/_ext/2027382860/udp.o
                0x9d024bd8                TCPIP_UDP_OpenClientSkt

.text.SYS_TIME_GetTimerObject
                0x9d024c40       0x68
 .text.SYS_TIME_GetTimerObject
                0x9d024c40       0x68 build/pic32mz_ef_sk/production/_ext/1658225107/sys_time.o

.text._sprintf_cdnopsuxX
                0x9d024ca8       0x68
 .text._sprintf_cdnopsuxX
                0x9d024ca8       0x68 c:/program files (x86)/microchip/xc32/v2.30/bin/bin/../../lib/gcc/pic32mx/4.8.3/../../../../pic32mx/lib/fpu64\libc.a(sprintf_cdnopsuxX.eo)
                0x9d024ca8                _sprintf_cdnopuxX
                0x9d024ca8                _sprintf_cdnopsuxX

.text._MacTxFreeCallback
                0x9d024d10       0x64
 .text._MacTxFreeCallback
                0x9d024d10       0x64 build/pic32mz_ef_sk/production/_ext/1314174413/drv_ethmac.o

.text.DRV_MIIM_Deinitialize
                0x9d024d74       0x64
 .text.DRV_MIIM_Deinitialize
                0x9d024d74       0x64 build/pic32mz_ef_sk/production/_ext/1761147401/drv_miim.o
                0x9d024d74                DRV_MIIM_Deinitialize

.text.TCPIP_DNS_ClientInfoGet
                0x9d024dd8       0x64
 .text.TCPIP_DNS_ClientInfoGet
                0x9d024dd8       0x64 build/pic32mz_ef_sk/production/_ext/2027382860/dns.o
                0x9d024dd8                TCPIP_DNS_ClientInfoGet

.text.TCPIP_DHCP_Deinitialize
                0x9d024e3c       0x64
 .text.TCPIP_DHCP_Deinitialize
                0x9d024e3c       0x64 build/pic32mz_ef_sk/production/_ext/2027382860/dhcp.o
                0x9d024e3c                TCPIP_DHCP_Deinitialize

.text.TCPIP_IPV4_Cleanup
                0x9d024ea0       0x64
 .text.TCPIP_IPV4_Cleanup
                0x9d024ea0       0x64 build/pic32mz_ef_sk/production/_ext/2027382860/ipv4.o

.text.TCPIP_STACK_NetDown
                0x9d024f04       0x64
 .text.TCPIP_STACK_NetDown
                0x9d024f04       0x64 build/pic32mz_ef_sk/production/_ext/2027382860/tcpip_manager.o
                0x9d024f04                TCPIP_STACK_NetDown

.text.TCPIP_UDP_SignalHandlerRegister
                0x9d024f68       0x64
 .text.TCPIP_UDP_SignalHandlerRegister
                0x9d024f68       0x64 build/pic32mz_ef_sk/production/_ext/2027382860/udp.o
                0x9d024f68                TCPIP_UDP_SignalHandlerRegister

.text.CORETIMER_Start
                0x9d024fcc       0x64
 .text.CORETIMER_Start
                0x9d024fcc       0x64 build/pic32mz_ef_sk/production/_ext/1710852712/plib_coretimer.o
                0x9d024fcc                CORETIMER_Start

.text.modbus_CRC16
                0x9d025030       0x64
 .text.modbus_CRC16
                0x9d025030       0x64 build/pic32mz_ef_sk/production/_ext/108032392/dialtek_modbus.o

.text._DNSClientCleanup
                0x9d025094       0x60
 .text._DNSClientCleanup
                0x9d025094       0x60 build/pic32mz_ef_sk/production/_ext/2027382860/dns.o

.text._DHCPOptionProcessMsgType
                0x9d0250f4       0x60
 .text._DHCPOptionProcessMsgType
                0x9d0250f4       0x60 build/pic32mz_ef_sk/production/_ext/2027382860/dhcp.o

.text.IPv4RegisterFilter
                0x9d025154       0x60
 .text.IPv4RegisterFilter
                0x9d025154       0x60 build/pic32mz_ef_sk/production/_ext/2027382860/ipv4.o
                0x9d025154                IPv4RegisterFilter

.text.TCPIP_OAHASH_EntriesRemoveAll
                0x9d0251b4       0x60
 .text.TCPIP_OAHASH_EntriesRemoveAll
                0x9d0251b4       0x60 build/pic32mz_ef_sk/production/_ext/2027382860/oahash.o
                0x9d0251b4                TCPIP_OAHASH_EntriesRemoveAll

.rodata         0x9d025214       0x60
 .rodata        0x9d025214       0x60 build/pic32mz_ef_sk/production/_ext/2027382860/tcpip_helpers.o

.text.TCPIP_UDP_GetIsReady
                0x9d025274       0x60
 .text.TCPIP_UDP_GetIsReady
                0x9d025274       0x60 build/pic32mz_ef_sk/production/_ext/2027382860/udp.o
                0x9d025274                TCPIP_UDP_GetIsReady

.text.SYS_CONSOLE_Read
                0x9d0252d4       0x60
 .text.SYS_CONSOLE_Read
                0x9d0252d4       0x60 build/pic32mz_ef_sk/production/_ext/1702866625/sys_console.o
                0x9d0252d4                SYS_CONSOLE_Read

.text.Console_UART_PopQueue
                0x9d025334       0x60
 .text.Console_UART_PopQueue
                0x9d025334       0x60 build/pic32mz_ef_sk/production/_ext/1702866625/sys_console_uart.o

.text._MacTxDiscardQueues
                0x9d025394       0x5c
 .text._MacTxDiscardQueues
                0x9d025394       0x5c build/pic32mz_ef_sk/production/_ext/1314174413/drv_ethmac.o

.text.DRV_ETHPHY_LinkStatusGet
                0x9d0253f0       0x5c
 .text.DRV_ETHPHY_LinkStatusGet
                0x9d0253f0       0x5c build/pic32mz_ef_sk/production/_ext/138020607/drv_ethphy.o
                0x9d0253f0                DRV_ETHPHY_LinkStatusGet

.text.DRV_ETHPHY_NegotiationResultGet
                0x9d02544c       0x5c
 .text.DRV_ETHPHY_NegotiationResultGet
                0x9d02544c       0x5c build/pic32mz_ef_sk/production/_ext/138020607/drv_ethphy.o
                0x9d02544c                DRV_ETHPHY_NegotiationResultGet

.text._DRV_ETHPHY_ClientOpReset
                0x9d0254a8       0x5c
 .text._DRV_ETHPHY_ClientOpReset
                0x9d0254a8       0x5c build/pic32mz_ef_sk/production/_ext/138020607/drv_ethphy.o

.text._DRV_ETHPHY_ClientOpLinkStat
                0x9d025504       0x5c
 .text._DRV_ETHPHY_ClientOpLinkStat
                0x9d025504       0x5c build/pic32mz_ef_sk/production/_ext/138020607/drv_ethphy.o

.text._DRV_ETHPHY_ClientOpNegResult
                0x9d025560       0x5c
 .text._DRV_ETHPHY_ClientOpNegResult
                0x9d025560       0x5c build/pic32mz_ef_sk/production/_ext/138020607/drv_ethphy.o

.text._DRV_ETHPHY_ClientOpNegComplete
                0x9d0255bc       0x5c
 .text._DRV_ETHPHY_ClientOpNegComplete
                0x9d0255bc       0x5c build/pic32mz_ef_sk/production/_ext/138020607/drv_ethphy.o

.text._DRV_ETHPHY_ClientOpNegRestart
                0x9d025618       0x5c
 .text._DRV_ETHPHY_ClientOpNegRestart
                0x9d025618       0x5c build/pic32mz_ef_sk/production/_ext/138020607/drv_ethphy.o

.text._DRV_ETHPHY_SetupPhaseNegotiate
                0x9d025674       0x5c
 .text._DRV_ETHPHY_SetupPhaseNegotiate
                0x9d025674       0x5c build/pic32mz_ef_sk/production/_ext/138020607/drv_ethphy.o

.text._DRV_ETHPHY_ClientOpSmiRead
                0x9d0256d0       0x5c
 .text._DRV_ETHPHY_ClientOpSmiRead
                0x9d0256d0       0x5c build/pic32mz_ef_sk/production/_ext/138020607/drv_ethphy.o

.text._DNS_NetIsValid
                0x9d02572c       0x5c
 .text._DNS_NetIsValid
                0x9d02572c       0x5c build/pic32mz_ef_sk/production/_ext/2027382860/dns.o

.text._TCPSocketTxFreeSize
                0x9d025788       0x5c
 .text._TCPSocketTxFreeSize
                0x9d025788       0x5c build/pic32mz_ef_sk/production/_ext/2027382860/tcp.o

.text._TCPIP_HEAP_BufferMapNonCached
                0x9d0257e4       0x5c
 .text._TCPIP_HEAP_BufferMapNonCached
                0x9d0257e4       0x5c build/pic32mz_ef_sk/production/_ext/2027382860/tcpip_heap_alloc.o
                0x9d0257e4                _TCPIP_HEAP_BufferMapNonCached

.text.fnv_32_hash
                0x9d025840       0x5c
 .text.fnv_32_hash
                0x9d025840       0x5c build/pic32mz_ef_sk/production/_ext/2027382860/hash_fnv.o
                0x9d025840                fnv_32_hash

.text.TCPIP_Helper_ProtectedSingleListLock
                0x9d02589c       0x5c
 .text.TCPIP_Helper_ProtectedSingleListLock
                0x9d02589c       0x5c build/pic32mz_ef_sk/production/_ext/2027382860/tcpip_helpers.o
                0x9d02589c                TCPIP_Helper_ProtectedSingleListLock

.text.TCPIP_STACK_MACIdToNet
                0x9d0258f8       0x5c
 .text.TCPIP_STACK_MACIdToNet
                0x9d0258f8       0x5c build/pic32mz_ef_sk/production/_ext/2027382860/tcpip_manager.o
                0x9d0258f8                TCPIP_STACK_MACIdToNet

.text.CommandQuit
                0x9d025954       0x5c
 .text.CommandQuit
                0x9d025954       0x5c build/pic32mz_ef_sk/production/_ext/2135388491/sys_command.o

.text.modbus_init
                0x9d0259b0       0x5c
 .text.modbus_init
                0x9d0259b0       0x5c build/pic32mz_ef_sk/production/_ext/108032392/dialtek_modbus.o
                0x9d0259b0                modbus_init

.text._DRV_ETHMAC_LinkStateStartLink
                0x9d025a0c       0x58
 .text._DRV_ETHMAC_LinkStateStartLink
                0x9d025a0c       0x58 build/pic32mz_ef_sk/production/_ext/1314174413/drv_ethmac.o

.text._DRV_ETHPHY_ClientOpSetup
                0x9d025a64       0x58
 .text._DRV_ETHPHY_ClientOpSetup
                0x9d025a64       0x58 build/pic32mz_ef_sk/production/_ext/138020607/drv_ethphy.o

.text._DHCPOptionProcessLease
                0x9d025abc       0x58
 .text._DHCPOptionProcessLease
                0x9d025abc       0x58 build/pic32mz_ef_sk/production/_ext/2027382860/dhcp.o

.text._DHCPOptionProcessRenewT
                0x9d025b14       0x58
 .text._DHCPOptionProcessRenewT
                0x9d025b14       0x58 build/pic32mz_ef_sk/production/_ext/2027382860/dhcp.o

.text._DHCPOptionProcessRebindT
                0x9d025b6c       0x58
 .text._DHCPOptionProcessRebindT
                0x9d025b6c       0x58 build/pic32mz_ef_sk/production/_ext/2027382860/dhcp.o

.text.TCPIP_IPV4_CheckPktTx
                0x9d025bc4       0x58
 .text.TCPIP_IPV4_CheckPktTx
                0x9d025bc4       0x58 build/pic32mz_ef_sk/production/_ext/2027382860/ipv4.o

.text.TCPIP_STACK_InitializeDataGet
                0x9d025c1c       0x58
 .text.TCPIP_STACK_InitializeDataGet
                0x9d025c1c       0x58 build/pic32mz_ef_sk/production/_ext/2027382860/tcpip_manager.o
                0x9d025c1c                TCPIP_STACK_InitializeDataGet

.text.TCPIP_STACK_NetByAddress
                0x9d025c74       0x58
 .text.TCPIP_STACK_NetByAddress
                0x9d025c74       0x58 build/pic32mz_ef_sk/production/_ext/2027382860/tcpip_manager.o
                0x9d025c74                TCPIP_STACK_NetByAddress

.text.TCPIP_Notification_Remove
                0x9d025ccc       0x58
 .text.TCPIP_Notification_Remove
                0x9d025ccc       0x58 build/pic32mz_ef_sk/production/_ext/2027382860/tcpip_notify.o
                0x9d025ccc                TCPIP_Notification_Remove

.text.SYS_CONSOLE_Write
                0x9d025d24       0x58
 .text.SYS_CONSOLE_Write
                0x9d025d24       0x58 build/pic32mz_ef_sk/production/_ext/1702866625/sys_console.o
                0x9d025d24                SYS_CONSOLE_Write

.text.SYS_INT_SourceDisable
                0x9d025d7c       0x58
 .text.SYS_INT_SourceDisable
                0x9d025d7c       0x58 build/pic32mz_ef_sk/production/_ext/723085273/sys_int.o
                0x9d025d7c                SYS_INT_SourceDisable

.text.DRV_ETHMAC_PIC32MACOpen
                0x9d025dd4       0x54
 .text.DRV_ETHMAC_PIC32MACOpen
                0x9d025dd4       0x54 build/pic32mz_ef_sk/production/_ext/1314174413/drv_ethmac.o
                0x9d025dd4                DRV_ETHMAC_PIC32MACOpen

.text.DRV_ETHMAC_PIC32MACLinkCheck
                0x9d025e28       0x54
 .text.DRV_ETHMAC_PIC32MACLinkCheck
                0x9d025e28       0x54 build/pic32mz_ef_sk/production/_ext/1314174413/drv_ethmac.o
                0x9d025e28                DRV_ETHMAC_PIC32MACLinkCheck

.text._DRV_ETHMAC_LinkStateDown
                0x9d025e7c       0x54
 .text._DRV_ETHMAC_LinkStateDown
                0x9d025e7c       0x54 build/pic32mz_ef_sk/production/_ext/1314174413/drv_ethmac.o

.text._EnetDescriptorsCount
                0x9d025ed0       0x54
 .text._EnetDescriptorsCount
                0x9d025ed0       0x54 build/pic32mz_ef_sk/production/_ext/1314174413/drv_ethmac_lib.o

.rodata         0x9d025f24       0x54
 .rodata        0x9d025f24       0x54 build/pic32mz_ef_sk/production/_ext/1761147401/drv_miim.o
                0x9d025f24                DRV_MIIM_OBJECT_BASE_Default

.text._TCP_PortIsAvailable
                0x9d025f78       0x54
 .text._TCP_PortIsAvailable
                0x9d025f78       0x54 build/pic32mz_ef_sk/production/_ext/2027382860/tcp.o

.text.SYS_TIME_ResourceLock
                0x9d025fcc       0x54
 .text.SYS_TIME_ResourceLock
                0x9d025fcc       0x54 build/pic32mz_ef_sk/production/_ext/1658225107/sys_time.o

.text.modbus_tx_buf_add
                0x9d026020       0x54
 .text.modbus_tx_buf_add
                0x9d026020       0x54 build/pic32mz_ef_sk/production/_ext/1360937237/modbus_buf.o
                0x9d026020                modbus_tx_buf_add

.text.main_entry
                0x9d026074       0x54
 .text.main_entry
                0x9d026074       0x54 C:\Users\Reg\AppData\Local\Temp\ccyBwbgZ.o
                0x9d0260a8                __crt0_exit

.text._XtlEventsTcp2Eth
                0x9d0260c8       0x50
 .text._XtlEventsTcp2Eth
                0x9d0260c8       0x50 build/pic32mz_ef_sk/production/_ext/1314174413/drv_ethmac.o

.text.DRV_ETHPHY_HWConfigFlagsGet
                0x9d026118       0x50
 .text.DRV_ETHPHY_HWConfigFlagsGet
                0x9d026118       0x50 build/pic32mz_ef_sk/production/_ext/138020607/drv_ethphy.o
                0x9d026118                DRV_ETHPHY_HWConfigFlagsGet

.text._DRV_ETHPHY_NegResultPhase_ANLPAD
                0x9d026168       0x50
 .text._DRV_ETHPHY_NegResultPhase_ANLPAD
                0x9d026168       0x50 build/pic32mz_ef_sk/production/_ext/138020607/drv_ethphy.o

.text._DRV_ETHPHY_NegResultPhase_ANEXP
                0x9d0261b8       0x50
 .text._DRV_ETHPHY_NegResultPhase_ANEXP
                0x9d0261b8       0x50 build/pic32mz_ef_sk/production/_ext/138020607/drv_ethphy.o

.text.DRV_MIIM_Close
                0x9d026208       0x50
 .text.DRV_MIIM_Close
                0x9d026208       0x50 build/pic32mz_ef_sk/production/_ext/1761147401/drv_miim.o
                0x9d026208                DRV_MIIM_Close

.text.TCPIP_DNS_OAHASH_KeyHash
                0x9d026258       0x50
 .text.TCPIP_DNS_OAHASH_KeyHash
                0x9d026258       0x50 build/pic32mz_ef_sk/production/_ext/2027382860/dns.o

.text._TCPSetSourceAddress
                0x9d0262a8       0x50
 .text._TCPSetSourceAddress
                0x9d0262a8       0x50 build/pic32mz_ef_sk/production/_ext/2027382860/tcp.o

.text._TCPSetHalfFlushFlag
                0x9d0262f8       0x50
 .text._TCPSetHalfFlushFlag
                0x9d0262f8       0x50 build/pic32mz_ef_sk/production/_ext/2027382860/tcp.o

.text._TcpFlush
                0x9d026348       0x50
 .text._TcpFlush
                0x9d026348       0x50 build/pic32mz_ef_sk/production/_ext/2027382860/tcp.o

.rodata         0x9d026398       0x50
 .rodata        0x9d026398       0x50 build/pic32mz_ef_sk/production/_ext/2027382860/tcp.o

.text._DHCPOptionWriteParamRequest
                0x9d0263e8       0x50
 .text._DHCPOptionWriteParamRequest
                0x9d0263e8       0x50 build/pic32mz_ef_sk/production/_ext/2027382860/dhcp.o

.text._DHCPOptionProcessSrvIdent
                0x9d026438       0x50
 .text._DHCPOptionProcessSrvIdent
                0x9d026438       0x50 build/pic32mz_ef_sk/production/_ext/2027382860/dhcp.o

.text.TCPIP_Helper_ProtectedSingleListInitialize
                0x9d026488       0x50
 .text.TCPIP_Helper_ProtectedSingleListInitialize
                0x9d026488       0x50 build/pic32mz_ef_sk/production/_ext/2027382860/tcpip_helpers.o
                0x9d026488                TCPIP_Helper_ProtectedSingleListInitialize

.text.TCPIP_Helper_ProtectedSingleListUnlock
                0x9d0264d8       0x50
 .text.TCPIP_Helper_ProtectedSingleListUnlock
                0x9d0264d8       0x50 build/pic32mz_ef_sk/production/_ext/2027382860/tcpip_helpers.o
                0x9d0264d8                TCPIP_Helper_ProtectedSingleListUnlock

.text.TCPIP_STACK_NetMACStatisticsGet
                0x9d026528       0x50
 .text.TCPIP_STACK_NetMACStatisticsGet
                0x9d026528       0x50 build/pic32mz_ef_sk/production/_ext/2027382860/tcpip_manager.o
                0x9d026528                TCPIP_STACK_NetMACStatisticsGet

.text.TCPIP_STACK_NetMACRegisterStatisticsGet
                0x9d026578       0x50
 .text.TCPIP_STACK_NetMACRegisterStatisticsGet
                0x9d026578       0x50 build/pic32mz_ef_sk/production/_ext/2027382860/tcpip_manager.o
                0x9d026578                TCPIP_STACK_NetMACRegisterStatisticsGet

.text.TCPIP_Notification_Add
                0x9d0265c8       0x50
 .text.TCPIP_Notification_Add
                0x9d0265c8       0x50 build/pic32mz_ef_sk/production/_ext/2027382860/tcpip_notify.o
                0x9d0265c8                TCPIP_Notification_Add

.text._keyRightProcess
                0x9d026618       0x50
 .text._keyRightProcess
                0x9d026618       0x50 build/pic32mz_ef_sk/production/_ext/2135388491/sys_command.o

.text.sbrk      0x9d026668       0x50
 .text.sbrk     0x9d026668       0x50 c:/program files (x86)/microchip/xc32/v2.30/bin/bin/../../lib/gcc/pic32mx/4.8.3/../../../../pic32mx/lib/fpu64\libpic32.a(sbrk.o)
                0x9d026668                sbrk

.text._MACTxPacketAckCallback
                0x9d0266b8       0x4c
 .text._MACTxPacketAckCallback
                0x9d0266b8       0x4c build/pic32mz_ef_sk/production/_ext/1314174413/drv_ethmac.o

.text.DRV_ETH_MIIMReadStart
                0x9d026704       0x4c
 .text.DRV_ETH_MIIMReadStart
                0x9d026704       0x4c build/pic32mz_ef_sk/production/_ext/1314174413/drv_eth_pic32_lib.o
                0x9d026704                DRV_ETH_MIIMReadStart

.text.DRV_ETHPHY_Close
                0x9d026750       0x4c
 .text.DRV_ETHPHY_Close
                0x9d026750       0x4c build/pic32mz_ef_sk/production/_ext/138020607/drv_ethphy.o
                0x9d026750                DRV_ETHPHY_Close

.text.DRV_ETHPHY_Reset
                0x9d02679c       0x4c
 .text.DRV_ETHPHY_Reset
                0x9d02679c       0x4c build/pic32mz_ef_sk/production/_ext/138020607/drv_ethphy.o
                0x9d02679c                DRV_ETHPHY_Reset

.text.DRV_ETHPHY_NegotiationIsComplete
                0x9d0267e8       0x4c
 .text.DRV_ETHPHY_NegotiationIsComplete
                0x9d0267e8       0x4c build/pic32mz_ef_sk/production/_ext/138020607/drv_ethphy.o
                0x9d0267e8                DRV_ETHPHY_NegotiationIsComplete

.text._DRV_PHY_NegCompleteSetOperResult
                0x9d026834       0x4c
 .text._DRV_PHY_NegCompleteSetOperResult
                0x9d026834       0x4c build/pic32mz_ef_sk/production/_ext/138020607/drv_ethphy.o

.text._DRV_ETHPHY_SetupPhaseNegotiate_SubPhase4
                0x9d026880       0x4c
 .text._DRV_ETHPHY_SetupPhaseNegotiate_SubPhase4
                0x9d026880       0x4c build/pic32mz_ef_sk/production/_ext/138020607/drv_ethphy.o

.text.TCPIP_TCP_Flush
                0x9d0268cc       0x4c
 .text.TCPIP_TCP_Flush
                0x9d0268cc       0x4c build/pic32mz_ef_sk/production/_ext/2027382860/tcp.o
                0x9d0268cc                TCPIP_TCP_Flush

.text._ARPRemoveCacheEntries
                0x9d026918       0x4c
 .text._ARPRemoveCacheEntries
                0x9d026918       0x4c build/pic32mz_ef_sk/production/_ext/2027382860/arp.o

.text._TCPIP_HEAP_Calloc
                0x9d026964       0x4c
 .text._TCPIP_HEAP_Calloc
                0x9d026964       0x4c build/pic32mz_ef_sk/production/_ext/2027382860/tcpip_heap_internal.o

.text.TCPIP_STACK_NetAddressMacSet
                0x9d0269b0       0x4c
 .text.TCPIP_STACK_NetAddressMacSet
                0x9d0269b0       0x4c build/pic32mz_ef_sk/production/_ext/2027382860/tcpip_manager.o
                0x9d0269b0                TCPIP_STACK_NetAddressMacSet

.text.TCPIP_STACK_DNSServiceCanStart
                0x9d0269fc       0x4c
 .text.TCPIP_STACK_DNSServiceCanStart
                0x9d0269fc       0x4c build/pic32mz_ef_sk/production/_ext/2027382860/tcpip_manager.o
                0x9d0269fc                TCPIP_STACK_DNSServiceCanStart

.text._TCPIPStackSignalHandlerSetParams
                0x9d026a48       0x4c
 .text._TCPIPStackSignalHandlerSetParams
                0x9d026a48       0x4c build/pic32mz_ef_sk/production/_ext/2027382860/tcpip_manager.o
                0x9d026a48                _TCPIPStackSignalHandlerSetParams

.text.TCPIP_Notification_RemoveAll
                0x9d026a94       0x4c
 .text.TCPIP_Notification_RemoveAll
                0x9d026a94       0x4c build/pic32mz_ef_sk/production/_ext/2027382860/tcpip_notify.o
                0x9d026a94                TCPIP_Notification_RemoveAll

.text.TCPIP_UDP_Discard
                0x9d026ae0       0x4c
 .text.TCPIP_UDP_Discard
                0x9d026ae0       0x4c build/pic32mz_ef_sk/production/_ext/2027382860/udp.o
                0x9d026ae0                TCPIP_UDP_Discard

.text.UART2_FAULT_InterruptHandler
                0x9d026b2c       0x4c
 .text.UART2_FAULT_InterruptHandler
                0x9d026b2c       0x4c build/pic32mz_ef_sk/production/_ext/309316908/plib_uart2.o
                0x9d026b2c                UART2_FAULT_InterruptHandler

.text.Console_UART_Status
                0x9d026b78       0x4c
 .text.Console_UART_Status
                0x9d026b78       0x4c build/pic32mz_ef_sk/production/_ext/1702866625/sys_console_uart.o
                0x9d026b78                Console_UART_Status

.text.calloc    0x9d026bc4       0x4c
 .text.calloc   0x9d026bc4       0x4c c:/program files (x86)/microchip/xc32/v2.30/bin/bin/../../lib/gcc/pic32mx/4.8.3/../../../../pic32mx/lib/fpu64\libc.a(calloc.o)
                0x9d026bc4                calloc

.text.DRV_ETH_MIIMWriteDataSet
                0x9d026c10       0x48
 .text.DRV_ETH_MIIMWriteDataSet
                0x9d026c10       0x48 build/pic32mz_ef_sk/production/_ext/1314174413/drv_eth_pic32_lib.o
                0x9d026c10                DRV_ETH_MIIMWriteDataSet

.text.DRV_ETHPHY_Reinitialize
                0x9d026c58       0x48
 .text.DRV_ETHPHY_Reinitialize
                0x9d026c58       0x48 build/pic32mz_ef_sk/production/_ext/138020607/drv_ethphy.o
                0x9d026c58                DRV_ETHPHY_Reinitialize

.text.DRV_ETHPHY_RestartNegotiation
                0x9d026ca0       0x48
 .text.DRV_ETHPHY_RestartNegotiation
                0x9d026ca0       0x48 build/pic32mz_ef_sk/production/_ext/138020607/drv_ethphy.o
                0x9d026ca0                DRV_ETHPHY_RestartNegotiation

.text._DRV_ETHPHY_ClientOpSmiWrite
                0x9d026ce8       0x48
 .text._DRV_ETHPHY_ClientOpSmiWrite
                0x9d026ce8       0x48 build/pic32mz_ef_sk/production/_ext/138020607/drv_ethphy.o

.text._DRV_ETHPHY_NegRestartPhaseWrite
                0x9d026d30       0x48
 .text._DRV_ETHPHY_NegRestartPhaseWrite
                0x9d026d30       0x48 build/pic32mz_ef_sk/production/_ext/138020607/drv_ethphy.o

.text._DHCPOptionWriteMsgType
                0x9d026d78       0x48
 .text._DHCPOptionWriteMsgType
                0x9d026d78       0x48 build/pic32mz_ef_sk/production/_ext/2027382860/dhcp.o

.text.TCPIP_ARP_HandlerDeRegister
                0x9d026dc0       0x48
 .text.TCPIP_ARP_HandlerDeRegister
                0x9d026dc0       0x48 build/pic32mz_ef_sk/production/_ext/2027382860/arp.o
                0x9d026dc0                TCPIP_ARP_HandlerDeRegister

.text.TCPIP_HEAP_Create
                0x9d026e08       0x48
 .text.TCPIP_HEAP_Create
                0x9d026e08       0x48 build/pic32mz_ef_sk/production/_ext/2027382860/tcpip_heap_alloc.o
                0x9d026e08                TCPIP_HEAP_Create

.text.TCPIP_Helper_SingleListAppend
                0x9d026e50       0x48
 .text.TCPIP_Helper_SingleListAppend
                0x9d026e50       0x48 build/pic32mz_ef_sk/production/_ext/2027382860/tcpip_helpers.o
                0x9d026e50                TCPIP_Helper_SingleListAppend

.text._TCPIP_STACK_TickHandler
                0x9d026e98       0x48
 .text._TCPIP_STACK_TickHandler
                0x9d026e98       0x48 build/pic32mz_ef_sk/production/_ext/2027382860/tcpip_manager.o

.text.TCPIP_STACK_IPAddToNet
                0x9d026ee0       0x48
 .text.TCPIP_STACK_IPAddToNet
                0x9d026ee0       0x48 build/pic32mz_ef_sk/production/_ext/2027382860/tcpip_manager.o
                0x9d026ee0                TCPIP_STACK_IPAddToNet

.text.TCPIP_STACK_AddressServiceDefaultSet
                0x9d026f28       0x48
 .text.TCPIP_STACK_AddressServiceDefaultSet
                0x9d026f28       0x48 build/pic32mz_ef_sk/production/_ext/2027382860/tcpip_manager.o
                0x9d026f28                TCPIP_STACK_AddressServiceDefaultSet

.text._UDPIsAvailablePort
                0x9d026f70       0x48
 .text._UDPIsAvailablePort
                0x9d026f70       0x48 build/pic32mz_ef_sk/production/_ext/2027382860/udp.o

.text.TCPIP_UDP_DestinationPortSet
                0x9d026fb8       0x48
 .text.TCPIP_UDP_DestinationPortSet
                0x9d026fb8       0x48 build/pic32mz_ef_sk/production/_ext/2027382860/udp.o
                0x9d026fb8                TCPIP_UDP_DestinationPortSet

.text.GetCommandCharacter
                0x9d027000       0x48
 .text.GetCommandCharacter
                0x9d027000       0x48 build/pic32mz_ef_sk/production/_ext/2135388491/sys_command.o

.text._keyLeftProcess
                0x9d027048       0x48
 .text._keyLeftProcess
                0x9d027048       0x48 build/pic32mz_ef_sk/production/_ext/2135388491/sys_command.o

.text.SYS_CONSOLE_RegisterCallback
                0x9d027090       0x48
 .text.SYS_CONSOLE_RegisterCallback
                0x9d027090       0x48 build/pic32mz_ef_sk/production/_ext/1702866625/sys_console.o
                0x9d027090                SYS_CONSOLE_RegisterCallback

.text.TCPIP_STACK_Init
                0x9d0270d8       0x48
 .text.TCPIP_STACK_Init
                0x9d0270d8       0x48 build/pic32mz_ef_sk/production/_ext/942849350/initialization.o
                0x9d0270d8                TCPIP_STACK_Init

.text._general_exception_handler
                0x9d027120       0x48
 .text._general_exception_handler
                0x9d027120       0x48 build/pic32mz_ef_sk/production/_ext/942849350/exceptions.o
                0x9d027120                _general_exception_handler

.text._bootstrap_exception_handler
                0x9d027168       0x48
 .text._bootstrap_exception_handler
                0x9d027168       0x48 c:/program files (x86)/microchip/xc32/v2.30/bin/bin/../../lib/gcc/pic32mx/4.8.3/../../../../pic32mx/lib/fpu64\libpic32.a(default-bootstrap-exception-handler.o)
                0x9d027168                _bootstrap_exception_handler

.text._cache_err_exception_handler
                0x9d0271b0       0x48
 .text._cache_err_exception_handler
                0x9d0271b0       0x48 c:/program files (x86)/microchip/xc32/v2.30/bin/bin/../../lib/gcc/pic32mx/4.8.3/../../../../pic32mx/lib/fpu64\libpic32.a(default-cache-err-exception-handler.o)
                0x9d0271b0                _cache_err_exception_handler

.text._simple_tlb_refill_exception_handler
                0x9d0271f8       0x48
 .text._simple_tlb_refill_exception_handler
                0x9d0271f8       0x48 c:/program files (x86)/microchip/xc32/v2.30/bin/bin/../../lib/gcc/pic32mx/4.8.3/../../../../pic32mx/lib/fpu64\libpic32.a(default-simple-tlb-refill-exception-handler.o)
                0x9d0271f8                _simple_tlb_refill_exception_handler

.text.DRV_ETHPHY_Tasks
                0x9d027240       0x44
 .text.DRV_ETHPHY_Tasks
                0x9d027240       0x44 build/pic32mz_ef_sk/production/_ext/138020607/drv_ethphy.o
                0x9d027240                DRV_ETHPHY_Tasks

.text.TCPIP_TCP_IsConnected
                0x9d027284       0x44
 .text.TCPIP_TCP_IsConnected
                0x9d027284       0x44 build/pic32mz_ef_sk/production/_ext/2027382860/tcp.o
                0x9d027284                TCPIP_TCP_IsConnected

.text._SwapARPPacket
                0x9d0272c8       0x44
 .text._SwapARPPacket
                0x9d0272c8       0x44 build/pic32mz_ef_sk/production/_ext/2027382860/arp.o

.text.Ipv4DeRegisterFilter
                0x9d02730c       0x44
 .text.Ipv4DeRegisterFilter
                0x9d02730c       0x44 build/pic32mz_ef_sk/production/_ext/2027382860/ipv4.o
                0x9d02730c                Ipv4DeRegisterFilter

.text.TCPIP_STACK_NetMask
                0x9d027350       0x44
 .text.TCPIP_STACK_NetMask
                0x9d027350       0x44 build/pic32mz_ef_sk/production/_ext/2027382860/tcpip_manager.o
                0x9d027350                TCPIP_STACK_NetMask

.text.TCPIP_STACK_NetIsBcastAddress
                0x9d027394       0x44
 .text.TCPIP_STACK_NetIsBcastAddress
                0x9d027394       0x44 build/pic32mz_ef_sk/production/_ext/2027382860/tcpip_manager.o
                0x9d027394                TCPIP_STACK_NetIsBcastAddress

.text.TCPIP_STACK_NetIsLinked
                0x9d0273d8       0x44
 .text.TCPIP_STACK_NetIsLinked
                0x9d0273d8       0x44 build/pic32mz_ef_sk/production/_ext/2027382860/tcpip_manager.o
                0x9d0273d8                TCPIP_STACK_NetIsLinked

.text.TCPIP_STACK_NetAddressMac
                0x9d02741c       0x44
 .text.TCPIP_STACK_NetAddressMac
                0x9d02741c       0x44 build/pic32mz_ef_sk/production/_ext/2027382860/tcpip_manager.o
                0x9d02741c                TCPIP_STACK_NetAddressMac

.rodata         0x9d027460       0x44
 .rodata        0x9d027460       0x44 build/pic32mz_ef_sk/production/_ext/2027382860/udp.o

.text.TCPIP_UDP_TxPointerGet
                0x9d0274a4       0x44
 .text.TCPIP_UDP_TxPointerGet
                0x9d0274a4       0x44 build/pic32mz_ef_sk/production/_ext/2027382860/udp.o
                0x9d0274a4                TCPIP_UDP_TxPointerGet

.text.EVIC_Initialize
                0x9d0274e8       0x44
 .text.EVIC_Initialize
                0x9d0274e8       0x44 build/pic32mz_ef_sk/production/_ext/308860137/plib_evic.o
                0x9d0274e8                EVIC_Initialize

.text           0x9d02752c       0x44
 .text          0x9d02752c       0x44 c:/program files (x86)/microchip/xc32/v2.30/bin/bin/../../lib/gcc/pic32mx/4.8.3/../../../../pic32mx/lib/fpu64\pic32_software_reset.o
                0x9d02752c                __pic32_software_reset

.text.DRV_ETH_MACSetAddress
                0x9d027570       0x40
 .text.DRV_ETH_MACSetAddress
                0x9d027570       0x40 build/pic32mz_ef_sk/production/_ext/1314174413/drv_eth_pic32_lib.o
                0x9d027570                DRV_ETH_MACSetAddress

.text.DRV_ETH_MACGetAddress
                0x9d0275b0       0x40
 .text.DRV_ETH_MACGetAddress
                0x9d0275b0       0x40 build/pic32mz_ef_sk/production/_ext/1314174413/drv_eth_pic32_lib.o
                0x9d0275b0                DRV_ETH_MACGetAddress

.text._DRV_ETHPHY_NegCompletePhaseResultNoWait
                0x9d0275f0       0x40
 .text._DRV_ETHPHY_NegCompletePhaseResultNoWait
                0x9d0275f0       0x40 build/pic32mz_ef_sk/production/_ext/138020607/drv_ethphy.o

.text.TCPIP_ICMP_Deinitialize
                0x9d027630       0x40
 .text.TCPIP_ICMP_Deinitialize
                0x9d027630       0x40 build/pic32mz_ef_sk/production/_ext/2027382860/icmp.o
                0x9d027630                TCPIP_ICMP_Deinitialize

.text.TCPIP_TCP_PutIsReady
                0x9d027670       0x40
 .text.TCPIP_TCP_PutIsReady
                0x9d027670       0x40 build/pic32mz_ef_sk/production/_ext/2027382860/tcp.o
                0x9d027670                TCPIP_TCP_PutIsReady

.text.TCPIP_Commands_Deinitialize
                0x9d0276b0       0x40
 .text.TCPIP_Commands_Deinitialize
                0x9d0276b0       0x40 build/pic32mz_ef_sk/production/_ext/2027382860/tcpip_commands.o
                0x9d0276b0                TCPIP_Commands_Deinitialize

.text._TCPIPSignalEntryNotify
                0x9d0276f0       0x40
 .text._TCPIPSignalEntryNotify
                0x9d0276f0       0x40 build/pic32mz_ef_sk/production/_ext/2027382860/tcpip_manager.o

.text._UDPFreeRxQueue
                0x9d027730       0x40
 .text._UDPFreeRxQueue
                0x9d027730       0x40 build/pic32mz_ef_sk/production/_ext/2027382860/udp.o

.text.CORE_TIMER_InterruptHandler
                0x9d027770       0x40
 .text.CORE_TIMER_InterruptHandler
                0x9d027770       0x40 build/pic32mz_ef_sk/production/_ext/1710852712/plib_coretimer.o
                0x9d027770                CORE_TIMER_InterruptHandler

.text.SendCommandCharacter
                0x9d0277b0       0x40
 .text.SendCommandCharacter
                0x9d0277b0       0x40 build/pic32mz_ef_sk/production/_ext/2135388491/sys_command.o

.text.SYS_TIME_ResourceUnlock
                0x9d0277f0       0x40
 .text.SYS_TIME_ResourceUnlock
                0x9d0277f0       0x40 build/pic32mz_ef_sk/production/_ext/1658225107/sys_time.o

.text.SYS_Tasks
                0x9d027830       0x40
 .text.SYS_Tasks
                0x9d027830       0x40 build/pic32mz_ef_sk/production/_ext/942849350/tasks.o
                0x9d027830                SYS_Tasks

.text._printf_cdnopsuxX
                0x9d027870       0x40
 .text._printf_cdnopsuxX
                0x9d027870       0x40 c:/program files (x86)/microchip/xc32/v2.30/bin/bin/../../lib/gcc/pic32mx/4.8.3/../../../../pic32mx/lib/fpu64\libc.a(printf_cdnopsuxX.eo)
                0x9d027870                _printf_cdnopsuxX

.text           0x9d0278b0       0x40
 .text          0x9d0278b0       0x40 c:/program files (x86)/microchip/xc32/v2.30/bin/bin/../../lib/gcc/pic32mx/4.8.3/fpu64\libgcc.a(_cmpdi2.o)
                0x9d0278b0                __cmpdi2

.text.DRV_ETHMAC_SingleListHeadRemove
                0x9d0278f0       0x3c
 .text.DRV_ETHMAC_SingleListHeadRemove
                0x9d0278f0       0x3c build/pic32mz_ef_sk/production/_ext/1314174413/drv_ethmac_lib.o
                0x9d0278f0                DRV_ETHMAC_SingleListHeadRemove

.text.DRV_MIIM_Status
                0x9d02792c       0x3c
 .text.DRV_MIIM_Status
                0x9d02792c       0x3c build/pic32mz_ef_sk/production/_ext/1761147401/drv_miim.o
                0x9d02792c                DRV_MIIM_Status

.text.Helper_SingleListHeadRemove
                0x9d027968       0x3c
 .text.Helper_SingleListHeadRemove
                0x9d027968       0x3c build/pic32mz_ef_sk/production/_ext/1761147401/drv_miim.o
                0x9d027968                Helper_SingleListHeadRemove

.text.TCPIP_DNS_IsResolved
                0x9d0279a4       0x3c
 .text.TCPIP_DNS_IsResolved
                0x9d0279a4       0x3c build/pic32mz_ef_sk/production/_ext/2027382860/dns.o
                0x9d0279a4                TCPIP_DNS_IsResolved

.text._TCPIsGetReady
                0x9d0279e0       0x3c
 .text._TCPIsGetReady
                0x9d0279e0       0x3c build/pic32mz_ef_sk/production/_ext/2027382860/tcp.o

.text._ARPTxAckFnc
                0x9d027a1c       0x3c
 .text._ARPTxAckFnc
                0x9d027a1c       0x3c build/pic32mz_ef_sk/production/_ext/2027382860/arp.o

.text.TCPIP_ARP_HashKeyHash
                0x9d027a58       0x3c
 .text.TCPIP_ARP_HashKeyHash
                0x9d027a58       0x3c build/pic32mz_ef_sk/production/_ext/2027382860/arp.o
                0x9d027a58                TCPIP_ARP_HashKeyHash

.text.TCPIP_OAHASH_Initialize
                0x9d027a94       0x3c
 .text.TCPIP_OAHASH_Initialize
                0x9d027a94       0x3c build/pic32mz_ef_sk/production/_ext/2027382860/oahash.o
                0x9d027a94                TCPIP_OAHASH_Initialize

.text.TCPIP_Helper_SingleListHeadRemove
                0x9d027ad0       0x3c
 .text.TCPIP_Helper_SingleListHeadRemove
                0x9d027ad0       0x3c build/pic32mz_ef_sk/production/_ext/2027382860/tcpip_helpers.o
                0x9d027ad0                TCPIP_Helper_SingleListHeadRemove

.text.TCPIP_STACK_IndexToNet
                0x9d027b0c       0x3c
 .text.TCPIP_STACK_IndexToNet
                0x9d027b0c       0x3c build/pic32mz_ef_sk/production/_ext/2027382860/tcpip_manager.o
                0x9d027b0c                TCPIP_STACK_IndexToNet

.text._TCPIPStackSetConfigAddress
                0x9d027b48       0x3c
 .text._TCPIPStackSetConfigAddress
                0x9d027b48       0x3c build/pic32mz_ef_sk/production/_ext/2027382860/tcpip_manager.o
                0x9d027b48                _TCPIPStackSetConfigAddress

.text._TCPIPStackModuleSignalGet
                0x9d027b84       0x3c
 .text._TCPIPStackModuleSignalGet
                0x9d027b84       0x3c build/pic32mz_ef_sk/production/_ext/2027382860/tcpip_manager.o
                0x9d027b84                _TCPIPStackModuleSignalGet

.text.TCPIP_STACK_Deinitialize
                0x9d027bc0       0x3c
 .text.TCPIP_STACK_Deinitialize
                0x9d027bc0       0x3c build/pic32mz_ef_sk/production/_ext/2027382860/tcpip_manager.o
                0x9d027bc0                TCPIP_STACK_Deinitialize

.text._TCPIPStackPacketTx
                0x9d027bfc       0x3c
 .text._TCPIPStackPacketTx
                0x9d027bfc       0x3c build/pic32mz_ef_sk/production/_ext/2027382860/tcpip_manager.o
                0x9d027bfc                _TCPIPStackPacketTx

.text._UDPTxPktValid
                0x9d027c38       0x3c
 .text._UDPTxPktValid
                0x9d027c38       0x3c build/pic32mz_ef_sk/production/_ext/2027382860/udp.o

.text.SendCommandMessage
                0x9d027c74       0x3c
 .text.SendCommandMessage
                0x9d027c74       0x3c build/pic32mz_ef_sk/production/_ext/2135388491/sys_command.o

.text._keyDownProcess
                0x9d027cb0       0x3c
 .text._keyDownProcess
                0x9d027cb0       0x3c build/pic32mz_ef_sk/production/_ext/2135388491/sys_command.o

.text.DRV_ETHMAC_LibDescriptorGetBuffer
                0x9d027cec       0x38
 .text.DRV_ETHMAC_LibDescriptorGetBuffer
                0x9d027cec       0x38 build/pic32mz_ef_sk/production/_ext/1314174413/drv_ethmac_lib.o
                0x9d027cec                DRV_ETHMAC_LibDescriptorGetBuffer

.text.DRV_ETHMAC_LibRxPendingBuffersGet
                0x9d027d24       0x38
 .text.DRV_ETHMAC_LibRxPendingBuffersGet
                0x9d027d24       0x38 build/pic32mz_ef_sk/production/_ext/1314174413/drv_ethmac_lib.o
                0x9d027d24                DRV_ETHMAC_LibRxPendingBuffersGet

.text.DRV_ETHMAC_LibRxScheduledBuffersGet
                0x9d027d5c       0x38
 .text.DRV_ETHMAC_LibRxScheduledBuffersGet
                0x9d027d5c       0x38 build/pic32mz_ef_sk/production/_ext/1314174413/drv_ethmac_lib.o
                0x9d027d5c                DRV_ETHMAC_LibRxScheduledBuffersGet

.text.DRV_ETHMAC_LibTxPendingBuffersGet
                0x9d027d94       0x38
 .text.DRV_ETHMAC_LibTxPendingBuffersGet
                0x9d027d94       0x38 build/pic32mz_ef_sk/production/_ext/1314174413/drv_ethmac_lib.o
                0x9d027d94                DRV_ETHMAC_LibTxPendingBuffersGet

.text._DRV_PHY_SMIReadStart
                0x9d027dcc       0x38
 .text._DRV_PHY_SMIReadStart
                0x9d027dcc       0x38 build/pic32mz_ef_sk/production/_ext/138020607/drv_ethphy.o

.text._DRV_PHY_SMIWriteStart
                0x9d027e04       0x38
 .text._DRV_PHY_SMIWriteStart
                0x9d027e04       0x38 build/pic32mz_ef_sk/production/_ext/138020607/drv_ethphy.o

.text._DRV_ETHPHY_ResetPhaseIdle
                0x9d027e3c       0x38
 .text._DRV_ETHPHY_ResetPhaseIdle
                0x9d027e3c       0x38 build/pic32mz_ef_sk/production/_ext/138020607/drv_ethphy.o

.text.TCPIP_DHCP_Enable
                0x9d027e74       0x38
 .text.TCPIP_DHCP_Enable
                0x9d027e74       0x38 build/pic32mz_ef_sk/production/_ext/2027382860/dhcp.o
                0x9d027e74                TCPIP_DHCP_Enable

.text.TCPIP_DHCP_Renew
                0x9d027eac       0x38
 .text.TCPIP_DHCP_Renew
                0x9d027eac       0x38 build/pic32mz_ef_sk/production/_ext/2027382860/dhcp.o
                0x9d027eac                TCPIP_DHCP_Renew

.text.TCPIP_DHCP_Request
                0x9d027ee4       0x38
 .text.TCPIP_DHCP_Request
                0x9d027ee4       0x38 build/pic32mz_ef_sk/production/_ext/2027382860/dhcp.o
                0x9d027ee4                TCPIP_DHCP_Request

.text._ARPAllocateTxPacket
                0x9d027f1c       0x38
 .text._ARPAllocateTxPacket
                0x9d027f1c       0x38 build/pic32mz_ef_sk/production/_ext/2027382860/arp.o

.text.TCPIP_PKT_PayloadLen
                0x9d027f54       0x38
 .text.TCPIP_PKT_PayloadLen
                0x9d027f54       0x38 build/pic32mz_ef_sk/production/_ext/2027382860/tcpip_packet.o
                0x9d027f54                TCPIP_PKT_PayloadLen

.text._keyUpProcess
                0x9d027f8c       0x38
 .text._keyUpProcess
                0x9d027f8c       0x38 build/pic32mz_ef_sk/production/_ext/2135388491/sys_command.o

.text.SYS_TIME_GetElapsedCount
                0x9d027fc4       0x38
 .text.SYS_TIME_GetElapsedCount
                0x9d027fc4       0x38 build/pic32mz_ef_sk/production/_ext/1658225107/sys_time.o

.text.DRV_ETHPHY_PhyAddressGet
                0x9d027ffc       0x34
 .text.DRV_ETHPHY_PhyAddressGet
                0x9d027ffc       0x34 build/pic32mz_ef_sk/production/_ext/138020607/drv_ethphy.o
                0x9d027ffc                DRV_ETHPHY_PhyAddressGet

.text.DRV_ETHPHY_ClientOperationAbort
                0x9d028030       0x34
 .text.DRV_ETHPHY_ClientOperationAbort
                0x9d028030       0x34 build/pic32mz_ef_sk/production/_ext/138020607/drv_ethphy.o
                0x9d028030                DRV_ETHPHY_ClientOperationAbort

.text._DRV_ETHPHY_NegRestartPhaseIdle
                0x9d028064       0x34
 .text._DRV_ETHPHY_NegRestartPhaseIdle
                0x9d028064       0x34 build/pic32mz_ef_sk/production/_ext/138020607/drv_ethphy.o

.text._DRV_ETHPHY_NegResultPhaseIdle
                0x9d028098       0x34
 .text._DRV_ETHPHY_NegResultPhaseIdle
                0x9d028098       0x34 build/pic32mz_ef_sk/production/_ext/138020607/drv_ethphy.o

.text._DRV_ETHPHY_NegCompletePhaseIdle
                0x9d0280cc       0x34
 .text._DRV_ETHPHY_NegCompletePhaseIdle
                0x9d0280cc       0x34 build/pic32mz_ef_sk/production/_ext/138020607/drv_ethphy.o

.text._DRV_ETHPHY_LinkStatPhaseIdle
                0x9d028100       0x34
 .text._DRV_ETHPHY_LinkStatPhaseIdle
                0x9d028100       0x34 build/pic32mz_ef_sk/production/_ext/138020607/drv_ethphy.o

.text._TcpSocketChk
                0x9d028134       0x34
 .text._TcpSocketChk
                0x9d028134       0x34 build/pic32mz_ef_sk/production/_ext/2027382860/tcp.o

.text.TCPIP_TCP_GetIsReady
                0x9d028168       0x34
 .text.TCPIP_TCP_GetIsReady
                0x9d028168       0x34 build/pic32mz_ef_sk/production/_ext/2027382860/tcp.o
                0x9d028168                TCPIP_TCP_GetIsReady

.text.TCPIP_STACK_NetAddressBcast
                0x9d02819c       0x34
 .text.TCPIP_STACK_NetAddressBcast
                0x9d02819c       0x34 build/pic32mz_ef_sk/production/_ext/2027382860/tcpip_manager.o
                0x9d02819c                TCPIP_STACK_NetAddressBcast

.text.TCPIP_STACK_DNSServiceSelect
                0x9d0281d0       0x34
 .text.TCPIP_STACK_DNSServiceSelect
                0x9d0281d0       0x34 build/pic32mz_ef_sk/production/_ext/2027382860/tcpip_manager.o
                0x9d0281d0                TCPIP_STACK_DNSServiceSelect

.text.TCPIP_STACK_AddressServiceSelect
                0x9d028204       0x34
 .text.TCPIP_STACK_AddressServiceSelect
                0x9d028204       0x34 build/pic32mz_ef_sk/production/_ext/2027382860/tcpip_manager.o
                0x9d028204                TCPIP_STACK_AddressServiceSelect

.text.TCPIP_STACK_NetAddress
                0x9d028238       0x34
 .text.TCPIP_STACK_NetAddress
                0x9d028238       0x34 build/pic32mz_ef_sk/production/_ext/2027382860/tcpip_manager.o
                0x9d028238                TCPIP_STACK_NetAddress

.text._TCPIPStackHandleToNetLinked
                0x9d02826c       0x34
 .text._TCPIPStackHandleToNetLinked
                0x9d02826c       0x34 build/pic32mz_ef_sk/production/_ext/2027382860/tcpip_manager.o
                0x9d02826c                _TCPIPStackHandleToNetLinked

.text.TCPIP_STACK_NetIsReady
                0x9d0282a0       0x34
 .text.TCPIP_STACK_NetIsReady
                0x9d0282a0       0x34 build/pic32mz_ef_sk/production/_ext/2027382860/tcpip_manager.o
                0x9d0282a0                TCPIP_STACK_NetIsReady

.text._UDPSocketDcpt
                0x9d0282d4       0x34
 .text._UDPSocketDcpt
                0x9d0282d4       0x34 build/pic32mz_ef_sk/production/_ext/2027382860/udp.o

.text._UDPUpdatePacketLock
                0x9d028308       0x34
 .text._UDPUpdatePacketLock
                0x9d028308       0x34 build/pic32mz_ef_sk/production/_ext/2027382860/udp.o

.text.CORETIMER_Stop
                0x9d02833c       0x34
 .text.CORETIMER_Stop
                0x9d02833c       0x34 build/pic32mz_ef_sk/production/_ext/1710852712/plib_coretimer.o
                0x9d02833c                CORETIMER_Stop

.text.SYS_TIME_Counter64Update
                0x9d028370       0x34
 .text.SYS_TIME_Counter64Update
                0x9d028370       0x34 build/pic32mz_ef_sk/production/_ext/1658225107/sys_time.o

.text._MacCallocCallback
                0x9d0283a4       0x30
 .text._MacCallocCallback
                0x9d0283a4       0x30 build/pic32mz_ef_sk/production/_ext/1314174413/drv_ethmac.o

.text.DRV_ETHMAC_PIC32MACDeinitialize
                0x9d0283d4       0x30
 .text.DRV_ETHMAC_PIC32MACDeinitialize
                0x9d0283d4       0x30 build/pic32mz_ef_sk/production/_ext/1314174413/drv_ethmac.o
                0x9d0283d4                DRV_ETHMAC_PIC32MACDeinitialize

.text.DRV_ETHMAC_SingleListTailAdd
                0x9d028404       0x30
 .text.DRV_ETHMAC_SingleListTailAdd
                0x9d028404       0x30 build/pic32mz_ef_sk/production/_ext/1314174413/drv_ethmac_lib.o
                0x9d028404                DRV_ETHMAC_SingleListTailAdd

.text.DRV_ETH_RxSetBufferSize
                0x9d028434       0x30
 .text.DRV_ETH_RxSetBufferSize
                0x9d028434       0x30 build/pic32mz_ef_sk/production/_ext/1314174413/drv_eth_pic32_lib.o
                0x9d028434                DRV_ETH_RxSetBufferSize

.text.DRV_ETHPHY_VendorDataGet
                0x9d028464       0x30
 .text.DRV_ETHPHY_VendorDataGet
                0x9d028464       0x30 build/pic32mz_ef_sk/production/_ext/138020607/drv_ethphy.o
                0x9d028464                DRV_ETHPHY_VendorDataGet

.text.Helper_SingleListTailAdd
                0x9d028494       0x30
 .text.Helper_SingleListTailAdd
                0x9d028494       0x30 build/pic32mz_ef_sk/production/_ext/1761147401/drv_miim.o
                0x9d028494                Helper_SingleListTailAdd

.text.DRV_MIIM_Read
                0x9d0284c4       0x30
 .text.DRV_MIIM_Read
                0x9d0284c4       0x30 build/pic32mz_ef_sk/production/_ext/1761147401/drv_miim.o
                0x9d0284c4                DRV_MIIM_Read

.text.DRV_MIIM_Write
                0x9d0284f4       0x30
 .text.DRV_MIIM_Write
                0x9d0284f4       0x30 build/pic32mz_ef_sk/production/_ext/1761147401/drv_miim.o
                0x9d0284f4                DRV_MIIM_Write

.text.DRV_MIIM_Scan
                0x9d028524       0x30
 .text.DRV_MIIM_Scan
                0x9d028524       0x30 build/pic32mz_ef_sk/production/_ext/1761147401/drv_miim.o
                0x9d028524                DRV_MIIM_Scan

.text._DNSSocketRxSignalHandler
                0x9d028554       0x30
 .text._DNSSocketRxSignalHandler
                0x9d028554       0x30 build/pic32mz_ef_sk/production/_ext/2027382860/dns.o

.text.TCPIP_ICMP_Cleanup
                0x9d028584       0x30
 .text.TCPIP_ICMP_Cleanup
                0x9d028584       0x30 build/pic32mz_ef_sk/production/_ext/2027382860/icmp.o

.text._DHCPSocketRxSignalHandler
                0x9d0285b4       0x30
 .text._DHCPSocketRxSignalHandler
                0x9d0285b4       0x30 build/pic32mz_ef_sk/production/_ext/2027382860/dhcp.o

.text.TCPIP_DHCP_IsActive
                0x9d0285e4       0x30
 .text.TCPIP_DHCP_IsActive
                0x9d0285e4       0x30 build/pic32mz_ef_sk/production/_ext/2027382860/dhcp.o
                0x9d0285e4                TCPIP_DHCP_IsActive

.text._TCPIP_HEAP_FreeSize
                0x9d028614       0x30
 .text._TCPIP_HEAP_FreeSize
                0x9d028614       0x30 build/pic32mz_ef_sk/production/_ext/2027382860/tcpip_heap_internal.o

.text.TCPIP_OAHASH_EntryRemove
                0x9d028644       0x30
 .text.TCPIP_OAHASH_EntryRemove
                0x9d028644       0x30 build/pic32mz_ef_sk/production/_ext/2027382860/oahash.o
                0x9d028644                TCPIP_OAHASH_EntryRemove

.text.TCPIP_Helper_SingleListTailAdd
                0x9d028674       0x30
 .text.TCPIP_Helper_SingleListTailAdd
                0x9d028674       0x30 build/pic32mz_ef_sk/production/_ext/2027382860/tcpip_helpers.o
                0x9d028674                TCPIP_Helper_SingleListTailAdd

.text.TCPIP_STACK_NetAddressGatewaySet
                0x9d0286a4       0x30
 .text.TCPIP_STACK_NetAddressGatewaySet
                0x9d0286a4       0x30 build/pic32mz_ef_sk/production/_ext/2027382860/tcpip_manager.o
                0x9d0286a4                TCPIP_STACK_NetAddressGatewaySet

.text.TCPIP_STACK_NetAddressGet
                0x9d0286d4       0x30
 .text.TCPIP_STACK_NetAddressGet
                0x9d0286d4       0x30 build/pic32mz_ef_sk/production/_ext/2027382860/tcpip_manager.o
                0x9d0286d4                TCPIP_STACK_NetAddressGet

.text.TCPIP_STACK_NetMaskGet
                0x9d028704       0x30
 .text.TCPIP_STACK_NetMaskGet
                0x9d028704       0x30 build/pic32mz_ef_sk/production/_ext/2027382860/tcpip_manager.o
                0x9d028704                TCPIP_STACK_NetMaskGet

.text.TCPIP_STACK_NetworkIsLinked
                0x9d028734       0x30
 .text.TCPIP_STACK_NetworkIsLinked
                0x9d028734       0x30 build/pic32mz_ef_sk/production/_ext/2027382860/tcpip_manager.o
                0x9d028734                TCPIP_STACK_NetworkIsLinked

.text._TCPIPStackModuleRxExtract
                0x9d028764       0x30
 .text._TCPIPStackModuleRxExtract
                0x9d028764       0x30 build/pic32mz_ef_sk/production/_ext/2027382860/tcpip_manager.o
                0x9d028764                _TCPIPStackModuleRxExtract

.text.Console_UART_RegisterCallback
                0x9d028794       0x30
 .text.Console_UART_RegisterCallback
                0x9d028794       0x30 build/pic32mz_ef_sk/production/_ext/1702866625/sys_console_uart.o
                0x9d028794                Console_UART_RegisterCallback

.text.SYS_DEBUG_Initialize
                0x9d0287c4       0x30
 .text.SYS_DEBUG_Initialize
                0x9d0287c4       0x30 build/pic32mz_ef_sk/production/_ext/57023747/sys_debug.o
                0x9d0287c4                SYS_DEBUG_Initialize

.text.SYS_TMR_CallbackPeriodic
                0x9d0287f4       0x30
 .text.SYS_TMR_CallbackPeriodic
                0x9d0287f4       0x30 build/pic32mz_ef_sk/production/_ext/1344301860/sys_time_h2_adapter.o
                0x9d0287f4                SYS_TMR_CallbackPeriodic

.text.free      0x9d028824       0x30
 .text.free     0x9d028824       0x30 c:/program files (x86)/microchip/xc32/v2.30/bin/bin/../../lib/gcc/pic32mx/4.8.3/../../../../pic32mx/lib/fpu64\libc.a(malloc.o)
                0x9d028824                free

.text.TCPIP_IPV4_MaxDatagramDataSizeGet
                0x9d028854       0x2c
 .text.TCPIP_IPV4_MaxDatagramDataSizeGet
                0x9d028854       0x2c build/pic32mz_ef_sk/production/_ext/2027382860/ipv4.o
                0x9d028854                TCPIP_IPV4_MaxDatagramDataSizeGet

.text.TCPIP_OAHASH_EntryGet
                0x9d028880       0x2c
 .text.TCPIP_OAHASH_EntryGet
                0x9d028880       0x2c build/pic32mz_ef_sk/production/_ext/2027382860/oahash.o
                0x9d028880                TCPIP_OAHASH_EntryGet

.text.TCPIP_STACK_NetDefaultSet
                0x9d0288ac       0x2c
 .text.TCPIP_STACK_NetDefaultSet
                0x9d0288ac       0x2c build/pic32mz_ef_sk/production/_ext/2027382860/tcpip_manager.o
                0x9d0288ac                TCPIP_STACK_NetDefaultSet

.text.TCPIP_STACK_NetNameGet
                0x9d0288d8       0x2c
 .text.TCPIP_STACK_NetNameGet
                0x9d0288d8       0x2c build/pic32mz_ef_sk/production/_ext/2027382860/tcpip_manager.o
                0x9d0288d8                TCPIP_STACK_NetNameGet

.text.TCPIP_STACK_NetAddressDnsPrimarySet
                0x9d028904       0x2c
 .text.TCPIP_STACK_NetAddressDnsPrimarySet
                0x9d028904       0x2c build/pic32mz_ef_sk/production/_ext/2027382860/tcpip_manager.o
                0x9d028904                TCPIP_STACK_NetAddressDnsPrimarySet

.text.TCPIP_Notification_Deinitialize
                0x9d028930       0x2c
 .text.TCPIP_Notification_Deinitialize
                0x9d028930       0x2c build/pic32mz_ef_sk/production/_ext/2027382860/tcpip_notify.o
                0x9d028930                TCPIP_Notification_Deinitialize

.text.CORETIMER_Initialize
                0x9d02895c       0x2c
 .text.CORETIMER_Initialize
                0x9d02895c       0x2c build/pic32mz_ef_sk/production/_ext/1710852712/plib_coretimer.o
                0x9d02895c                CORETIMER_Initialize

.text.CommandReset
                0x9d028988       0x2c
 .text.CommandReset
                0x9d028988       0x2c build/pic32mz_ef_sk/production/_ext/2135388491/sys_command.o

.text._stub_sbd_memlayout
                0x9d0289b4       0x2c
 .text._stub_sbd_memlayout
                0x9d0289b4       0x2c c:/program files (x86)/microchip/xc32/v2.30/bin/bin/../../lib/gcc/pic32mx/4.8.3/../../../../pic32mx/lib/fpu64\libpic32.a(sbrk.o)
                0x9d0289b4                _sbd_memlayout
                0x9d0289b4                _stub_sbd_memlayout

.text.DRV_MIIM_ClientStatus
                0x9d0289e0       0x28
 .text.DRV_MIIM_ClientStatus
                0x9d0289e0       0x28 build/pic32mz_ef_sk/production/_ext/1761147401/drv_miim.o
                0x9d0289e0                DRV_MIIM_ClientStatus

.text._TCPIP_HEAP_Size
                0x9d028a08       0x28
 .text._TCPIP_HEAP_Size
                0x9d028a08       0x28 build/pic32mz_ef_sk/production/_ext/2027382860/tcpip_heap_internal.o

.text._TCPIP_HEAP_HighWatermark
                0x9d028a30       0x28
 .text._TCPIP_HEAP_HighWatermark
                0x9d028a30       0x28 build/pic32mz_ef_sk/production/_ext/2027382860/tcpip_heap_internal.o

.text._TCPIP_HEAP_LastError
                0x9d028a58       0x28
 .text._TCPIP_HEAP_LastError
                0x9d028a58       0x28 build/pic32mz_ef_sk/production/_ext/2027382860/tcpip_heap_internal.o

.text.TCPIP_STACK_NetAddressGateway
                0x9d028a80       0x28
 .text.TCPIP_STACK_NetAddressGateway
                0x9d028a80       0x28 build/pic32mz_ef_sk/production/_ext/2027382860/tcpip_manager.o
                0x9d028a80                TCPIP_STACK_NetAddressGateway

.text.TCPIP_STACK_NetAddressDnsPrimary
                0x9d028aa8       0x28
 .text.TCPIP_STACK_NetAddressDnsPrimary
                0x9d028aa8       0x28 build/pic32mz_ef_sk/production/_ext/2027382860/tcpip_manager.o
                0x9d028aa8                TCPIP_STACK_NetAddressDnsPrimary

.text.TCPIP_STACK_NetMACAddressGet
                0x9d028ad0       0x28
 .text.TCPIP_STACK_NetMACAddressGet
                0x9d028ad0       0x28 build/pic32mz_ef_sk/production/_ext/2027382860/tcpip_manager.o
                0x9d028ad0                TCPIP_STACK_NetMACAddressGet

.text._TCPIPStackSignalHandlerDeregister
                0x9d028af8       0x28
 .text._TCPIPStackSignalHandlerDeregister
                0x9d028af8       0x28 build/pic32mz_ef_sk/production/_ext/2027382860/tcpip_manager.o
                0x9d028af8                _TCPIPStackSignalHandlerDeregister

.text.EVIC_SourceEnable
                0x9d028b20       0x28
 .text.EVIC_SourceEnable
                0x9d028b20       0x28 build/pic32mz_ef_sk/production/_ext/308860137/plib_evic.o
                0x9d028b20                EVIC_SourceEnable

.text.EVIC_SourceDisable
                0x9d028b48       0x28
 .text.EVIC_SourceDisable
                0x9d028b48       0x28 build/pic32mz_ef_sk/production/_ext/308860137/plib_evic.o
                0x9d028b48                EVIC_SourceDisable

.text.EVIC_SourceStatusClear
                0x9d028b70       0x28
 .text.EVIC_SourceStatusClear
                0x9d028b70       0x28 build/pic32mz_ef_sk/production/_ext/308860137/plib_evic.o
                0x9d028b70                EVIC_SourceStatusClear

.text.SYS_INT_SourceRestore
                0x9d028b98       0x28
 .text.SYS_INT_SourceRestore
                0x9d028b98       0x28 build/pic32mz_ef_sk/production/_ext/723085273/sys_int.o
                0x9d028b98                SYS_INT_SourceRestore

.text.tcp_app_use_alternative_ip
                0x9d028bc0       0x28
 .text.tcp_app_use_alternative_ip
                0x9d028bc0       0x28 build/pic32mz_ef_sk/production/_ext/1360937237/tcp_app.o
                0x9d028bc0                tcp_app_use_alternative_ip

.text._snprintf_cdnopsuxX
                0x9d028be8       0x28
 .text._snprintf_cdnopsuxX
                0x9d028be8       0x28 c:/program files (x86)/microchip/xc32/v2.30/bin/bin/../../lib/gcc/pic32mx/4.8.3/../../../../pic32mx/lib/fpu64\libc.a(snprintf_cdnopsuxX.eo)
                0x9d028be8                _snprintf_cdnopsuxX

.text.DRV_ETHMAC_PIC32MACClose
                0x9d028c10       0x24
 .text.DRV_ETHMAC_PIC32MACClose
                0x9d028c10       0x24 build/pic32mz_ef_sk/production/_ext/1314174413/drv_ethmac.o
                0x9d028c10                DRV_ETHMAC_PIC32MACClose

.text._TCP_TxPktValid
                0x9d028c34       0x24
 .text._TCP_TxPktValid
                0x9d028c34       0x24 build/pic32mz_ef_sk/production/_ext/2027382860/tcp.o

.text._DHCPOptionWriteEnd
                0x9d028c58       0x24
 .text._DHCPOptionWriteEnd
                0x9d028c58       0x24 build/pic32mz_ef_sk/production/_ext/2027382860/dhcp.o

.rodata         0x9d028c7c       0x24
 .rodata        0x9d028c7c       0x24 build/pic32mz_ef_sk/production/_ext/2027382860/tcpip_heap_internal.o

.text._TCPIPSignalEntrySetNotify
                0x9d028ca0       0x24
 .text._TCPIPSignalEntrySetNotify
                0x9d028ca0       0x24 build/pic32mz_ef_sk/production/_ext/2027382860/tcpip_manager.o

.text.TCPIP_STACK_HeapHandleGet
                0x9d028cc4       0x24
 .text.TCPIP_STACK_HeapHandleGet
                0x9d028cc4       0x24 build/pic32mz_ef_sk/production/_ext/2027382860/tcpip_manager.o
                0x9d028cc4                TCPIP_STACK_HeapHandleGet

.rodata         0x9d028ce8       0x24
 .rodata        0x9d028ce8       0x24 build/pic32mz_ef_sk/production/_ext/1702866625/sys_console_uart.o
                0x9d028ce8                sysConsoleUARTDevDesc

.text.SYS_INT_Restore
                0x9d028d0c       0x24
 .text.SYS_INT_Restore
                0x9d028d0c       0x24 build/pic32mz_ef_sk/production/_ext/723085273/sys_int.o
                0x9d028d0c                SYS_INT_Restore

.text.tcp_app_use_default_ip
                0x9d028d30       0x24
 .text.tcp_app_use_default_ip
                0x9d028d30       0x24 build/pic32mz_ef_sk/production/_ext/1360937237/tcp_app.o
                0x9d028d30                tcp_app_use_default_ip

.text.toupper   0x9d028d54       0x24
 .text.toupper  0x9d028d54       0x24 c:/program files (x86)/microchip/xc32/v2.30/bin/bin/../../lib/gcc/pic32mx/4.8.3/../../../../pic32mx/lib/fpu64\libc.a(ctypef.o)
                0x9d028d54                toupper

.text.DRV_ETHMAC_PIC32MACStatus
                0x9d028d78       0x20
 .text.DRV_ETHMAC_PIC32MACStatus
                0x9d028d78       0x20 build/pic32mz_ef_sk/production/_ext/1314174413/drv_ethmac.o
                0x9d028d78                DRV_ETHMAC_PIC32MACStatus

.text.TCPIP_DNS_OAHASH_KeyCompare
                0x9d028d98       0x20
 .text.TCPIP_DNS_OAHASH_KeyCompare
                0x9d028d98       0x20 build/pic32mz_ef_sk/production/_ext/2027382860/dns.o

.text.TCPIP_DNS_GetIPv4Addresses
                0x9d028db8       0x20
 .text.TCPIP_DNS_GetIPv4Addresses
                0x9d028db8       0x20 build/pic32mz_ef_sk/production/_ext/2027382860/dns.o
                0x9d028db8                TCPIP_DNS_GetIPv4Addresses

.text.TCPIP_DNS_GetIPv6Addresses
                0x9d028dd8       0x20
 .text.TCPIP_DNS_GetIPv6Addresses
                0x9d028dd8       0x20 build/pic32mz_ef_sk/production/_ext/2027382860/dns.o
                0x9d028dd8                TCPIP_DNS_GetIPv6Addresses

.text.TCPIP_DNS_Enable
                0x9d028df8       0x20
 .text.TCPIP_DNS_Enable
                0x9d028df8       0x20 build/pic32mz_ef_sk/production/_ext/2027382860/dns.o
                0x9d028df8                TCPIP_DNS_Enable

.text.TCPIP_HEAP_MallocOutline
                0x9d028e18       0x20
 .text.TCPIP_HEAP_MallocOutline
                0x9d028e18       0x20 build/pic32mz_ef_sk/production/_ext/2027382860/tcpip_heap_alloc.o
                0x9d028e18                TCPIP_HEAP_MallocOutline

.text.TCPIP_HEAP_CallocOutline
                0x9d028e38       0x20
 .text.TCPIP_HEAP_CallocOutline
                0x9d028e38       0x20 build/pic32mz_ef_sk/production/_ext/2027382860/tcpip_heap_alloc.o
                0x9d028e38                TCPIP_HEAP_CallocOutline

.text.TCPIP_HEAP_FreeOutline
                0x9d028e58       0x20
 .text.TCPIP_HEAP_FreeOutline
                0x9d028e58       0x20 build/pic32mz_ef_sk/production/_ext/2027382860/tcpip_heap_alloc.o
                0x9d028e58                TCPIP_HEAP_FreeOutline

.text.TCPIP_STACK_Status
                0x9d028e78       0x20
 .text.TCPIP_STACK_Status
                0x9d028e78       0x20 build/pic32mz_ef_sk/production/_ext/2027382860/tcpip_manager.o
                0x9d028e78                TCPIP_STACK_Status

.text.TCPIP_STACK_NetIsUp
                0x9d028e98       0x20
 .text.TCPIP_STACK_NetIsUp
                0x9d028e98       0x20 build/pic32mz_ef_sk/production/_ext/2027382860/tcpip_manager.o
                0x9d028e98                TCPIP_STACK_NetIsUp

.text.TCPIP_STACK_AddressServiceCanStart
                0x9d028eb8       0x20
 .text.TCPIP_STACK_AddressServiceCanStart
                0x9d028eb8       0x20 build/pic32mz_ef_sk/production/_ext/2027382860/tcpip_manager.o
                0x9d028eb8                TCPIP_STACK_AddressServiceCanStart

.rodata         0x9d028ed8       0x20
 .rodata        0x9d028ed8       0x20 build/pic32mz_ef_sk/production/_ext/2027382860/tcpip_packet.o

.text.EVIC_SourceIsEnabled
                0x9d028ef8       0x20
 .text.EVIC_SourceIsEnabled
                0x9d028ef8       0x20 build/pic32mz_ef_sk/production/_ext/308860137/plib_evic.o
                0x9d028ef8                EVIC_SourceIsEnabled

.text.SYS_CMD_MESSAGE
                0x9d028f18       0x20
 .text.SYS_CMD_MESSAGE
                0x9d028f18       0x20 build/pic32mz_ef_sk/production/_ext/2135388491/sys_command.o
                0x9d028f18                SYS_CMD_MESSAGE

.text.SYS_INT_Disable
                0x9d028f38       0x20
 .text.SYS_INT_Disable
                0x9d028f38       0x20 build/pic32mz_ef_sk/production/_ext/723085273/sys_int.o
                0x9d028f38                SYS_INT_Disable

.text.sy_time_h2_adapter_callback
                0x9d028f58       0x20
 .text.sy_time_h2_adapter_callback
                0x9d028f58       0x20 build/pic32mz_ef_sk/production/_ext/1344301860/sys_time_h2_adapter.o
                0x9d028f58                sy_time_h2_adapter_callback

.text.main      0x9d028f78       0x20
 .text.main     0x9d028f78       0x20 build/pic32mz_ef_sk/production/_ext/1360937237/main.o
                0x9d028f78                main

.text.modbus_buf_init
                0x9d028f98       0x20
 .text.modbus_buf_init
                0x9d028f98       0x20 build/pic32mz_ef_sk/production/_ext/1360937237/modbus_buf.o
                0x9d028f98                modbus_buf_init

.text._DRV_ETHMAC_GetMCollisionCount
                0x9d028fb8       0x1c
 .text._DRV_ETHMAC_GetMCollisionCount
                0x9d028fb8       0x1c build/pic32mz_ef_sk/production/_ext/1314174413/drv_ethmac.o

.text._DRV_ETHMAC_GetSCollisionCount
                0x9d028fd4       0x1c
 .text._DRV_ETHMAC_GetSCollisionCount
                0x9d028fd4       0x1c build/pic32mz_ef_sk/production/_ext/1314174413/drv_ethmac.o

.text._DRV_ETHMAC_GetAlignError
                0x9d028ff0       0x1c
 .text._DRV_ETHMAC_GetAlignError
                0x9d028ff0       0x1c build/pic32mz_ef_sk/production/_ext/1314174413/drv_ethmac.o

.text._DRV_ETHMAC_GetFrmFcsError
                0x9d02900c       0x1c
 .text._DRV_ETHMAC_GetFrmFcsError
                0x9d02900c       0x1c build/pic32mz_ef_sk/production/_ext/1314174413/drv_ethmac.o

.text._DRV_ETHMAC_GetFrmRxOvflow
                0x9d029028       0x1c
 .text._DRV_ETHMAC_GetFrmRxOvflow
                0x9d029028       0x1c build/pic32mz_ef_sk/production/_ext/1314174413/drv_ethmac.o

.text._DRV_ETHMAC_GetFrmPktCount
                0x9d029044       0x1c
 .text._DRV_ETHMAC_GetFrmPktCount
                0x9d029044       0x1c build/pic32mz_ef_sk/production/_ext/1314174413/drv_ethmac.o

.text._DRV_ETHMAC_GetFrmRxOk
                0x9d029060       0x1c
 .text._DRV_ETHMAC_GetFrmRxOk
                0x9d029060       0x1c build/pic32mz_ef_sk/production/_ext/1314174413/drv_ethmac.o

.text._DRV_ETHMAC_GetFrmTxOk
                0x9d02907c       0x1c
 .text._DRV_ETHMAC_GetFrmTxOk
                0x9d02907c       0x1c build/pic32mz_ef_sk/production/_ext/1314174413/drv_ethmac.o

.text.ETHERNET_InterruptHandler
                0x9d029098       0x1c
 .text.ETHERNET_InterruptHandler
                0x9d029098       0x1c build/pic32mz_ef_sk/production/_ext/1314174413/drv_ethmac.o
                0x9d029098                ETHERNET_InterruptHandler

.text.DRV_ETH_NonBackToBackIPG1Set
                0x9d0290b4       0x1c
 .text.DRV_ETH_NonBackToBackIPG1Set
                0x9d0290b4       0x1c build/pic32mz_ef_sk/production/_ext/1314174413/drv_eth_pic32_lib.o
                0x9d0290b4                DRV_ETH_NonBackToBackIPG1Set

.text.DRV_ETHPHY_Deinitialize
                0x9d0290d0       0x1c
 .text.DRV_ETHPHY_Deinitialize
                0x9d0290d0       0x1c build/pic32mz_ef_sk/production/_ext/138020607/drv_ethphy.o
                0x9d0290d0                DRV_ETHPHY_Deinitialize

.text.DRV_ETHPHY_VendorDataSet
                0x9d0290ec       0x1c
 .text.DRV_ETHPHY_VendorDataSet
                0x9d0290ec       0x1c build/pic32mz_ef_sk/production/_ext/138020607/drv_ethphy.o
                0x9d0290ec                DRV_ETHPHY_VendorDataSet

.text._DRV_ETHPHY_ClientOpSmiScan
                0x9d029108       0x1c
 .text._DRV_ETHPHY_ClientOpSmiScan
                0x9d029108       0x1c build/pic32mz_ef_sk/production/_ext/138020607/drv_ethphy.o

.text.btohexa_high
                0x9d029124       0x1c
 .text.btohexa_high
                0x9d029124       0x1c build/pic32mz_ef_sk/production/_ext/2027382860/helpers.o
                0x9d029124                btohexa_high

.text.btohexa_low
                0x9d029140       0x1c
 .text.btohexa_low
                0x9d029140       0x1c build/pic32mz_ef_sk/production/_ext/2027382860/helpers.o
                0x9d029140                btohexa_low

.text.TCPIP_DNS_Resolve
                0x9d02915c       0x1c
 .text.TCPIP_DNS_Resolve
                0x9d02915c       0x1c build/pic32mz_ef_sk/production/_ext/2027382860/dns.o
                0x9d02915c                TCPIP_DNS_Resolve

.text._Command_ZcllOnOff
                0x9d029178       0x1c
 .text._Command_ZcllOnOff
                0x9d029178       0x1c build/pic32mz_ef_sk/production/_ext/2027382860/tcpip_commands.o

.text._Command_DHCPSOnOff
                0x9d029194       0x1c
 .text._Command_DHCPSOnOff
                0x9d029194       0x1c build/pic32mz_ef_sk/production/_ext/2027382860/tcpip_commands.o

.text.TCPIP_Helper_ChecksumFold
                0x9d0291b0       0x1c
 .text.TCPIP_Helper_ChecksumFold
                0x9d0291b0       0x1c build/pic32mz_ef_sk/production/_ext/2027382860/tcpip_helpers.o
                0x9d0291b0                TCPIP_Helper_ChecksumFold

.text.TCPIP_Notification_Initialize
                0x9d0291cc       0x1c
 .text.TCPIP_Notification_Initialize
                0x9d0291cc       0x1c build/pic32mz_ef_sk/production/_ext/2027382860/tcpip_notify.o
                0x9d0291cc                TCPIP_Notification_Initialize

.text.TCPIP_UDP_ClientOpen
                0x9d0291e8       0x1c
 .text.TCPIP_UDP_ClientOpen
                0x9d0291e8       0x1c build/pic32mz_ef_sk/production/_ext/2027382860/udp.o
                0x9d0291e8                TCPIP_UDP_ClientOpen

.text.TCPIP_UDP_TxPutIsReady
                0x9d029204       0x1c
 .text.TCPIP_UDP_TxPutIsReady
                0x9d029204       0x1c build/pic32mz_ef_sk/production/_ext/2027382860/udp.o
                0x9d029204                TCPIP_UDP_TxPutIsReady

.text.CORETIMER_CompareSet
                0x9d029220       0x1c
 .text.CORETIMER_CompareSet
                0x9d029220       0x1c build/pic32mz_ef_sk/production/_ext/1710852712/plib_coretimer.o
                0x9d029220                CORETIMER_CompareSet

.text.APP_Initialize
                0x9d02923c       0x1c
 .text.APP_Initialize
                0x9d02923c       0x1c build/pic32mz_ef_sk/production/_ext/1360937237/app.o
                0x9d02923c                APP_Initialize

.text.DRV_ETH_BackToBackIPGSet
                0x9d029258       0x18
 .text.DRV_ETH_BackToBackIPGSet
                0x9d029258       0x18 build/pic32mz_ef_sk/production/_ext/1314174413/drv_eth_pic32_lib.o
                0x9d029258                DRV_ETH_BackToBackIPGSet

.text.DRV_ETH_NonBackToBackIPG2Set
                0x9d029270       0x18
 .text.DRV_ETH_NonBackToBackIPG2Set
                0x9d029270       0x18 build/pic32mz_ef_sk/production/_ext/1314174413/drv_eth_pic32_lib.o
                0x9d029270                DRV_ETH_NonBackToBackIPG2Set

.text.DRV_ETHPHY_Status
                0x9d029288       0x18
 .text.DRV_ETHPHY_Status
                0x9d029288       0x18 build/pic32mz_ef_sk/production/_ext/138020607/drv_ethphy.o
                0x9d029288                DRV_ETHPHY_Status

.text.DRV_ETHPHY_ClientStatus
                0x9d0292a0       0x18
 .text.DRV_ETHPHY_ClientStatus
                0x9d0292a0       0x18 build/pic32mz_ef_sk/production/_ext/138020607/drv_ethphy.o
                0x9d0292a0                DRV_ETHPHY_ClientStatus

.text.DRV_ETHPHY_ClientOperationResult
                0x9d0292b8       0x18
 .text.DRV_ETHPHY_ClientOperationResult
                0x9d0292b8       0x18 build/pic32mz_ef_sk/production/_ext/138020607/drv_ethphy.o
                0x9d0292b8                DRV_ETHPHY_ClientOperationResult

.text.TCPIP_ARP_HashKeyCompare
                0x9d0292d0       0x18
 .text.TCPIP_ARP_HashKeyCompare
                0x9d0292d0       0x18 build/pic32mz_ef_sk/production/_ext/2027382860/arp.o
                0x9d0292d0                TCPIP_ARP_HashKeyCompare

.text.TCPIP_STACK_NetIndexGet
                0x9d0292e8       0x18
 .text.TCPIP_STACK_NetIndexGet
                0x9d0292e8       0x18 build/pic32mz_ef_sk/production/_ext/2027382860/tcpip_manager.o
                0x9d0292e8                TCPIP_STACK_NetIndexGet

.text.TCPIP_STACK_NetIxGet
                0x9d029300       0x18
 .text.TCPIP_STACK_NetIxGet
                0x9d029300       0x18 build/pic32mz_ef_sk/production/_ext/2027382860/tcpip_manager.o
                0x9d029300                TCPIP_STACK_NetIxGet

.text.TCPIP_STACK_GatewayAddressSet
                0x9d029318       0x18
 .text.TCPIP_STACK_GatewayAddressSet
                0x9d029318       0x18 build/pic32mz_ef_sk/production/_ext/2027382860/tcpip_manager.o
                0x9d029318                TCPIP_STACK_GatewayAddressSet

.text.TCPIP_STACK_PrimaryDNSAddressSet
                0x9d029330       0x18
 .text.TCPIP_STACK_PrimaryDNSAddressSet
                0x9d029330       0x18 build/pic32mz_ef_sk/production/_ext/2027382860/tcpip_manager.o
                0x9d029330                TCPIP_STACK_PrimaryDNSAddressSet

.text.TCPIP_STACK_SecondaryDNSAddressSet
                0x9d029348       0x18
 .text.TCPIP_STACK_SecondaryDNSAddressSet
                0x9d029348       0x18 build/pic32mz_ef_sk/production/_ext/2027382860/tcpip_manager.o
                0x9d029348                TCPIP_STACK_SecondaryDNSAddressSet

.text.CORETIMER_CounterGet
                0x9d029360       0x18
 .text.CORETIMER_CounterGet
                0x9d029360       0x18 build/pic32mz_ef_sk/production/_ext/1710852712/plib_coretimer.o
                0x9d029360                CORETIMER_CounterGet

.text.holding_reg_read
                0x9d029378       0x18
 .text.holding_reg_read
                0x9d029378       0x18 build/pic32mz_ef_sk/production/_ext/108032392/dialtek_modbus.o
                0x9d029378                holding_reg_read

.text.input_reg_write
                0x9d029390       0x18
 .text.input_reg_write
                0x9d029390       0x18 build/pic32mz_ef_sk/production/_ext/108032392/dialtek_modbus.o
                0x9d029390                input_reg_write

.text           0x9d0293a8       0x18
 .text          0x9d0293a8       0x18 c:/program files (x86)/microchip/xc32/v2.30/bin/bin/../../lib/gcc/pic32mx/4.8.3/../../../../pic32mx/lib/fpu64\libpic32.a(default-nmi-handler.o)
                0x9d0293a8                _nmi_handler

.text.DRV_ETH_TxPacketDescAddrSet
                0x9d0293c0       0x14
 .text.DRV_ETH_TxPacketDescAddrSet
                0x9d0293c0       0x14 build/pic32mz_ef_sk/production/_ext/1314174413/drv_eth_pic32_lib.o
                0x9d0293c0                DRV_ETH_TxPacketDescAddrSet

.text.DRV_ETH_RxPacketDescAddrSet
                0x9d0293d4       0x14
 .text.DRV_ETH_RxPacketDescAddrSet
                0x9d0293d4       0x14 build/pic32mz_ef_sk/production/_ext/1314174413/drv_eth_pic32_lib.o
                0x9d0293d4                DRV_ETH_RxPacketDescAddrSet

.text.UART2_ReadCallbackRegister
                0x9d0293e8       0x14
 .text.UART2_ReadCallbackRegister
                0x9d0293e8       0x14 build/pic32mz_ef_sk/production/_ext/309316908/plib_uart2.o
                0x9d0293e8                UART2_ReadCallbackRegister

.text.UART2_WriteCallbackRegister
                0x9d0293fc       0x14
 .text.UART2_WriteCallbackRegister
                0x9d0293fc       0x14 build/pic32mz_ef_sk/production/_ext/309316908/plib_uart2.o
                0x9d0293fc                UART2_WriteCallbackRegister

.text.DRV_ETH_RxBufferCountDecrement
                0x9d029410       0x10
 .text.DRV_ETH_RxBufferCountDecrement
                0x9d029410       0x10 build/pic32mz_ef_sk/production/_ext/1314174413/drv_eth_pic32_lib.o
                0x9d029410                DRV_ETH_RxBufferCountDecrement

.text.DRV_ETH_MIIResetEnable
                0x9d029420       0x10
 .text.DRV_ETH_MIIResetEnable
                0x9d029420       0x10 build/pic32mz_ef_sk/production/_ext/1314174413/drv_eth_pic32_lib.o
                0x9d029420                DRV_ETH_MIIResetEnable

.text.DRV_ETH_MIIResetDisable
                0x9d029430       0x10
 .text.DRV_ETH_MIIResetDisable
                0x9d029430       0x10 build/pic32mz_ef_sk/production/_ext/1314174413/drv_eth_pic32_lib.o
                0x9d029430                DRV_ETH_MIIResetDisable

.text.DRV_ETH_Disable
                0x9d029440       0x10
 .text.DRV_ETH_Disable
                0x9d029440       0x10 build/pic32mz_ef_sk/production/_ext/1314174413/drv_eth_pic32_lib.o
                0x9d029440                DRV_ETH_Disable

.text.DRV_ETH_Enable
                0x9d029450       0x10
 .text.DRV_ETH_Enable
                0x9d029450       0x10 build/pic32mz_ef_sk/production/_ext/1314174413/drv_eth_pic32_lib.o
                0x9d029450                DRV_ETH_Enable

.text.DRV_ETH_TxRTSDisable
                0x9d029460       0x10
 .text.DRV_ETH_TxRTSDisable
                0x9d029460       0x10 build/pic32mz_ef_sk/production/_ext/1314174413/drv_eth_pic32_lib.o
                0x9d029460                DRV_ETH_TxRTSDisable

.text.DRV_ETH_TxRTSEnable
                0x9d029470       0x10
 .text.DRV_ETH_TxRTSEnable
                0x9d029470       0x10 build/pic32mz_ef_sk/production/_ext/1314174413/drv_eth_pic32_lib.o
                0x9d029470                DRV_ETH_TxRTSEnable

.text.DRV_ETH_RxDisable
                0x9d029480       0x10
 .text.DRV_ETH_RxDisable
                0x9d029480       0x10 build/pic32mz_ef_sk/production/_ext/1314174413/drv_eth_pic32_lib.o
                0x9d029480                DRV_ETH_RxDisable

.text.DRV_ETH_RxEnable
                0x9d029490       0x10
 .text.DRV_ETH_RxEnable
                0x9d029490       0x10 build/pic32mz_ef_sk/production/_ext/1314174413/drv_eth_pic32_lib.o
                0x9d029490                DRV_ETH_RxEnable

.text.DRV_ETH_CollisionWindowSet
                0x9d0294a0       0x10
 .text.DRV_ETH_CollisionWindowSet
                0x9d0294a0       0x10 build/pic32mz_ef_sk/production/_ext/1314174413/drv_eth_pic32_lib.o
                0x9d0294a0                DRV_ETH_CollisionWindowSet

.text.DRV_ETH_ReTxMaxSet
                0x9d0294b0       0x10
 .text.DRV_ETH_ReTxMaxSet
                0x9d0294b0       0x10 build/pic32mz_ef_sk/production/_ext/1314174413/drv_eth_pic32_lib.o
                0x9d0294b0                DRV_ETH_ReTxMaxSet

.text.DRV_ETH_RMIIResetEnable
                0x9d0294c0       0x10
 .text.DRV_ETH_RMIIResetEnable
                0x9d0294c0       0x10 build/pic32mz_ef_sk/production/_ext/1314174413/drv_eth_pic32_lib.o
                0x9d0294c0                DRV_ETH_RMIIResetEnable

.text.DRV_ETH_RMIIResetDisable
                0x9d0294d0       0x10
 .text.DRV_ETH_RMIIResetDisable
                0x9d0294d0       0x10 build/pic32mz_ef_sk/production/_ext/1314174413/drv_eth_pic32_lib.o
                0x9d0294d0                DRV_ETH_RMIIResetDisable

.text.DRV_ETH_RMIISpeedSet
                0x9d0294e0       0x10
 .text.DRV_ETH_RMIISpeedSet
                0x9d0294e0       0x10 build/pic32mz_ef_sk/production/_ext/1314174413/drv_eth_pic32_lib.o
                0x9d0294e0                DRV_ETH_RMIISpeedSet

.text.DRV_ETH_RxFiltersClr
                0x9d0294f0       0x10
 .text.DRV_ETH_RxFiltersClr
                0x9d0294f0       0x10 build/pic32mz_ef_sk/production/_ext/1314174413/drv_eth_pic32_lib.o
                0x9d0294f0                DRV_ETH_RxFiltersClr

.text.DRV_ETH_RxFiltersSet
                0x9d029500       0x10
 .text.DRV_ETH_RxFiltersSet
                0x9d029500       0x10 build/pic32mz_ef_sk/production/_ext/1314174413/drv_eth_pic32_lib.o
                0x9d029500                DRV_ETH_RxFiltersSet

.text.DRV_ETH_PauseTimerSet
                0x9d029510       0x10
 .text.DRV_ETH_PauseTimerSet
                0x9d029510       0x10 build/pic32mz_ef_sk/production/_ext/1314174413/drv_eth_pic32_lib.o
                0x9d029510                DRV_ETH_PauseTimerSet

.text.DRV_ETH_TxPauseEnable
                0x9d029520       0x10
 .text.DRV_ETH_TxPauseEnable
                0x9d029520       0x10 build/pic32mz_ef_sk/production/_ext/1314174413/drv_eth_pic32_lib.o
                0x9d029520                DRV_ETH_TxPauseEnable

.text.DRV_ETH_RxPauseEnable
                0x9d029530       0x10
 .text.DRV_ETH_RxPauseEnable
                0x9d029530       0x10 build/pic32mz_ef_sk/production/_ext/1314174413/drv_eth_pic32_lib.o
                0x9d029530                DRV_ETH_RxPauseEnable

.text.DRV_ETH_AutoFlowControlEnable
                0x9d029540       0x10
 .text.DRV_ETH_AutoFlowControlEnable
                0x9d029540       0x10 build/pic32mz_ef_sk/production/_ext/1314174413/drv_eth_pic32_lib.o
                0x9d029540                DRV_ETH_AutoFlowControlEnable

.text.DRV_ETH_RxFiltersHTSet
                0x9d029550       0x10
 .text.DRV_ETH_RxFiltersHTSet
                0x9d029550       0x10 build/pic32mz_ef_sk/production/_ext/1314174413/drv_eth_pic32_lib.o
                0x9d029550                DRV_ETH_RxFiltersHTSet

.text.DRV_ETH_MIIMNoPreEnable
                0x9d029560       0x10
 .text.DRV_ETH_MIIMNoPreEnable
                0x9d029560       0x10 build/pic32mz_ef_sk/production/_ext/1314174413/drv_eth_pic32_lib.o
                0x9d029560                DRV_ETH_MIIMNoPreEnable

.text.DRV_ETH_MIIMNoPreDisable
                0x9d029570       0x10
 .text.DRV_ETH_MIIMNoPreDisable
                0x9d029570       0x10 build/pic32mz_ef_sk/production/_ext/1314174413/drv_eth_pic32_lib.o
                0x9d029570                DRV_ETH_MIIMNoPreDisable

.text.DRV_ETH_MIIMScanIncrEnable
                0x9d029580       0x10
 .text.DRV_ETH_MIIMScanIncrEnable
                0x9d029580       0x10 build/pic32mz_ef_sk/production/_ext/1314174413/drv_eth_pic32_lib.o
                0x9d029580                DRV_ETH_MIIMScanIncrEnable

.text.DRV_ETH_MIIMScanIncrDisable
                0x9d029590       0x10
 .text.DRV_ETH_MIIMScanIncrDisable
                0x9d029590       0x10 build/pic32mz_ef_sk/production/_ext/1314174413/drv_eth_pic32_lib.o
                0x9d029590                DRV_ETH_MIIMScanIncrDisable

.text.DRV_ETH_PHYAddressSet
                0x9d0295a0       0x10
 .text.DRV_ETH_PHYAddressSet
                0x9d0295a0       0x10 build/pic32mz_ef_sk/production/_ext/1314174413/drv_eth_pic32_lib.o
                0x9d0295a0                DRV_ETH_PHYAddressSet

.text.DRV_ETH_RegisterAddressSet
                0x9d0295b0       0x10
 .text.DRV_ETH_RegisterAddressSet
                0x9d0295b0       0x10 build/pic32mz_ef_sk/production/_ext/1314174413/drv_eth_pic32_lib.o
                0x9d0295b0                DRV_ETH_RegisterAddressSet

.text.DRV_ETH_ClearDataValid
                0x9d0295c0       0x10
 .text.DRV_ETH_ClearDataValid
                0x9d0295c0       0x10 build/pic32mz_ef_sk/production/_ext/1314174413/drv_eth_pic32_lib.o
                0x9d0295c0                DRV_ETH_ClearDataValid

.text.DRV_ETH_MIIMScanModeEnable
                0x9d0295d0       0x10
 .text.DRV_ETH_MIIMScanModeEnable
                0x9d0295d0       0x10 build/pic32mz_ef_sk/production/_ext/1314174413/drv_eth_pic32_lib.o
                0x9d0295d0                DRV_ETH_MIIMScanModeEnable

.text.DRV_ETH_MIIMScanModeDisable
                0x9d0295e0       0x10
 .text.DRV_ETH_MIIMScanModeDisable
                0x9d0295e0       0x10 build/pic32mz_ef_sk/production/_ext/1314174413/drv_eth_pic32_lib.o
                0x9d0295e0                DRV_ETH_MIIMScanModeDisable

.text.DRV_ETH_MIIMWriteStart
                0x9d0295f0       0x10
 .text.DRV_ETH_MIIMWriteStart
                0x9d0295f0       0x10 build/pic32mz_ef_sk/production/_ext/1314174413/drv_eth_pic32_lib.o
                0x9d0295f0                DRV_ETH_MIIMWriteStart

.text.DRV_ETH_MIIMResetEnable
                0x9d029600       0x10
 .text.DRV_ETH_MIIMResetEnable
                0x9d029600       0x10 build/pic32mz_ef_sk/production/_ext/1314174413/drv_eth_pic32_lib.o
                0x9d029600                DRV_ETH_MIIMResetEnable

.text.DRV_ETH_MIIMResetDisable
                0x9d029610       0x10
 .text.DRV_ETH_MIIMResetDisable
                0x9d029610       0x10 build/pic32mz_ef_sk/production/_ext/1314174413/drv_eth_pic32_lib.o
                0x9d029610                DRV_ETH_MIIMResetDisable

.text.DRV_ETH_MIIMClockSet
                0x9d029620       0x10
 .text.DRV_ETH_MIIMClockSet
                0x9d029620       0x10 build/pic32mz_ef_sk/production/_ext/1314174413/drv_eth_pic32_lib.o
                0x9d029620                DRV_ETH_MIIMClockSet

.rodata         0x9d029630       0x10
 .rodata        0x9d029630       0x10 build/pic32mz_ef_sk/production/_ext/138020607/drv_extphy_smsc8740.o
                0x9d029630                DRV_ETHPHY_OBJECT_SMSC_LAN8740

.text.TCPIP_ARP_HashKeyCopy
                0x9d029640       0x10
 .text.TCPIP_ARP_HashKeyCopy
                0x9d029640       0x10 build/pic32mz_ef_sk/production/_ext/2027382860/arp.o
                0x9d029640                TCPIP_ARP_HashKeyCopy

.text.TCPIP_Helper_SingleListInitialize
                0x9d029650       0x10
 .text.TCPIP_Helper_SingleListInitialize
                0x9d029650       0x10 build/pic32mz_ef_sk/production/_ext/2027382860/tcpip_helpers.o
                0x9d029650                TCPIP_Helper_SingleListInitialize

.text.tcp_app_set_alternative_ip
                0x9d029660       0x10
 .text.tcp_app_set_alternative_ip
                0x9d029660       0x10 build/pic32mz_ef_sk/production/_ext/1360937237/tcp_app.o
                0x9d029660                tcp_app_set_alternative_ip

.text.modbus_rx_buf_clear
                0x9d029670       0x10
 .text.modbus_rx_buf_clear
                0x9d029670       0x10 build/pic32mz_ef_sk/production/_ext/1360937237/modbus_buf.o
                0x9d029670                modbus_rx_buf_clear

.text.modbus_tx_buf_clear
                0x9d029680       0x10
 .text.modbus_tx_buf_clear
                0x9d029680       0x10 build/pic32mz_ef_sk/production/_ext/1360937237/modbus_buf.o
                0x9d029680                modbus_tx_buf_clear

.text.DRV_ETHMAC_PIC32MACEventPendingGet
                0x9d029690        0xc
 .text.DRV_ETHMAC_PIC32MACEventPendingGet
                0x9d029690        0xc build/pic32mz_ef_sk/production/_ext/1314174413/drv_ethmac.o
                0x9d029690                DRV_ETHMAC_PIC32MACEventPendingGet

.text.DRV_ETH_EthernetIsBusy
                0x9d02969c        0xc
 .text.DRV_ETH_EthernetIsBusy
                0x9d02969c        0xc build/pic32mz_ef_sk/production/_ext/1314174413/drv_eth_pic32_lib.o
                0x9d02969c                DRV_ETH_EthernetIsBusy

.text.DRV_ETH_TransmitIsBusy
                0x9d0296a8        0xc
 .text.DRV_ETH_TransmitIsBusy
                0x9d0296a8        0xc build/pic32mz_ef_sk/production/_ext/1314174413/drv_eth_pic32_lib.o
                0x9d0296a8                DRV_ETH_TransmitIsBusy

.text.DRV_ETH_ReceiveIsBusy
                0x9d0296b4        0xc
 .text.DRV_ETH_ReceiveIsBusy
                0x9d0296b4        0xc build/pic32mz_ef_sk/production/_ext/1314174413/drv_eth_pic32_lib.o
                0x9d0296b4                DRV_ETH_ReceiveIsBusy

.text.DRV_ETH_EventsClr
                0x9d0296c0        0xc
 .text.DRV_ETH_EventsClr
                0x9d0296c0        0xc build/pic32mz_ef_sk/production/_ext/1314174413/drv_eth_pic32_lib.o
                0x9d0296c0                DRV_ETH_EventsClr

.text.DRV_ETH_EventsEnableSet
                0x9d0296cc        0xc
 .text.DRV_ETH_EventsEnableSet
                0x9d0296cc        0xc build/pic32mz_ef_sk/production/_ext/1314174413/drv_eth_pic32_lib.o
                0x9d0296cc                DRV_ETH_EventsEnableSet

.text.DRV_ETH_EventsEnableClr
                0x9d0296d8        0xc
 .text.DRV_ETH_EventsEnableClr
                0x9d0296d8        0xc build/pic32mz_ef_sk/production/_ext/1314174413/drv_eth_pic32_lib.o
                0x9d0296d8                DRV_ETH_EventsEnableClr

.text.DRV_ETH_EventsClear
                0x9d0296e4        0xc
 .text.DRV_ETH_EventsClear
                0x9d0296e4        0xc build/pic32mz_ef_sk/production/_ext/1314174413/drv_eth_pic32_lib.o
                0x9d0296e4                DRV_ETH_EventsClear

.text.DRV_ETH_IsEnabled
                0x9d0296f0        0xc
 .text.DRV_ETH_IsEnabled
                0x9d0296f0        0xc build/pic32mz_ef_sk/production/_ext/1314174413/drv_eth_pic32_lib.o
                0x9d0296f0                DRV_ETH_IsEnabled

.text.DRV_ETH_MIIMIsBusy
                0x9d0296fc        0xc
 .text.DRV_ETH_MIIMIsBusy
                0x9d0296fc        0xc build/pic32mz_ef_sk/production/_ext/1314174413/drv_eth_pic32_lib.o
                0x9d0296fc                DRV_ETH_MIIMIsBusy

.text.DRV_ETH_DataNotValid
                0x9d029708        0xc
 .text.DRV_ETH_DataNotValid
                0x9d029708        0xc build/pic32mz_ef_sk/production/_ext/1314174413/drv_eth_pic32_lib.o
                0x9d029708                DRV_ETH_DataNotValid

.text.DRV_EXTPHY_SMIClockGet
                0x9d029714        0xc
 .text.DRV_EXTPHY_SMIClockGet
                0x9d029714        0xc build/pic32mz_ef_sk/production/_ext/138020607/drv_extphy_smsc8740.o

.text.TCPIP_STACK_NumberOfNetworksGet
                0x9d029720        0xc
 .text.TCPIP_STACK_NumberOfNetworksGet
                0x9d029720        0xc build/pic32mz_ef_sk/production/_ext/2027382860/tcpip_manager.o
                0x9d029720                TCPIP_STACK_NumberOfNetworksGet

.text.TCPIP_STACK_NetBIOSName
                0x9d02972c        0xc
 .text.TCPIP_STACK_NetBIOSName
                0x9d02972c        0xc build/pic32mz_ef_sk/production/_ext/2027382860/tcpip_manager.o
                0x9d02972c                TCPIP_STACK_NetBIOSName

.text._TCPIPStackAddressServiceIsRunning
                0x9d029738        0xc
 .text._TCPIPStackAddressServiceIsRunning
                0x9d029738        0xc build/pic32mz_ef_sk/production/_ext/2027382860/tcpip_manager.o
                0x9d029738                _TCPIPStackAddressServiceIsRunning

.text.CORETIMER_CallbackSet
                0x9d029744        0xc
 .text.CORETIMER_CallbackSet
                0x9d029744        0xc build/pic32mz_ef_sk/production/_ext/1710852712/plib_coretimer.o
                0x9d029744                CORETIMER_CallbackSet

.text.CORETIMER_FrequencyGet
                0x9d029750        0xc
 .text.CORETIMER_FrequencyGet
                0x9d029750        0xc build/pic32mz_ef_sk/production/_ext/1710852712/plib_coretimer.o
                0x9d029750                CORETIMER_FrequencyGet

.text.SYS_TIME_FrequencyGet
                0x9d02975c        0xc
 .text.SYS_TIME_FrequencyGet
                0x9d02975c        0xc build/pic32mz_ef_sk/production/_ext/1658225107/sys_time.o
                0x9d02975c                SYS_TIME_FrequencyGet

.rodata         0x9d029768        0xc
 .rodata        0x9d029768        0xc build/pic32mz_ef_sk/production/_ext/1658225107/sys_time.o

.text.BSP_Initialize
                0x9d029774        0x8
 .text.BSP_Initialize
                0x9d029774        0x8 build/pic32mz_ef_sk/production/_ext/978308758/bsp.o
                0x9d029774                BSP_Initialize

.text.DRV_ETHMAC_PIC32MACReinitialize
                0x9d02977c        0x8
 .text.DRV_ETHMAC_PIC32MACReinitialize
                0x9d02977c        0x8 build/pic32mz_ef_sk/production/_ext/1314174413/drv_ethmac.o
                0x9d02977c                DRV_ETHMAC_PIC32MACReinitialize

.text.DRV_ETHMAC_PIC32MACPowerMode
                0x9d029784        0x8
 .text.DRV_ETHMAC_PIC32MACPowerMode
                0x9d029784        0x8 build/pic32mz_ef_sk/production/_ext/1314174413/drv_ethmac.o
                0x9d029784                DRV_ETHMAC_PIC32MACPowerMode

.text.DRV_ETH_MaxFrameLengthSet
                0x9d02978c        0x8
 .text.DRV_ETH_MaxFrameLengthSet
                0x9d02978c        0x8 build/pic32mz_ef_sk/production/_ext/1314174413/drv_eth_pic32_lib.o
                0x9d02978c                DRV_ETH_MaxFrameLengthSet

.text.DRV_ETH_RxPacketCountGet
                0x9d029794        0x8
 .text.DRV_ETH_RxPacketCountGet
                0x9d029794        0x8 build/pic32mz_ef_sk/production/_ext/1314174413/drv_eth_pic32_lib.o
                0x9d029794                DRV_ETH_RxPacketCountGet

.text.DRV_ETH_TxPacketDescAddrGet
                0x9d02979c        0x8
 .text.DRV_ETH_TxPacketDescAddrGet
                0x9d02979c        0x8 build/pic32mz_ef_sk/production/_ext/1314174413/drv_eth_pic32_lib.o
                0x9d02979c                DRV_ETH_TxPacketDescAddrGet

.text.DRV_ETH_RxPacketDescAddrGet
                0x9d0297a4        0x8
 .text.DRV_ETH_RxPacketDescAddrGet
                0x9d0297a4        0x8 build/pic32mz_ef_sk/production/_ext/1314174413/drv_eth_pic32_lib.o
                0x9d0297a4                DRV_ETH_RxPacketDescAddrGet

.text.DRV_ETH_RxFullWmarkSet
                0x9d0297ac        0x8
 .text.DRV_ETH_RxFullWmarkSet
                0x9d0297ac        0x8 build/pic32mz_ef_sk/production/_ext/1314174413/drv_eth_pic32_lib.o
                0x9d0297ac                DRV_ETH_RxFullWmarkSet

.text.DRV_ETH_RxEmptyWmarkSet
                0x9d0297b4        0x8
 .text.DRV_ETH_RxEmptyWmarkSet
                0x9d0297b4        0x8 build/pic32mz_ef_sk/production/_ext/1314174413/drv_eth_pic32_lib.o
                0x9d0297b4                DRV_ETH_RxEmptyWmarkSet

.text.DRV_ETH_FramesTxdOkCountGet
                0x9d0297bc        0x8
 .text.DRV_ETH_FramesTxdOkCountGet
                0x9d0297bc        0x8 build/pic32mz_ef_sk/production/_ext/1314174413/drv_eth_pic32_lib.o
                0x9d0297bc                DRV_ETH_FramesTxdOkCountGet

.text.DRV_ETH_FramesRxdOkCountGet
                0x9d0297c4        0x8
 .text.DRV_ETH_FramesRxdOkCountGet
                0x9d0297c4        0x8 build/pic32mz_ef_sk/production/_ext/1314174413/drv_eth_pic32_lib.o
                0x9d0297c4                DRV_ETH_FramesRxdOkCountGet

.text.DRV_ETH_RxOverflowCountGet
                0x9d0297cc        0x8
 .text.DRV_ETH_RxOverflowCountGet
                0x9d0297cc        0x8 build/pic32mz_ef_sk/production/_ext/1314174413/drv_eth_pic32_lib.o
                0x9d0297cc                DRV_ETH_RxOverflowCountGet

.text.DRV_ETH_FCSErrorCountGet
                0x9d0297d4        0x8
 .text.DRV_ETH_FCSErrorCountGet
                0x9d0297d4        0x8 build/pic32mz_ef_sk/production/_ext/1314174413/drv_eth_pic32_lib.o
                0x9d0297d4                DRV_ETH_FCSErrorCountGet

.text.DRV_ETH_AlignErrorCountGet
                0x9d0297dc        0x8
 .text.DRV_ETH_AlignErrorCountGet
                0x9d0297dc        0x8 build/pic32mz_ef_sk/production/_ext/1314174413/drv_eth_pic32_lib.o
                0x9d0297dc                DRV_ETH_AlignErrorCountGet

.text.DRV_ETH_SingleCollisionCountGet
                0x9d0297e4        0x8
 .text.DRV_ETH_SingleCollisionCountGet
                0x9d0297e4        0x8 build/pic32mz_ef_sk/production/_ext/1314174413/drv_eth_pic32_lib.o
                0x9d0297e4                DRV_ETH_SingleCollisionCountGet

.text.DRV_ETH_MultipleCollisionCountGet
                0x9d0297ec        0x8
 .text.DRV_ETH_MultipleCollisionCountGet
                0x9d0297ec        0x8 build/pic32mz_ef_sk/production/_ext/1314174413/drv_eth_pic32_lib.o
                0x9d0297ec                DRV_ETH_MultipleCollisionCountGet

.text.DRV_ETH_EventsGet
                0x9d0297f4        0x8
 .text.DRV_ETH_EventsGet
                0x9d0297f4        0x8 build/pic32mz_ef_sk/production/_ext/1314174413/drv_eth_pic32_lib.o
                0x9d0297f4                DRV_ETH_EventsGet

.text.DRV_ETH_MIIMReadDataGet
                0x9d0297fc        0x8
 .text.DRV_ETH_MIIMReadDataGet
                0x9d0297fc        0x8 build/pic32mz_ef_sk/production/_ext/1314174413/drv_eth_pic32_lib.o
                0x9d0297fc                DRV_ETH_MIIMReadDataGet

.text._DRV_ETHPHY_ClientOpNone
                0x9d029804        0x8
 .text._DRV_ETHPHY_ClientOpNone
                0x9d029804        0x8 build/pic32mz_ef_sk/production/_ext/138020607/drv_ethphy.o

.text.DRV_ETHPHY_SMIRead
                0x9d02980c        0x8
 .text.DRV_ETHPHY_SMIRead
                0x9d02980c        0x8 build/pic32mz_ef_sk/production/_ext/138020607/drv_ethphy.o
                0x9d02980c                DRV_ETHPHY_SMIRead

.text.DRV_ETHPHY_SMIWrite
                0x9d029814        0x8
 .text.DRV_ETHPHY_SMIWrite
                0x9d029814        0x8 build/pic32mz_ef_sk/production/_ext/138020607/drv_ethphy.o
                0x9d029814                DRV_ETHPHY_SMIWrite

.text.DRV_ETHPHY_SMIScanStart
                0x9d02981c        0x8
 .text.DRV_ETHPHY_SMIScanStart
                0x9d02981c        0x8 build/pic32mz_ef_sk/production/_ext/138020607/drv_ethphy.o
                0x9d02981c                DRV_ETHPHY_SMIScanStart

.text.DRV_ETHPHY_SMIScanStop
                0x9d029824        0x8
 .text.DRV_ETHPHY_SMIScanStop
                0x9d029824        0x8 build/pic32mz_ef_sk/production/_ext/138020607/drv_ethphy.o
                0x9d029824                DRV_ETHPHY_SMIScanStop

.text.DRV_ETHPHY_SMIScanStatusGet
                0x9d02982c        0x8
 .text.DRV_ETHPHY_SMIScanStatusGet
                0x9d02982c        0x8 build/pic32mz_ef_sk/production/_ext/138020607/drv_ethphy.o
                0x9d02982c                DRV_ETHPHY_SMIScanStatusGet

.text.DRV_ETHPHY_SMIScanDataGet
                0x9d029834        0x8
 .text.DRV_ETHPHY_SMIScanDataGet
                0x9d029834        0x8 build/pic32mz_ef_sk/production/_ext/138020607/drv_ethphy.o
                0x9d029834                DRV_ETHPHY_SMIScanDataGet

.text.DRV_ETHPHY_SMIStatus
                0x9d02983c        0x8
 .text.DRV_ETHPHY_SMIStatus
                0x9d02983c        0x8 build/pic32mz_ef_sk/production/_ext/138020607/drv_ethphy.o
                0x9d02983c                DRV_ETHPHY_SMIStatus

.text.DRV_ETHPHY_SMIClockSet
                0x9d029844        0x8
 .text.DRV_ETHPHY_SMIClockSet
                0x9d029844        0x8 build/pic32mz_ef_sk/production/_ext/138020607/drv_ethphy.o
                0x9d029844                DRV_ETHPHY_SMIClockSet

.text.DRV_MIIM_Reinitialize
                0x9d02984c        0x8
 .text.DRV_MIIM_Reinitialize
                0x9d02984c        0x8 build/pic32mz_ef_sk/production/_ext/1761147401/drv_miim.o
                0x9d02984c                DRV_MIIM_Reinitialize

.text._DHCPOptionProcessEnd
                0x9d029854        0x8
 .text._DHCPOptionProcessEnd
                0x9d029854        0x8 build/pic32mz_ef_sk/production/_ext/2027382860/dhcp.o

.text.TCPIP_IPV4_IsFragmentationEnabled
                0x9d02985c        0x8
 .text.TCPIP_IPV4_IsFragmentationEnabled
                0x9d02985c        0x8 build/pic32mz_ef_sk/production/_ext/2027382860/ipv4.o
                0x9d02985c                TCPIP_IPV4_IsFragmentationEnabled

.text.TCPIP_STACK_NetDefaultGet
                0x9d029864        0x8
 .text.TCPIP_STACK_NetDefaultGet
                0x9d029864        0x8 build/pic32mz_ef_sk/production/_ext/2027382860/tcpip_manager.o
                0x9d029864                TCPIP_STACK_NetDefaultGet

.text.TCPIP_STACK_NetGetType
                0x9d02986c        0x8
 .text.TCPIP_STACK_NetGetType
                0x9d02986c        0x8 build/pic32mz_ef_sk/production/_ext/2027382860/tcpip_manager.o
                0x9d02986c                TCPIP_STACK_NetGetType

.text.TCPIP_PKT_Deinitialize
                0x9d029874        0x8
 .text.TCPIP_PKT_Deinitialize
                0x9d029874        0x8 build/pic32mz_ef_sk/production/_ext/2027382860/tcpip_packet.o
                0x9d029874                TCPIP_PKT_Deinitialize

.text._mon_putc
                0x9d02987c        0x8
 .text._mon_putc
                0x9d02987c        0x8 build/pic32mz_ef_sk/production/_ext/458842868/xc32_monitor.o
                0x9d02987c                _mon_putc

.text.SYS_CMD_READY_TO_READ
                0x9d029884        0x8
 .text.SYS_CMD_READY_TO_READ
                0x9d029884        0x8 build/pic32mz_ef_sk/production/_ext/2135388491/sys_command.o
                0x9d029884                SYS_CMD_READY_TO_READ

.text.Console_UART_Tasks
                0x9d02988c        0x8
 .text.Console_UART_Tasks
                0x9d02988c        0x8 build/pic32mz_ef_sk/production/_ext/1702866625/sys_console_uart.o
                0x9d02988c                Console_UART_Tasks

.text.SYS_DEBUG_ErrorLevelGet
                0x9d029894        0x8
 .text.SYS_DEBUG_ErrorLevelGet
                0x9d029894        0x8 build/pic32mz_ef_sk/production/_ext/57023747/sys_debug.o
                0x9d029894                SYS_DEBUG_ErrorLevelGet

.text.get_wr_reg_addr
                0x9d02989c        0x8
 .text.get_wr_reg_addr
                0x9d02989c        0x8 build/pic32mz_ef_sk/production/_ext/108032392/dialtek_modbus.o
                0x9d02989c                get_wr_reg_addr

.text.get_wr_reg_val
                0x9d0298a4        0x8
 .text.get_wr_reg_val
                0x9d0298a4        0x8 build/pic32mz_ef_sk/production/_ext/108032392/dialtek_modbus.o
                0x9d0298a4                get_wr_reg_val

.text.TCP_APP_Initialize
                0x9d0298ac        0x8
 .text.TCP_APP_Initialize
                0x9d0298ac        0x8 build/pic32mz_ef_sk/production/_ext/1360937237/tcp_app.o
                0x9d0298ac                TCP_APP_Initialize

.text._on_reset
                0x9d0298b4        0x8
 .text._on_reset
                0x9d0298b4        0x8 c:/program files (x86)/microchip/xc32/v2.30/bin/bin/../../lib/gcc/pic32mx/4.8.3/../../../../pic32mx/lib/fpu64\libpic32.a(default-on-reset.o)
                0x9d0298b4                _on_reset

.text._on_bootstrap
                0x9d0298bc        0x8
 .text._on_bootstrap
                0x9d0298bc        0x8 c:/program files (x86)/microchip/xc32/v2.30/bin/bin/../../lib/gcc/pic32mx/4.8.3/../../../../pic32mx/lib/fpu64\libpic32.a(default-on-bootstrap.o)
                0x9d0298bc                _on_bootstrap

.rodata         0x9d0298c8        0x8
 .rodata        0x9d0298c8        0x8 c:/program files (x86)/microchip/xc32/v2.30/bin/bin/../../lib/gcc/pic32mx/4.8.3/../../../../pic32mx/lib/fpu64\libmfd.a(s_frexp.o)
